   1               		.file	"DeviceStandardReq.c"
   2               	__SP_H__ = 0x3e
   3               	__SP_L__ = 0x3d
   4               	__SREG__ = 0x3f
   5               	__tmp_reg__ = 0
   6               	__zero_reg__ = 1
   7               		.text
   8               	.Ltext0:
   9               		.cfi_sections	.debug_frame
  10               		.section	.text.USB_Device_ProcessControlRequest,"ax",@progbits
  11               	.global	USB_Device_ProcessControlRequest
  13               	USB_Device_ProcessControlRequest:
  14               	.LFB85:
  15               		.file 1 "lib/lufa/LUFA/Drivers/USB/Core/DeviceStandardReq.c"
   1:lib/lufa/LUFA/Drivers/USB/Core/DeviceStandardReq.c **** /*
   2:lib/lufa/LUFA/Drivers/USB/Core/DeviceStandardReq.c ****              LUFA Library
   3:lib/lufa/LUFA/Drivers/USB/Core/DeviceStandardReq.c ****      Copyright (C) Dean Camera, 2019.
   4:lib/lufa/LUFA/Drivers/USB/Core/DeviceStandardReq.c **** 
   5:lib/lufa/LUFA/Drivers/USB/Core/DeviceStandardReq.c ****   dean [at] fourwalledcubicle [dot] com
   6:lib/lufa/LUFA/Drivers/USB/Core/DeviceStandardReq.c ****            www.lufa-lib.org
   7:lib/lufa/LUFA/Drivers/USB/Core/DeviceStandardReq.c **** */
   8:lib/lufa/LUFA/Drivers/USB/Core/DeviceStandardReq.c **** 
   9:lib/lufa/LUFA/Drivers/USB/Core/DeviceStandardReq.c **** /*
  10:lib/lufa/LUFA/Drivers/USB/Core/DeviceStandardReq.c ****   Copyright 2019  Dean Camera (dean [at] fourwalledcubicle [dot] com)
  11:lib/lufa/LUFA/Drivers/USB/Core/DeviceStandardReq.c **** 
  12:lib/lufa/LUFA/Drivers/USB/Core/DeviceStandardReq.c ****   Permission to use, copy, modify, distribute, and sell this
  13:lib/lufa/LUFA/Drivers/USB/Core/DeviceStandardReq.c ****   software and its documentation for any purpose is hereby granted
  14:lib/lufa/LUFA/Drivers/USB/Core/DeviceStandardReq.c ****   without fee, provided that the above copyright notice appear in
  15:lib/lufa/LUFA/Drivers/USB/Core/DeviceStandardReq.c ****   all copies and that both that the copyright notice and this
  16:lib/lufa/LUFA/Drivers/USB/Core/DeviceStandardReq.c ****   permission notice and warranty disclaimer appear in supporting
  17:lib/lufa/LUFA/Drivers/USB/Core/DeviceStandardReq.c ****   documentation, and that the name of the author not be used in
  18:lib/lufa/LUFA/Drivers/USB/Core/DeviceStandardReq.c ****   advertising or publicity pertaining to distribution of the
  19:lib/lufa/LUFA/Drivers/USB/Core/DeviceStandardReq.c ****   software without specific, written prior permission.
  20:lib/lufa/LUFA/Drivers/USB/Core/DeviceStandardReq.c **** 
  21:lib/lufa/LUFA/Drivers/USB/Core/DeviceStandardReq.c ****   The author disclaims all warranties with regard to this
  22:lib/lufa/LUFA/Drivers/USB/Core/DeviceStandardReq.c ****   software, including all implied warranties of merchantability
  23:lib/lufa/LUFA/Drivers/USB/Core/DeviceStandardReq.c ****   and fitness.  In no event shall the author be liable for any
  24:lib/lufa/LUFA/Drivers/USB/Core/DeviceStandardReq.c ****   special, indirect or consequential damages or any damages
  25:lib/lufa/LUFA/Drivers/USB/Core/DeviceStandardReq.c ****   whatsoever resulting from loss of use, data or profits, whether
  26:lib/lufa/LUFA/Drivers/USB/Core/DeviceStandardReq.c ****   in an action of contract, negligence or other tortious action,
  27:lib/lufa/LUFA/Drivers/USB/Core/DeviceStandardReq.c ****   arising out of or in connection with the use or performance of
  28:lib/lufa/LUFA/Drivers/USB/Core/DeviceStandardReq.c ****   this software.
  29:lib/lufa/LUFA/Drivers/USB/Core/DeviceStandardReq.c **** */
  30:lib/lufa/LUFA/Drivers/USB/Core/DeviceStandardReq.c **** 
  31:lib/lufa/LUFA/Drivers/USB/Core/DeviceStandardReq.c **** #define  __INCLUDE_FROM_USB_DRIVER
  32:lib/lufa/LUFA/Drivers/USB/Core/DeviceStandardReq.c **** #include "USBMode.h"
  33:lib/lufa/LUFA/Drivers/USB/Core/DeviceStandardReq.c **** 
  34:lib/lufa/LUFA/Drivers/USB/Core/DeviceStandardReq.c **** #if defined(USB_CAN_BE_DEVICE)
  35:lib/lufa/LUFA/Drivers/USB/Core/DeviceStandardReq.c **** 
  36:lib/lufa/LUFA/Drivers/USB/Core/DeviceStandardReq.c **** #define  __INCLUDE_FROM_DEVICESTDREQ_C
  37:lib/lufa/LUFA/Drivers/USB/Core/DeviceStandardReq.c **** #include "DeviceStandardReq.h"
  38:lib/lufa/LUFA/Drivers/USB/Core/DeviceStandardReq.c **** 
  39:lib/lufa/LUFA/Drivers/USB/Core/DeviceStandardReq.c **** uint8_t USB_Device_ConfigurationNumber;
  40:lib/lufa/LUFA/Drivers/USB/Core/DeviceStandardReq.c **** 
  41:lib/lufa/LUFA/Drivers/USB/Core/DeviceStandardReq.c **** #if !defined(NO_DEVICE_SELF_POWER)
  42:lib/lufa/LUFA/Drivers/USB/Core/DeviceStandardReq.c **** bool    USB_Device_CurrentlySelfPowered;
  43:lib/lufa/LUFA/Drivers/USB/Core/DeviceStandardReq.c **** #endif
  44:lib/lufa/LUFA/Drivers/USB/Core/DeviceStandardReq.c **** 
  45:lib/lufa/LUFA/Drivers/USB/Core/DeviceStandardReq.c **** #if !defined(NO_DEVICE_REMOTE_WAKEUP)
  46:lib/lufa/LUFA/Drivers/USB/Core/DeviceStandardReq.c **** bool    USB_Device_RemoteWakeupEnabled;
  47:lib/lufa/LUFA/Drivers/USB/Core/DeviceStandardReq.c **** #endif
  48:lib/lufa/LUFA/Drivers/USB/Core/DeviceStandardReq.c **** 
  49:lib/lufa/LUFA/Drivers/USB/Core/DeviceStandardReq.c **** void USB_Device_ProcessControlRequest(void)
  50:lib/lufa/LUFA/Drivers/USB/Core/DeviceStandardReq.c **** {
  16               		.loc 1 50 1 view -0
  17               		.cfi_startproc
  18 0000 1F93      		push r17
  19               	.LCFI0:
  20               		.cfi_def_cfa_offset 3
  21               		.cfi_offset 17, -2
  22 0002 CF93      		push r28
  23               	.LCFI1:
  24               		.cfi_def_cfa_offset 4
  25               		.cfi_offset 28, -3
  26 0004 DF93      		push r29
  27               	.LCFI2:
  28               		.cfi_def_cfa_offset 5
  29               		.cfi_offset 29, -4
  30 0006 CDB7      		in r28,__SP_L__
  31 0008 DEB7      		in r29,__SP_H__
  32               	.LCFI3:
  33               		.cfi_def_cfa_register 28
  34 000a AA97      		sbiw r28,42
  35               	.LCFI4:
  36               		.cfi_def_cfa_offset 47
  37 000c 0FB6      		in __tmp_reg__,__SREG__
  38 000e F894      		cli
  39 0010 DEBF      		out __SP_H__,r29
  40 0012 0FBE      		out __SREG__,__tmp_reg__
  41 0014 CDBF      		out __SP_L__,r28
  42               	/* prologue: function */
  43               	/* frame size = 42 */
  44               	/* stack size = 45 */
  45               	.L__stack_usage = 45
  51:lib/lufa/LUFA/Drivers/USB/Core/DeviceStandardReq.c **** 	#if defined(ARCH_BIG_ENDIAN)
  52:lib/lufa/LUFA/Drivers/USB/Core/DeviceStandardReq.c **** 	USB_ControlRequest.bmRequestType = Endpoint_Read_8();
  53:lib/lufa/LUFA/Drivers/USB/Core/DeviceStandardReq.c **** 	USB_ControlRequest.bRequest      = Endpoint_Read_8();
  54:lib/lufa/LUFA/Drivers/USB/Core/DeviceStandardReq.c **** 	USB_ControlRequest.wValue        = Endpoint_Read_16_LE();
  55:lib/lufa/LUFA/Drivers/USB/Core/DeviceStandardReq.c **** 	USB_ControlRequest.wIndex        = Endpoint_Read_16_LE();
  56:lib/lufa/LUFA/Drivers/USB/Core/DeviceStandardReq.c **** 	USB_ControlRequest.wLength       = Endpoint_Read_16_LE();
  57:lib/lufa/LUFA/Drivers/USB/Core/DeviceStandardReq.c **** 	#else
  58:lib/lufa/LUFA/Drivers/USB/Core/DeviceStandardReq.c **** 	uint8_t* RequestHeader = (uint8_t*)&USB_ControlRequest;
  46               		.loc 1 58 2 view .LVU1
  47               	.LVL0:
  59:lib/lufa/LUFA/Drivers/USB/Core/DeviceStandardReq.c **** 
  60:lib/lufa/LUFA/Drivers/USB/Core/DeviceStandardReq.c **** 	for (uint8_t RequestHeaderByte = 0; RequestHeaderByte < sizeof(USB_Request_Header_t); RequestHeade
  48               		.loc 1 60 2 view .LVU2
  49               	.LBB172:
  50               		.loc 1 60 7 view .LVU3
  51               		.loc 1 60 38 view .LVU4
  52               	.LBE172:
  58:lib/lufa/LUFA/Drivers/USB/Core/DeviceStandardReq.c **** 
  53               		.loc 1 58 11 is_stmt 0 view .LVU5
  54 0016 80E0      		ldi r24,lo8(USB_ControlRequest)
  55 0018 90E0      		ldi r25,hi8(USB_ControlRequest)
  56               	.LVL1:
  57               	.L2:
  58               	.LBB175:
  61:lib/lufa/LUFA/Drivers/USB/Core/DeviceStandardReq.c **** 	  *(RequestHeader++) = Endpoint_Read_8();
  59               		.loc 1 61 4 is_stmt 1 discriminator 3 view .LVU6
  60               	.LBB173:
  61               	.LBI173:
  62               		.file 2 "lib/lufa/LUFA/Drivers/USB/Core/AVR8/../AVR8/Endpoint_AVR8.h"
   1:lib/lufa/LUFA/Drivers/USB/Core/AVR8/../AVR8/Endpoint_AVR8.h **** /*
   2:lib/lufa/LUFA/Drivers/USB/Core/AVR8/../AVR8/Endpoint_AVR8.h ****              LUFA Library
   3:lib/lufa/LUFA/Drivers/USB/Core/AVR8/../AVR8/Endpoint_AVR8.h ****      Copyright (C) Dean Camera, 2019.
   4:lib/lufa/LUFA/Drivers/USB/Core/AVR8/../AVR8/Endpoint_AVR8.h **** 
   5:lib/lufa/LUFA/Drivers/USB/Core/AVR8/../AVR8/Endpoint_AVR8.h ****   dean [at] fourwalledcubicle [dot] com
   6:lib/lufa/LUFA/Drivers/USB/Core/AVR8/../AVR8/Endpoint_AVR8.h ****            www.lufa-lib.org
   7:lib/lufa/LUFA/Drivers/USB/Core/AVR8/../AVR8/Endpoint_AVR8.h **** */
   8:lib/lufa/LUFA/Drivers/USB/Core/AVR8/../AVR8/Endpoint_AVR8.h **** 
   9:lib/lufa/LUFA/Drivers/USB/Core/AVR8/../AVR8/Endpoint_AVR8.h **** /*
  10:lib/lufa/LUFA/Drivers/USB/Core/AVR8/../AVR8/Endpoint_AVR8.h ****   Copyright 2019  Dean Camera (dean [at] fourwalledcubicle [dot] com)
  11:lib/lufa/LUFA/Drivers/USB/Core/AVR8/../AVR8/Endpoint_AVR8.h **** 
  12:lib/lufa/LUFA/Drivers/USB/Core/AVR8/../AVR8/Endpoint_AVR8.h ****   Permission to use, copy, modify, distribute, and sell this
  13:lib/lufa/LUFA/Drivers/USB/Core/AVR8/../AVR8/Endpoint_AVR8.h ****   software and its documentation for any purpose is hereby granted
  14:lib/lufa/LUFA/Drivers/USB/Core/AVR8/../AVR8/Endpoint_AVR8.h ****   without fee, provided that the above copyright notice appear in
  15:lib/lufa/LUFA/Drivers/USB/Core/AVR8/../AVR8/Endpoint_AVR8.h ****   all copies and that both that the copyright notice and this
  16:lib/lufa/LUFA/Drivers/USB/Core/AVR8/../AVR8/Endpoint_AVR8.h ****   permission notice and warranty disclaimer appear in supporting
  17:lib/lufa/LUFA/Drivers/USB/Core/AVR8/../AVR8/Endpoint_AVR8.h ****   documentation, and that the name of the author not be used in
  18:lib/lufa/LUFA/Drivers/USB/Core/AVR8/../AVR8/Endpoint_AVR8.h ****   advertising or publicity pertaining to distribution of the
  19:lib/lufa/LUFA/Drivers/USB/Core/AVR8/../AVR8/Endpoint_AVR8.h ****   software without specific, written prior permission.
  20:lib/lufa/LUFA/Drivers/USB/Core/AVR8/../AVR8/Endpoint_AVR8.h **** 
  21:lib/lufa/LUFA/Drivers/USB/Core/AVR8/../AVR8/Endpoint_AVR8.h ****   The author disclaims all warranties with regard to this
  22:lib/lufa/LUFA/Drivers/USB/Core/AVR8/../AVR8/Endpoint_AVR8.h ****   software, including all implied warranties of merchantability
  23:lib/lufa/LUFA/Drivers/USB/Core/AVR8/../AVR8/Endpoint_AVR8.h ****   and fitness.  In no event shall the author be liable for any
  24:lib/lufa/LUFA/Drivers/USB/Core/AVR8/../AVR8/Endpoint_AVR8.h ****   special, indirect or consequential damages or any damages
  25:lib/lufa/LUFA/Drivers/USB/Core/AVR8/../AVR8/Endpoint_AVR8.h ****   whatsoever resulting from loss of use, data or profits, whether
  26:lib/lufa/LUFA/Drivers/USB/Core/AVR8/../AVR8/Endpoint_AVR8.h ****   in an action of contract, negligence or other tortious action,
  27:lib/lufa/LUFA/Drivers/USB/Core/AVR8/../AVR8/Endpoint_AVR8.h ****   arising out of or in connection with the use or performance of
  28:lib/lufa/LUFA/Drivers/USB/Core/AVR8/../AVR8/Endpoint_AVR8.h ****   this software.
  29:lib/lufa/LUFA/Drivers/USB/Core/AVR8/../AVR8/Endpoint_AVR8.h **** */
  30:lib/lufa/LUFA/Drivers/USB/Core/AVR8/../AVR8/Endpoint_AVR8.h **** 
  31:lib/lufa/LUFA/Drivers/USB/Core/AVR8/../AVR8/Endpoint_AVR8.h **** /** \file
  32:lib/lufa/LUFA/Drivers/USB/Core/AVR8/../AVR8/Endpoint_AVR8.h ****  *  \brief USB Endpoint definitions for the AVR8 microcontrollers.
  33:lib/lufa/LUFA/Drivers/USB/Core/AVR8/../AVR8/Endpoint_AVR8.h ****  *  \copydetails Group_EndpointManagement_AVR8
  34:lib/lufa/LUFA/Drivers/USB/Core/AVR8/../AVR8/Endpoint_AVR8.h ****  *
  35:lib/lufa/LUFA/Drivers/USB/Core/AVR8/../AVR8/Endpoint_AVR8.h ****  *  \note This file should not be included directly. It is automatically included as needed by the 
  36:lib/lufa/LUFA/Drivers/USB/Core/AVR8/../AVR8/Endpoint_AVR8.h ****  *        dispatch header located in LUFA/Drivers/USB/USB.h.
  37:lib/lufa/LUFA/Drivers/USB/Core/AVR8/../AVR8/Endpoint_AVR8.h ****  */
  38:lib/lufa/LUFA/Drivers/USB/Core/AVR8/../AVR8/Endpoint_AVR8.h **** 
  39:lib/lufa/LUFA/Drivers/USB/Core/AVR8/../AVR8/Endpoint_AVR8.h **** /** \ingroup Group_EndpointRW
  40:lib/lufa/LUFA/Drivers/USB/Core/AVR8/../AVR8/Endpoint_AVR8.h ****  *  \defgroup Group_EndpointRW_AVR8 Endpoint Data Reading and Writing (AVR8)
  41:lib/lufa/LUFA/Drivers/USB/Core/AVR8/../AVR8/Endpoint_AVR8.h ****  *  \brief Endpoint data read/write definitions for the Atmel AVR8 architecture.
  42:lib/lufa/LUFA/Drivers/USB/Core/AVR8/../AVR8/Endpoint_AVR8.h ****  *
  43:lib/lufa/LUFA/Drivers/USB/Core/AVR8/../AVR8/Endpoint_AVR8.h ****  *  Functions, macros, variables, enums and types related to data reading and writing from and to e
  44:lib/lufa/LUFA/Drivers/USB/Core/AVR8/../AVR8/Endpoint_AVR8.h ****  */
  45:lib/lufa/LUFA/Drivers/USB/Core/AVR8/../AVR8/Endpoint_AVR8.h **** 
  46:lib/lufa/LUFA/Drivers/USB/Core/AVR8/../AVR8/Endpoint_AVR8.h **** /** \ingroup Group_EndpointPrimitiveRW
  47:lib/lufa/LUFA/Drivers/USB/Core/AVR8/../AVR8/Endpoint_AVR8.h ****  *  \defgroup Group_EndpointPrimitiveRW_AVR8 Read/Write of Primitive Data Types (AVR8)
  48:lib/lufa/LUFA/Drivers/USB/Core/AVR8/../AVR8/Endpoint_AVR8.h ****  *  \brief Endpoint primitive read/write definitions for the Atmel AVR8 architecture.
  49:lib/lufa/LUFA/Drivers/USB/Core/AVR8/../AVR8/Endpoint_AVR8.h ****  *
  50:lib/lufa/LUFA/Drivers/USB/Core/AVR8/../AVR8/Endpoint_AVR8.h ****  *  Functions, macros, variables, enums and types related to data reading and writing of primitive 
  51:lib/lufa/LUFA/Drivers/USB/Core/AVR8/../AVR8/Endpoint_AVR8.h ****  *  from and to endpoints.
  52:lib/lufa/LUFA/Drivers/USB/Core/AVR8/../AVR8/Endpoint_AVR8.h ****  */
  53:lib/lufa/LUFA/Drivers/USB/Core/AVR8/../AVR8/Endpoint_AVR8.h **** 
  54:lib/lufa/LUFA/Drivers/USB/Core/AVR8/../AVR8/Endpoint_AVR8.h **** /** \ingroup Group_EndpointPacketManagement
  55:lib/lufa/LUFA/Drivers/USB/Core/AVR8/../AVR8/Endpoint_AVR8.h ****  *  \defgroup Group_EndpointPacketManagement_AVR8 Endpoint Packet Management (AVR8)
  56:lib/lufa/LUFA/Drivers/USB/Core/AVR8/../AVR8/Endpoint_AVR8.h ****  *  \brief Endpoint packet management definitions for the Atmel AVR8 architecture.
  57:lib/lufa/LUFA/Drivers/USB/Core/AVR8/../AVR8/Endpoint_AVR8.h ****  *
  58:lib/lufa/LUFA/Drivers/USB/Core/AVR8/../AVR8/Endpoint_AVR8.h ****  *  Functions, macros, variables, enums and types related to packet management of endpoints.
  59:lib/lufa/LUFA/Drivers/USB/Core/AVR8/../AVR8/Endpoint_AVR8.h ****  */
  60:lib/lufa/LUFA/Drivers/USB/Core/AVR8/../AVR8/Endpoint_AVR8.h **** 
  61:lib/lufa/LUFA/Drivers/USB/Core/AVR8/../AVR8/Endpoint_AVR8.h **** /** \ingroup Group_EndpointManagement
  62:lib/lufa/LUFA/Drivers/USB/Core/AVR8/../AVR8/Endpoint_AVR8.h ****  *  \defgroup Group_EndpointManagement_AVR8 Endpoint Management (AVR8)
  63:lib/lufa/LUFA/Drivers/USB/Core/AVR8/../AVR8/Endpoint_AVR8.h ****  *  \brief Endpoint management definitions for the Atmel AVR8 architecture.
  64:lib/lufa/LUFA/Drivers/USB/Core/AVR8/../AVR8/Endpoint_AVR8.h ****  *
  65:lib/lufa/LUFA/Drivers/USB/Core/AVR8/../AVR8/Endpoint_AVR8.h ****  *  Functions, macros and enums related to endpoint management when in USB Device mode. This
  66:lib/lufa/LUFA/Drivers/USB/Core/AVR8/../AVR8/Endpoint_AVR8.h ****  *  module contains the endpoint management macros, as well as endpoint interrupt and data
  67:lib/lufa/LUFA/Drivers/USB/Core/AVR8/../AVR8/Endpoint_AVR8.h ****  *  send/receive functions for various data types.
  68:lib/lufa/LUFA/Drivers/USB/Core/AVR8/../AVR8/Endpoint_AVR8.h ****  *
  69:lib/lufa/LUFA/Drivers/USB/Core/AVR8/../AVR8/Endpoint_AVR8.h ****  *  @{
  70:lib/lufa/LUFA/Drivers/USB/Core/AVR8/../AVR8/Endpoint_AVR8.h ****  */
  71:lib/lufa/LUFA/Drivers/USB/Core/AVR8/../AVR8/Endpoint_AVR8.h **** 
  72:lib/lufa/LUFA/Drivers/USB/Core/AVR8/../AVR8/Endpoint_AVR8.h **** #ifndef __ENDPOINT_AVR8_H__
  73:lib/lufa/LUFA/Drivers/USB/Core/AVR8/../AVR8/Endpoint_AVR8.h **** #define __ENDPOINT_AVR8_H__
  74:lib/lufa/LUFA/Drivers/USB/Core/AVR8/../AVR8/Endpoint_AVR8.h **** 
  75:lib/lufa/LUFA/Drivers/USB/Core/AVR8/../AVR8/Endpoint_AVR8.h **** 	/* Includes: */
  76:lib/lufa/LUFA/Drivers/USB/Core/AVR8/../AVR8/Endpoint_AVR8.h **** 		#include "../../../../Common/Common.h"
  77:lib/lufa/LUFA/Drivers/USB/Core/AVR8/../AVR8/Endpoint_AVR8.h **** 		#include "../USBTask.h"
  78:lib/lufa/LUFA/Drivers/USB/Core/AVR8/../AVR8/Endpoint_AVR8.h **** 		#include "../USBInterrupt.h"
  79:lib/lufa/LUFA/Drivers/USB/Core/AVR8/../AVR8/Endpoint_AVR8.h **** 
  80:lib/lufa/LUFA/Drivers/USB/Core/AVR8/../AVR8/Endpoint_AVR8.h **** 	/* Enable C linkage for C++ Compilers: */
  81:lib/lufa/LUFA/Drivers/USB/Core/AVR8/../AVR8/Endpoint_AVR8.h **** 		#if defined(__cplusplus)
  82:lib/lufa/LUFA/Drivers/USB/Core/AVR8/../AVR8/Endpoint_AVR8.h **** 			extern "C" {
  83:lib/lufa/LUFA/Drivers/USB/Core/AVR8/../AVR8/Endpoint_AVR8.h **** 		#endif
  84:lib/lufa/LUFA/Drivers/USB/Core/AVR8/../AVR8/Endpoint_AVR8.h **** 
  85:lib/lufa/LUFA/Drivers/USB/Core/AVR8/../AVR8/Endpoint_AVR8.h **** 	/* Preprocessor Checks: */
  86:lib/lufa/LUFA/Drivers/USB/Core/AVR8/../AVR8/Endpoint_AVR8.h **** 		#if !defined(__INCLUDE_FROM_USB_DRIVER)
  87:lib/lufa/LUFA/Drivers/USB/Core/AVR8/../AVR8/Endpoint_AVR8.h **** 			#error Do not include this file directly. Include LUFA/Drivers/USB/USB.h instead.
  88:lib/lufa/LUFA/Drivers/USB/Core/AVR8/../AVR8/Endpoint_AVR8.h **** 		#endif
  89:lib/lufa/LUFA/Drivers/USB/Core/AVR8/../AVR8/Endpoint_AVR8.h **** 
  90:lib/lufa/LUFA/Drivers/USB/Core/AVR8/../AVR8/Endpoint_AVR8.h **** 	/* Private Interface - For use in library only: */
  91:lib/lufa/LUFA/Drivers/USB/Core/AVR8/../AVR8/Endpoint_AVR8.h **** 	#if !defined(__DOXYGEN__)
  92:lib/lufa/LUFA/Drivers/USB/Core/AVR8/../AVR8/Endpoint_AVR8.h **** 		/* Inline Functions: */
  93:lib/lufa/LUFA/Drivers/USB/Core/AVR8/../AVR8/Endpoint_AVR8.h **** 			static inline uint8_t Endpoint_BytesToEPSizeMask(const uint16_t Bytes) ATTR_WARN_UNUSED_RESULT A
  94:lib/lufa/LUFA/Drivers/USB/Core/AVR8/../AVR8/Endpoint_AVR8.h **** 			                                                                       ATTR_ALWAYS_INLINE;
  95:lib/lufa/LUFA/Drivers/USB/Core/AVR8/../AVR8/Endpoint_AVR8.h **** 			static inline uint8_t Endpoint_BytesToEPSizeMask(const uint16_t Bytes)
  96:lib/lufa/LUFA/Drivers/USB/Core/AVR8/../AVR8/Endpoint_AVR8.h **** 			{
  97:lib/lufa/LUFA/Drivers/USB/Core/AVR8/../AVR8/Endpoint_AVR8.h **** 				uint8_t  MaskVal    = 0;
  98:lib/lufa/LUFA/Drivers/USB/Core/AVR8/../AVR8/Endpoint_AVR8.h **** 				uint16_t CheckBytes = 8;
  99:lib/lufa/LUFA/Drivers/USB/Core/AVR8/../AVR8/Endpoint_AVR8.h **** 
 100:lib/lufa/LUFA/Drivers/USB/Core/AVR8/../AVR8/Endpoint_AVR8.h **** 				while (CheckBytes < Bytes)
 101:lib/lufa/LUFA/Drivers/USB/Core/AVR8/../AVR8/Endpoint_AVR8.h **** 				{
 102:lib/lufa/LUFA/Drivers/USB/Core/AVR8/../AVR8/Endpoint_AVR8.h **** 					MaskVal++;
 103:lib/lufa/LUFA/Drivers/USB/Core/AVR8/../AVR8/Endpoint_AVR8.h **** 					CheckBytes <<= 1;
 104:lib/lufa/LUFA/Drivers/USB/Core/AVR8/../AVR8/Endpoint_AVR8.h **** 				}
 105:lib/lufa/LUFA/Drivers/USB/Core/AVR8/../AVR8/Endpoint_AVR8.h **** 
 106:lib/lufa/LUFA/Drivers/USB/Core/AVR8/../AVR8/Endpoint_AVR8.h **** 				return (MaskVal << EPSIZE0);
 107:lib/lufa/LUFA/Drivers/USB/Core/AVR8/../AVR8/Endpoint_AVR8.h **** 			}
 108:lib/lufa/LUFA/Drivers/USB/Core/AVR8/../AVR8/Endpoint_AVR8.h **** 
 109:lib/lufa/LUFA/Drivers/USB/Core/AVR8/../AVR8/Endpoint_AVR8.h **** 		/* Function Prototypes: */
 110:lib/lufa/LUFA/Drivers/USB/Core/AVR8/../AVR8/Endpoint_AVR8.h **** 			void Endpoint_ClearEndpoints(void);
 111:lib/lufa/LUFA/Drivers/USB/Core/AVR8/../AVR8/Endpoint_AVR8.h **** 			bool Endpoint_ConfigureEndpoint_Prv(const uint8_t Number,
 112:lib/lufa/LUFA/Drivers/USB/Core/AVR8/../AVR8/Endpoint_AVR8.h **** 			                                    const uint8_t UECFG0XData,
 113:lib/lufa/LUFA/Drivers/USB/Core/AVR8/../AVR8/Endpoint_AVR8.h **** 			                                    const uint8_t UECFG1XData);
 114:lib/lufa/LUFA/Drivers/USB/Core/AVR8/../AVR8/Endpoint_AVR8.h **** 
 115:lib/lufa/LUFA/Drivers/USB/Core/AVR8/../AVR8/Endpoint_AVR8.h **** 	#endif
 116:lib/lufa/LUFA/Drivers/USB/Core/AVR8/../AVR8/Endpoint_AVR8.h **** 
 117:lib/lufa/LUFA/Drivers/USB/Core/AVR8/../AVR8/Endpoint_AVR8.h **** 	/* Public Interface - May be used in end-application: */
 118:lib/lufa/LUFA/Drivers/USB/Core/AVR8/../AVR8/Endpoint_AVR8.h **** 		/* Macros: */
 119:lib/lufa/LUFA/Drivers/USB/Core/AVR8/../AVR8/Endpoint_AVR8.h **** 			#if (!defined(FIXED_CONTROL_ENDPOINT_SIZE) || defined(__DOXYGEN__))
 120:lib/lufa/LUFA/Drivers/USB/Core/AVR8/../AVR8/Endpoint_AVR8.h **** 				/** Default size of the default control endpoint's bank, until altered by the control endpoint 
 121:lib/lufa/LUFA/Drivers/USB/Core/AVR8/../AVR8/Endpoint_AVR8.h **** 				 *  value in the device descriptor. Not available if the \c FIXED_CONTROL_ENDPOINT_SIZE token i
 122:lib/lufa/LUFA/Drivers/USB/Core/AVR8/../AVR8/Endpoint_AVR8.h **** 				 */
 123:lib/lufa/LUFA/Drivers/USB/Core/AVR8/../AVR8/Endpoint_AVR8.h **** 				#define ENDPOINT_CONTROLEP_DEFAULT_SIZE     8
 124:lib/lufa/LUFA/Drivers/USB/Core/AVR8/../AVR8/Endpoint_AVR8.h **** 			#endif
 125:lib/lufa/LUFA/Drivers/USB/Core/AVR8/../AVR8/Endpoint_AVR8.h **** 
 126:lib/lufa/LUFA/Drivers/USB/Core/AVR8/../AVR8/Endpoint_AVR8.h **** 			#if !defined(CONTROL_ONLY_DEVICE) || defined(__DOXYGEN__)
 127:lib/lufa/LUFA/Drivers/USB/Core/AVR8/../AVR8/Endpoint_AVR8.h **** 				#if defined(USB_SERIES_4_AVR) || defined(USB_SERIES_6_AVR) || defined(USB_SERIES_7_AVR) || defi
 128:lib/lufa/LUFA/Drivers/USB/Core/AVR8/../AVR8/Endpoint_AVR8.h **** 					/** Total number of endpoints (including the default control endpoint at address 0) which may
 129:lib/lufa/LUFA/Drivers/USB/Core/AVR8/../AVR8/Endpoint_AVR8.h **** 					 *  be used in the device. Different USB AVR models support different amounts of endpoints,
 130:lib/lufa/LUFA/Drivers/USB/Core/AVR8/../AVR8/Endpoint_AVR8.h **** 					 *  this value reflects the maximum number of endpoints for the currently selected AVR model.
 131:lib/lufa/LUFA/Drivers/USB/Core/AVR8/../AVR8/Endpoint_AVR8.h **** 					 */
 132:lib/lufa/LUFA/Drivers/USB/Core/AVR8/../AVR8/Endpoint_AVR8.h **** 					#define ENDPOINT_TOTAL_ENDPOINTS        7
 133:lib/lufa/LUFA/Drivers/USB/Core/AVR8/../AVR8/Endpoint_AVR8.h **** 				#else
 134:lib/lufa/LUFA/Drivers/USB/Core/AVR8/../AVR8/Endpoint_AVR8.h **** 					#define ENDPOINT_TOTAL_ENDPOINTS        5
 135:lib/lufa/LUFA/Drivers/USB/Core/AVR8/../AVR8/Endpoint_AVR8.h **** 				#endif
 136:lib/lufa/LUFA/Drivers/USB/Core/AVR8/../AVR8/Endpoint_AVR8.h **** 			#else
 137:lib/lufa/LUFA/Drivers/USB/Core/AVR8/../AVR8/Endpoint_AVR8.h **** 				#define ENDPOINT_TOTAL_ENDPOINTS            1
 138:lib/lufa/LUFA/Drivers/USB/Core/AVR8/../AVR8/Endpoint_AVR8.h **** 			#endif
 139:lib/lufa/LUFA/Drivers/USB/Core/AVR8/../AVR8/Endpoint_AVR8.h **** 
 140:lib/lufa/LUFA/Drivers/USB/Core/AVR8/../AVR8/Endpoint_AVR8.h **** 		/* Enums: */
 141:lib/lufa/LUFA/Drivers/USB/Core/AVR8/../AVR8/Endpoint_AVR8.h **** 			/** Enum for the possible error return codes of the \ref Endpoint_WaitUntilReady() function.
 142:lib/lufa/LUFA/Drivers/USB/Core/AVR8/../AVR8/Endpoint_AVR8.h **** 			 *
 143:lib/lufa/LUFA/Drivers/USB/Core/AVR8/../AVR8/Endpoint_AVR8.h **** 			 *  \ingroup Group_EndpointRW_AVR8
 144:lib/lufa/LUFA/Drivers/USB/Core/AVR8/../AVR8/Endpoint_AVR8.h **** 			 */
 145:lib/lufa/LUFA/Drivers/USB/Core/AVR8/../AVR8/Endpoint_AVR8.h **** 			enum Endpoint_WaitUntilReady_ErrorCodes_t
 146:lib/lufa/LUFA/Drivers/USB/Core/AVR8/../AVR8/Endpoint_AVR8.h **** 			{
 147:lib/lufa/LUFA/Drivers/USB/Core/AVR8/../AVR8/Endpoint_AVR8.h **** 				ENDPOINT_READYWAIT_NoError                 = 0, /**< Endpoint is ready for next packet, no erro
 148:lib/lufa/LUFA/Drivers/USB/Core/AVR8/../AVR8/Endpoint_AVR8.h **** 				ENDPOINT_READYWAIT_EndpointStalled         = 1, /**< The endpoint was stalled during the stream
 149:lib/lufa/LUFA/Drivers/USB/Core/AVR8/../AVR8/Endpoint_AVR8.h **** 				                                                 *   transfer by the host or device.
 150:lib/lufa/LUFA/Drivers/USB/Core/AVR8/../AVR8/Endpoint_AVR8.h **** 				                                                 */
 151:lib/lufa/LUFA/Drivers/USB/Core/AVR8/../AVR8/Endpoint_AVR8.h **** 				ENDPOINT_READYWAIT_DeviceDisconnected      = 2,	/**< Device was disconnected from the host whil
 152:lib/lufa/LUFA/Drivers/USB/Core/AVR8/../AVR8/Endpoint_AVR8.h **** 				                                                 *   waiting for the endpoint to become ready.
 153:lib/lufa/LUFA/Drivers/USB/Core/AVR8/../AVR8/Endpoint_AVR8.h **** 				                                                 */
 154:lib/lufa/LUFA/Drivers/USB/Core/AVR8/../AVR8/Endpoint_AVR8.h **** 				ENDPOINT_READYWAIT_BusSuspended            = 3, /**< The USB bus has been suspended by the host
 155:lib/lufa/LUFA/Drivers/USB/Core/AVR8/../AVR8/Endpoint_AVR8.h **** 				                                                 *   no USB endpoint traffic can occur until th
 156:lib/lufa/LUFA/Drivers/USB/Core/AVR8/../AVR8/Endpoint_AVR8.h **** 				                                                 *   has resumed.
 157:lib/lufa/LUFA/Drivers/USB/Core/AVR8/../AVR8/Endpoint_AVR8.h **** 				                                                 */
 158:lib/lufa/LUFA/Drivers/USB/Core/AVR8/../AVR8/Endpoint_AVR8.h **** 				ENDPOINT_READYWAIT_Timeout                 = 4, /**< The host failed to accept or send the next
 159:lib/lufa/LUFA/Drivers/USB/Core/AVR8/../AVR8/Endpoint_AVR8.h **** 				                                                 *   within the software timeout period set by 
 160:lib/lufa/LUFA/Drivers/USB/Core/AVR8/../AVR8/Endpoint_AVR8.h **** 				                                                 *   \ref USB_STREAM_TIMEOUT_MS macro.
 161:lib/lufa/LUFA/Drivers/USB/Core/AVR8/../AVR8/Endpoint_AVR8.h **** 				                                                 */
 162:lib/lufa/LUFA/Drivers/USB/Core/AVR8/../AVR8/Endpoint_AVR8.h **** 			};
 163:lib/lufa/LUFA/Drivers/USB/Core/AVR8/../AVR8/Endpoint_AVR8.h **** 
 164:lib/lufa/LUFA/Drivers/USB/Core/AVR8/../AVR8/Endpoint_AVR8.h **** 		/* Inline Functions: */
 165:lib/lufa/LUFA/Drivers/USB/Core/AVR8/../AVR8/Endpoint_AVR8.h **** 			/** Configures the specified endpoint address with the given endpoint type, bank size and number
 166:lib/lufa/LUFA/Drivers/USB/Core/AVR8/../AVR8/Endpoint_AVR8.h **** 			 *  banks. Once configured, the endpoint may be read from or written to, depending on its direct
 167:lib/lufa/LUFA/Drivers/USB/Core/AVR8/../AVR8/Endpoint_AVR8.h **** 			 *
 168:lib/lufa/LUFA/Drivers/USB/Core/AVR8/../AVR8/Endpoint_AVR8.h **** 			 *  \param[in] Address    Endpoint address to configure.
 169:lib/lufa/LUFA/Drivers/USB/Core/AVR8/../AVR8/Endpoint_AVR8.h **** 			 *
 170:lib/lufa/LUFA/Drivers/USB/Core/AVR8/../AVR8/Endpoint_AVR8.h **** 			 *  \param[in] Type       Type of endpoint to configure, a \c EP_TYPE_* mask. Not all endpoint t
 171:lib/lufa/LUFA/Drivers/USB/Core/AVR8/../AVR8/Endpoint_AVR8.h **** 			 *                        are available on Low Speed USB devices - refer to the USB 2.0 specific
 172:lib/lufa/LUFA/Drivers/USB/Core/AVR8/../AVR8/Endpoint_AVR8.h **** 			 *
 173:lib/lufa/LUFA/Drivers/USB/Core/AVR8/../AVR8/Endpoint_AVR8.h **** 			 *  \param[in] Size       Size of the endpoint's bank, where packets are stored before they are 
 174:lib/lufa/LUFA/Drivers/USB/Core/AVR8/../AVR8/Endpoint_AVR8.h **** 			 *                        to the USB host, or after they have been received from the USB host (d
 175:lib/lufa/LUFA/Drivers/USB/Core/AVR8/../AVR8/Endpoint_AVR8.h **** 			 *                        the endpoint's data direction). The bank size must indicate the maximu
 176:lib/lufa/LUFA/Drivers/USB/Core/AVR8/../AVR8/Endpoint_AVR8.h **** 			 *                        that the endpoint can handle.
 177:lib/lufa/LUFA/Drivers/USB/Core/AVR8/../AVR8/Endpoint_AVR8.h **** 			 *
 178:lib/lufa/LUFA/Drivers/USB/Core/AVR8/../AVR8/Endpoint_AVR8.h **** 			 *  \param[in] Banks      Number of banks to use for the endpoint being configured.
 179:lib/lufa/LUFA/Drivers/USB/Core/AVR8/../AVR8/Endpoint_AVR8.h **** 			 *
 180:lib/lufa/LUFA/Drivers/USB/Core/AVR8/../AVR8/Endpoint_AVR8.h **** 			 *  \attention When the \c ORDERED_EP_CONFIG compile time option is used, Endpoints <b>must</b> 
 181:lib/lufa/LUFA/Drivers/USB/Core/AVR8/../AVR8/Endpoint_AVR8.h **** 			 *             ascending order, or bank corruption will occur.
 182:lib/lufa/LUFA/Drivers/USB/Core/AVR8/../AVR8/Endpoint_AVR8.h **** 			 *
 183:lib/lufa/LUFA/Drivers/USB/Core/AVR8/../AVR8/Endpoint_AVR8.h **** 			 *  \note Different endpoints may have different maximum packet sizes based on the endpoint's in
 184:lib/lufa/LUFA/Drivers/USB/Core/AVR8/../AVR8/Endpoint_AVR8.h **** 			 *        refer to the chosen microcontroller model's datasheet to determine the maximum bank si
 185:lib/lufa/LUFA/Drivers/USB/Core/AVR8/../AVR8/Endpoint_AVR8.h **** 			 *        \n\n
 186:lib/lufa/LUFA/Drivers/USB/Core/AVR8/../AVR8/Endpoint_AVR8.h **** 			 *
 187:lib/lufa/LUFA/Drivers/USB/Core/AVR8/../AVR8/Endpoint_AVR8.h **** 			 *  \note The default control endpoint should not be manually configured by the user application
 188:lib/lufa/LUFA/Drivers/USB/Core/AVR8/../AVR8/Endpoint_AVR8.h **** 			 *        it is automatically configured by the library internally.
 189:lib/lufa/LUFA/Drivers/USB/Core/AVR8/../AVR8/Endpoint_AVR8.h **** 			 *        \n\n
 190:lib/lufa/LUFA/Drivers/USB/Core/AVR8/../AVR8/Endpoint_AVR8.h **** 			 *
 191:lib/lufa/LUFA/Drivers/USB/Core/AVR8/../AVR8/Endpoint_AVR8.h **** 			 *  \note This routine will automatically select the specified endpoint upon success. Upon failu
 192:lib/lufa/LUFA/Drivers/USB/Core/AVR8/../AVR8/Endpoint_AVR8.h **** 			 *        which failed to reconfigure correctly will be selected.
 193:lib/lufa/LUFA/Drivers/USB/Core/AVR8/../AVR8/Endpoint_AVR8.h **** 			 *
 194:lib/lufa/LUFA/Drivers/USB/Core/AVR8/../AVR8/Endpoint_AVR8.h **** 			 *  \return Boolean \c true if the configuration succeeded, \c false otherwise.
 195:lib/lufa/LUFA/Drivers/USB/Core/AVR8/../AVR8/Endpoint_AVR8.h **** 			 */
 196:lib/lufa/LUFA/Drivers/USB/Core/AVR8/../AVR8/Endpoint_AVR8.h **** 			static inline bool Endpoint_ConfigureEndpoint(const uint8_t Address,
 197:lib/lufa/LUFA/Drivers/USB/Core/AVR8/../AVR8/Endpoint_AVR8.h **** 			                                              const uint8_t Type,
 198:lib/lufa/LUFA/Drivers/USB/Core/AVR8/../AVR8/Endpoint_AVR8.h **** 			                                              const uint16_t Size,
 199:lib/lufa/LUFA/Drivers/USB/Core/AVR8/../AVR8/Endpoint_AVR8.h **** 			                                              const uint8_t Banks) ATTR_ALWAYS_INLINE;
 200:lib/lufa/LUFA/Drivers/USB/Core/AVR8/../AVR8/Endpoint_AVR8.h **** 			static inline bool Endpoint_ConfigureEndpoint(const uint8_t Address,
 201:lib/lufa/LUFA/Drivers/USB/Core/AVR8/../AVR8/Endpoint_AVR8.h **** 			                                              const uint8_t Type,
 202:lib/lufa/LUFA/Drivers/USB/Core/AVR8/../AVR8/Endpoint_AVR8.h **** 			                                              const uint16_t Size,
 203:lib/lufa/LUFA/Drivers/USB/Core/AVR8/../AVR8/Endpoint_AVR8.h **** 			                                              const uint8_t Banks)
 204:lib/lufa/LUFA/Drivers/USB/Core/AVR8/../AVR8/Endpoint_AVR8.h **** 			{
 205:lib/lufa/LUFA/Drivers/USB/Core/AVR8/../AVR8/Endpoint_AVR8.h **** 				uint8_t Number = (Address & ENDPOINT_EPNUM_MASK);
 206:lib/lufa/LUFA/Drivers/USB/Core/AVR8/../AVR8/Endpoint_AVR8.h **** 
 207:lib/lufa/LUFA/Drivers/USB/Core/AVR8/../AVR8/Endpoint_AVR8.h **** 				if (Number >= ENDPOINT_TOTAL_ENDPOINTS)
 208:lib/lufa/LUFA/Drivers/USB/Core/AVR8/../AVR8/Endpoint_AVR8.h **** 				  return false;
 209:lib/lufa/LUFA/Drivers/USB/Core/AVR8/../AVR8/Endpoint_AVR8.h **** 
 210:lib/lufa/LUFA/Drivers/USB/Core/AVR8/../AVR8/Endpoint_AVR8.h **** 				return Endpoint_ConfigureEndpoint_Prv(Number,
 211:lib/lufa/LUFA/Drivers/USB/Core/AVR8/../AVR8/Endpoint_AVR8.h **** 				                                      ((Type << EPTYPE0) | ((Address & ENDPOINT_DIR_IN) ? (1 <<
 212:lib/lufa/LUFA/Drivers/USB/Core/AVR8/../AVR8/Endpoint_AVR8.h **** 				                                      ((1 << ALLOC) | ((Banks > 1) ? (1 << EPBK0) : 0) | Endpoi
 213:lib/lufa/LUFA/Drivers/USB/Core/AVR8/../AVR8/Endpoint_AVR8.h **** 			}
 214:lib/lufa/LUFA/Drivers/USB/Core/AVR8/../AVR8/Endpoint_AVR8.h **** 
 215:lib/lufa/LUFA/Drivers/USB/Core/AVR8/../AVR8/Endpoint_AVR8.h **** 			/** Indicates the number of bytes currently stored in the current endpoint's selected bank.
 216:lib/lufa/LUFA/Drivers/USB/Core/AVR8/../AVR8/Endpoint_AVR8.h **** 			 *
 217:lib/lufa/LUFA/Drivers/USB/Core/AVR8/../AVR8/Endpoint_AVR8.h **** 			 *  \ingroup Group_EndpointRW_AVR8
 218:lib/lufa/LUFA/Drivers/USB/Core/AVR8/../AVR8/Endpoint_AVR8.h **** 			 *
 219:lib/lufa/LUFA/Drivers/USB/Core/AVR8/../AVR8/Endpoint_AVR8.h **** 			 *  \return Total number of bytes in the currently selected Endpoint's FIFO buffer.
 220:lib/lufa/LUFA/Drivers/USB/Core/AVR8/../AVR8/Endpoint_AVR8.h **** 			 */
 221:lib/lufa/LUFA/Drivers/USB/Core/AVR8/../AVR8/Endpoint_AVR8.h **** 			static inline uint16_t Endpoint_BytesInEndpoint(void) ATTR_WARN_UNUSED_RESULT ATTR_ALWAYS_INLINE
 222:lib/lufa/LUFA/Drivers/USB/Core/AVR8/../AVR8/Endpoint_AVR8.h **** 			static inline uint16_t Endpoint_BytesInEndpoint(void)
 223:lib/lufa/LUFA/Drivers/USB/Core/AVR8/../AVR8/Endpoint_AVR8.h **** 			{
 224:lib/lufa/LUFA/Drivers/USB/Core/AVR8/../AVR8/Endpoint_AVR8.h **** 				#if (defined(USB_SERIES_6_AVR) || defined(USB_SERIES_7_AVR))
 225:lib/lufa/LUFA/Drivers/USB/Core/AVR8/../AVR8/Endpoint_AVR8.h **** 					return UEBCX;
 226:lib/lufa/LUFA/Drivers/USB/Core/AVR8/../AVR8/Endpoint_AVR8.h **** 				#elif defined(USB_SERIES_4_AVR)
 227:lib/lufa/LUFA/Drivers/USB/Core/AVR8/../AVR8/Endpoint_AVR8.h **** 					return (((uint16_t)UEBCHX << 8) | UEBCLX);
 228:lib/lufa/LUFA/Drivers/USB/Core/AVR8/../AVR8/Endpoint_AVR8.h **** 				#elif defined(USB_SERIES_2_AVR)
 229:lib/lufa/LUFA/Drivers/USB/Core/AVR8/../AVR8/Endpoint_AVR8.h **** 					return UEBCLX;
 230:lib/lufa/LUFA/Drivers/USB/Core/AVR8/../AVR8/Endpoint_AVR8.h **** 				#endif
 231:lib/lufa/LUFA/Drivers/USB/Core/AVR8/../AVR8/Endpoint_AVR8.h **** 			}
 232:lib/lufa/LUFA/Drivers/USB/Core/AVR8/../AVR8/Endpoint_AVR8.h **** 
 233:lib/lufa/LUFA/Drivers/USB/Core/AVR8/../AVR8/Endpoint_AVR8.h **** 			/** Determines the currently selected endpoint's direction.
 234:lib/lufa/LUFA/Drivers/USB/Core/AVR8/../AVR8/Endpoint_AVR8.h **** 			 *
 235:lib/lufa/LUFA/Drivers/USB/Core/AVR8/../AVR8/Endpoint_AVR8.h **** 			 *  \return The currently selected endpoint's direction, as a \c ENDPOINT_DIR_* mask.
 236:lib/lufa/LUFA/Drivers/USB/Core/AVR8/../AVR8/Endpoint_AVR8.h **** 			 */
 237:lib/lufa/LUFA/Drivers/USB/Core/AVR8/../AVR8/Endpoint_AVR8.h **** 			static inline uint8_t Endpoint_GetEndpointDirection(void) ATTR_WARN_UNUSED_RESULT ATTR_ALWAYS_IN
 238:lib/lufa/LUFA/Drivers/USB/Core/AVR8/../AVR8/Endpoint_AVR8.h **** 			static inline uint8_t Endpoint_GetEndpointDirection(void)
 239:lib/lufa/LUFA/Drivers/USB/Core/AVR8/../AVR8/Endpoint_AVR8.h **** 			{
 240:lib/lufa/LUFA/Drivers/USB/Core/AVR8/../AVR8/Endpoint_AVR8.h **** 				return (UECFG0X & (1 << EPDIR)) ? ENDPOINT_DIR_IN : ENDPOINT_DIR_OUT;
 241:lib/lufa/LUFA/Drivers/USB/Core/AVR8/../AVR8/Endpoint_AVR8.h **** 			}
 242:lib/lufa/LUFA/Drivers/USB/Core/AVR8/../AVR8/Endpoint_AVR8.h **** 
 243:lib/lufa/LUFA/Drivers/USB/Core/AVR8/../AVR8/Endpoint_AVR8.h **** 			/** Get the endpoint address of the currently selected endpoint. This is typically used to save
 244:lib/lufa/LUFA/Drivers/USB/Core/AVR8/../AVR8/Endpoint_AVR8.h **** 			 *  the currently selected endpoint so that it can be restored after another endpoint has been
 245:lib/lufa/LUFA/Drivers/USB/Core/AVR8/../AVR8/Endpoint_AVR8.h **** 			 *  manipulated.
 246:lib/lufa/LUFA/Drivers/USB/Core/AVR8/../AVR8/Endpoint_AVR8.h **** 			 *
 247:lib/lufa/LUFA/Drivers/USB/Core/AVR8/../AVR8/Endpoint_AVR8.h **** 			 *  \return Index of the currently selected endpoint.
 248:lib/lufa/LUFA/Drivers/USB/Core/AVR8/../AVR8/Endpoint_AVR8.h **** 			 */
 249:lib/lufa/LUFA/Drivers/USB/Core/AVR8/../AVR8/Endpoint_AVR8.h **** 			static inline uint8_t Endpoint_GetCurrentEndpoint(void) ATTR_WARN_UNUSED_RESULT ATTR_ALWAYS_INLI
 250:lib/lufa/LUFA/Drivers/USB/Core/AVR8/../AVR8/Endpoint_AVR8.h **** 			static inline uint8_t Endpoint_GetCurrentEndpoint(void)
 251:lib/lufa/LUFA/Drivers/USB/Core/AVR8/../AVR8/Endpoint_AVR8.h **** 			{
 252:lib/lufa/LUFA/Drivers/USB/Core/AVR8/../AVR8/Endpoint_AVR8.h **** 				#if !defined(CONTROL_ONLY_DEVICE)
 253:lib/lufa/LUFA/Drivers/USB/Core/AVR8/../AVR8/Endpoint_AVR8.h **** 					return ((UENUM & ENDPOINT_EPNUM_MASK) | Endpoint_GetEndpointDirection());
 254:lib/lufa/LUFA/Drivers/USB/Core/AVR8/../AVR8/Endpoint_AVR8.h **** 				#else
 255:lib/lufa/LUFA/Drivers/USB/Core/AVR8/../AVR8/Endpoint_AVR8.h **** 					return ENDPOINT_CONTROLEP;
 256:lib/lufa/LUFA/Drivers/USB/Core/AVR8/../AVR8/Endpoint_AVR8.h **** 				#endif
 257:lib/lufa/LUFA/Drivers/USB/Core/AVR8/../AVR8/Endpoint_AVR8.h **** 			}
 258:lib/lufa/LUFA/Drivers/USB/Core/AVR8/../AVR8/Endpoint_AVR8.h **** 
 259:lib/lufa/LUFA/Drivers/USB/Core/AVR8/../AVR8/Endpoint_AVR8.h **** 			/** Selects the given endpoint address.
 260:lib/lufa/LUFA/Drivers/USB/Core/AVR8/../AVR8/Endpoint_AVR8.h **** 			 *
 261:lib/lufa/LUFA/Drivers/USB/Core/AVR8/../AVR8/Endpoint_AVR8.h **** 			 *  Any endpoint operations which do not require the endpoint address to be indicated will opera
 262:lib/lufa/LUFA/Drivers/USB/Core/AVR8/../AVR8/Endpoint_AVR8.h **** 			 *  the currently selected endpoint.
 263:lib/lufa/LUFA/Drivers/USB/Core/AVR8/../AVR8/Endpoint_AVR8.h **** 			 *
 264:lib/lufa/LUFA/Drivers/USB/Core/AVR8/../AVR8/Endpoint_AVR8.h **** 			 *  \param[in] Address Endpoint address to select.
 265:lib/lufa/LUFA/Drivers/USB/Core/AVR8/../AVR8/Endpoint_AVR8.h **** 			 */
 266:lib/lufa/LUFA/Drivers/USB/Core/AVR8/../AVR8/Endpoint_AVR8.h **** 			static inline void Endpoint_SelectEndpoint(const uint8_t Address) ATTR_ALWAYS_INLINE;
 267:lib/lufa/LUFA/Drivers/USB/Core/AVR8/../AVR8/Endpoint_AVR8.h **** 			static inline void Endpoint_SelectEndpoint(const uint8_t Address)
 268:lib/lufa/LUFA/Drivers/USB/Core/AVR8/../AVR8/Endpoint_AVR8.h **** 			{
 269:lib/lufa/LUFA/Drivers/USB/Core/AVR8/../AVR8/Endpoint_AVR8.h **** 				#if !defined(CONTROL_ONLY_DEVICE)
 270:lib/lufa/LUFA/Drivers/USB/Core/AVR8/../AVR8/Endpoint_AVR8.h **** 					UENUM = (Address & ENDPOINT_EPNUM_MASK);
 271:lib/lufa/LUFA/Drivers/USB/Core/AVR8/../AVR8/Endpoint_AVR8.h **** 				#endif
 272:lib/lufa/LUFA/Drivers/USB/Core/AVR8/../AVR8/Endpoint_AVR8.h **** 			}
 273:lib/lufa/LUFA/Drivers/USB/Core/AVR8/../AVR8/Endpoint_AVR8.h **** 
 274:lib/lufa/LUFA/Drivers/USB/Core/AVR8/../AVR8/Endpoint_AVR8.h **** 			/** Resets the endpoint bank FIFO. This clears all the endpoint banks and resets the USB control
 275:lib/lufa/LUFA/Drivers/USB/Core/AVR8/../AVR8/Endpoint_AVR8.h **** 			 *  data In and Out pointers to the bank's contents.
 276:lib/lufa/LUFA/Drivers/USB/Core/AVR8/../AVR8/Endpoint_AVR8.h **** 			 *
 277:lib/lufa/LUFA/Drivers/USB/Core/AVR8/../AVR8/Endpoint_AVR8.h **** 			 *  \param[in] Address  Endpoint address whose FIFO buffers are to be reset.
 278:lib/lufa/LUFA/Drivers/USB/Core/AVR8/../AVR8/Endpoint_AVR8.h **** 			 */
 279:lib/lufa/LUFA/Drivers/USB/Core/AVR8/../AVR8/Endpoint_AVR8.h **** 			static inline void Endpoint_ResetEndpoint(const uint8_t Address) ATTR_ALWAYS_INLINE;
 280:lib/lufa/LUFA/Drivers/USB/Core/AVR8/../AVR8/Endpoint_AVR8.h **** 			static inline void Endpoint_ResetEndpoint(const uint8_t Address)
 281:lib/lufa/LUFA/Drivers/USB/Core/AVR8/../AVR8/Endpoint_AVR8.h **** 			{
 282:lib/lufa/LUFA/Drivers/USB/Core/AVR8/../AVR8/Endpoint_AVR8.h **** 				UERST = (1 << (Address & ENDPOINT_EPNUM_MASK));
 283:lib/lufa/LUFA/Drivers/USB/Core/AVR8/../AVR8/Endpoint_AVR8.h **** 				UERST = 0;
 284:lib/lufa/LUFA/Drivers/USB/Core/AVR8/../AVR8/Endpoint_AVR8.h **** 			}
 285:lib/lufa/LUFA/Drivers/USB/Core/AVR8/../AVR8/Endpoint_AVR8.h **** 
 286:lib/lufa/LUFA/Drivers/USB/Core/AVR8/../AVR8/Endpoint_AVR8.h **** 			/** Enables the currently selected endpoint so that data can be sent and received through it to
 287:lib/lufa/LUFA/Drivers/USB/Core/AVR8/../AVR8/Endpoint_AVR8.h **** 			 *  and from a host.
 288:lib/lufa/LUFA/Drivers/USB/Core/AVR8/../AVR8/Endpoint_AVR8.h **** 			 *
 289:lib/lufa/LUFA/Drivers/USB/Core/AVR8/../AVR8/Endpoint_AVR8.h **** 			 *  \note Endpoints must first be configured properly via \ref Endpoint_ConfigureEndpoint().
 290:lib/lufa/LUFA/Drivers/USB/Core/AVR8/../AVR8/Endpoint_AVR8.h **** 			 */
 291:lib/lufa/LUFA/Drivers/USB/Core/AVR8/../AVR8/Endpoint_AVR8.h **** 			static inline void Endpoint_EnableEndpoint(void) ATTR_ALWAYS_INLINE;
 292:lib/lufa/LUFA/Drivers/USB/Core/AVR8/../AVR8/Endpoint_AVR8.h **** 			static inline void Endpoint_EnableEndpoint(void)
 293:lib/lufa/LUFA/Drivers/USB/Core/AVR8/../AVR8/Endpoint_AVR8.h **** 			{
 294:lib/lufa/LUFA/Drivers/USB/Core/AVR8/../AVR8/Endpoint_AVR8.h **** 				UECONX |= (1 << EPEN);
 295:lib/lufa/LUFA/Drivers/USB/Core/AVR8/../AVR8/Endpoint_AVR8.h **** 			}
 296:lib/lufa/LUFA/Drivers/USB/Core/AVR8/../AVR8/Endpoint_AVR8.h **** 
 297:lib/lufa/LUFA/Drivers/USB/Core/AVR8/../AVR8/Endpoint_AVR8.h **** 			/** Disables the currently selected endpoint so that data cannot be sent and received through it
 298:lib/lufa/LUFA/Drivers/USB/Core/AVR8/../AVR8/Endpoint_AVR8.h **** 			 *  to and from a host.
 299:lib/lufa/LUFA/Drivers/USB/Core/AVR8/../AVR8/Endpoint_AVR8.h **** 			 */
 300:lib/lufa/LUFA/Drivers/USB/Core/AVR8/../AVR8/Endpoint_AVR8.h **** 			static inline void Endpoint_DisableEndpoint(void) ATTR_ALWAYS_INLINE;
 301:lib/lufa/LUFA/Drivers/USB/Core/AVR8/../AVR8/Endpoint_AVR8.h **** 			static inline void Endpoint_DisableEndpoint(void)
 302:lib/lufa/LUFA/Drivers/USB/Core/AVR8/../AVR8/Endpoint_AVR8.h **** 			{
 303:lib/lufa/LUFA/Drivers/USB/Core/AVR8/../AVR8/Endpoint_AVR8.h **** 				UECONX &= ~(1 << EPEN);
 304:lib/lufa/LUFA/Drivers/USB/Core/AVR8/../AVR8/Endpoint_AVR8.h **** 			}
 305:lib/lufa/LUFA/Drivers/USB/Core/AVR8/../AVR8/Endpoint_AVR8.h **** 
 306:lib/lufa/LUFA/Drivers/USB/Core/AVR8/../AVR8/Endpoint_AVR8.h **** 			/** Determines if the currently selected endpoint is enabled, but not necessarily configured.
 307:lib/lufa/LUFA/Drivers/USB/Core/AVR8/../AVR8/Endpoint_AVR8.h **** 			 *
 308:lib/lufa/LUFA/Drivers/USB/Core/AVR8/../AVR8/Endpoint_AVR8.h **** 			 * \return Boolean \c true if the currently selected endpoint is enabled, \c false otherwise.
 309:lib/lufa/LUFA/Drivers/USB/Core/AVR8/../AVR8/Endpoint_AVR8.h **** 			 */
 310:lib/lufa/LUFA/Drivers/USB/Core/AVR8/../AVR8/Endpoint_AVR8.h **** 			static inline bool Endpoint_IsEnabled(void) ATTR_WARN_UNUSED_RESULT ATTR_ALWAYS_INLINE;
 311:lib/lufa/LUFA/Drivers/USB/Core/AVR8/../AVR8/Endpoint_AVR8.h **** 			static inline bool Endpoint_IsEnabled(void)
 312:lib/lufa/LUFA/Drivers/USB/Core/AVR8/../AVR8/Endpoint_AVR8.h **** 			{
 313:lib/lufa/LUFA/Drivers/USB/Core/AVR8/../AVR8/Endpoint_AVR8.h **** 				return ((UECONX & (1 << EPEN)) ? true : false);
 314:lib/lufa/LUFA/Drivers/USB/Core/AVR8/../AVR8/Endpoint_AVR8.h **** 			}
 315:lib/lufa/LUFA/Drivers/USB/Core/AVR8/../AVR8/Endpoint_AVR8.h **** 
 316:lib/lufa/LUFA/Drivers/USB/Core/AVR8/../AVR8/Endpoint_AVR8.h **** 			/** Retrieves the number of busy banks in the currently selected endpoint, which have been queue
 317:lib/lufa/LUFA/Drivers/USB/Core/AVR8/../AVR8/Endpoint_AVR8.h **** 			 *  transmission via the \ref Endpoint_ClearIN() command, or are awaiting acknowledgment via the
 318:lib/lufa/LUFA/Drivers/USB/Core/AVR8/../AVR8/Endpoint_AVR8.h **** 			 *  \ref Endpoint_ClearOUT() command.
 319:lib/lufa/LUFA/Drivers/USB/Core/AVR8/../AVR8/Endpoint_AVR8.h **** 			 *
 320:lib/lufa/LUFA/Drivers/USB/Core/AVR8/../AVR8/Endpoint_AVR8.h **** 			 *  \ingroup Group_EndpointPacketManagement_AVR8
 321:lib/lufa/LUFA/Drivers/USB/Core/AVR8/../AVR8/Endpoint_AVR8.h **** 			 *
 322:lib/lufa/LUFA/Drivers/USB/Core/AVR8/../AVR8/Endpoint_AVR8.h **** 			 *  \return Total number of busy banks in the selected endpoint.
 323:lib/lufa/LUFA/Drivers/USB/Core/AVR8/../AVR8/Endpoint_AVR8.h **** 			 */
 324:lib/lufa/LUFA/Drivers/USB/Core/AVR8/../AVR8/Endpoint_AVR8.h **** 			static inline uint8_t Endpoint_GetBusyBanks(void) ATTR_ALWAYS_INLINE ATTR_WARN_UNUSED_RESULT;
 325:lib/lufa/LUFA/Drivers/USB/Core/AVR8/../AVR8/Endpoint_AVR8.h **** 			static inline uint8_t Endpoint_GetBusyBanks(void)
 326:lib/lufa/LUFA/Drivers/USB/Core/AVR8/../AVR8/Endpoint_AVR8.h **** 			{
 327:lib/lufa/LUFA/Drivers/USB/Core/AVR8/../AVR8/Endpoint_AVR8.h **** 				return (UESTA0X & (0x03 << NBUSYBK0));
 328:lib/lufa/LUFA/Drivers/USB/Core/AVR8/../AVR8/Endpoint_AVR8.h **** 			}
 329:lib/lufa/LUFA/Drivers/USB/Core/AVR8/../AVR8/Endpoint_AVR8.h **** 
 330:lib/lufa/LUFA/Drivers/USB/Core/AVR8/../AVR8/Endpoint_AVR8.h **** 			/** Aborts all pending IN transactions on the currently selected endpoint, once the bank
 331:lib/lufa/LUFA/Drivers/USB/Core/AVR8/../AVR8/Endpoint_AVR8.h **** 			 *  has been queued for transmission to the host via \ref Endpoint_ClearIN(). This function
 332:lib/lufa/LUFA/Drivers/USB/Core/AVR8/../AVR8/Endpoint_AVR8.h **** 			 *  will terminate all queued transactions, resetting the endpoint banks ready for a new
 333:lib/lufa/LUFA/Drivers/USB/Core/AVR8/../AVR8/Endpoint_AVR8.h **** 			 *  packet.
 334:lib/lufa/LUFA/Drivers/USB/Core/AVR8/../AVR8/Endpoint_AVR8.h **** 			 *
 335:lib/lufa/LUFA/Drivers/USB/Core/AVR8/../AVR8/Endpoint_AVR8.h **** 			 *  \ingroup Group_EndpointPacketManagement_AVR8
 336:lib/lufa/LUFA/Drivers/USB/Core/AVR8/../AVR8/Endpoint_AVR8.h **** 			 */
 337:lib/lufa/LUFA/Drivers/USB/Core/AVR8/../AVR8/Endpoint_AVR8.h **** 			static inline void Endpoint_AbortPendingIN(void)
 338:lib/lufa/LUFA/Drivers/USB/Core/AVR8/../AVR8/Endpoint_AVR8.h **** 			{
 339:lib/lufa/LUFA/Drivers/USB/Core/AVR8/../AVR8/Endpoint_AVR8.h **** 				while (Endpoint_GetBusyBanks() != 0)
 340:lib/lufa/LUFA/Drivers/USB/Core/AVR8/../AVR8/Endpoint_AVR8.h **** 				{
 341:lib/lufa/LUFA/Drivers/USB/Core/AVR8/../AVR8/Endpoint_AVR8.h **** 					UEINTX |= (1 << RXOUTI);
 342:lib/lufa/LUFA/Drivers/USB/Core/AVR8/../AVR8/Endpoint_AVR8.h **** 					while (UEINTX & (1 << RXOUTI));
 343:lib/lufa/LUFA/Drivers/USB/Core/AVR8/../AVR8/Endpoint_AVR8.h **** 				}
 344:lib/lufa/LUFA/Drivers/USB/Core/AVR8/../AVR8/Endpoint_AVR8.h **** 			}
 345:lib/lufa/LUFA/Drivers/USB/Core/AVR8/../AVR8/Endpoint_AVR8.h **** 
 346:lib/lufa/LUFA/Drivers/USB/Core/AVR8/../AVR8/Endpoint_AVR8.h **** 			/** Determines if the currently selected endpoint may be read from (if data is waiting in the en
 347:lib/lufa/LUFA/Drivers/USB/Core/AVR8/../AVR8/Endpoint_AVR8.h **** 			 *  bank and the endpoint is an OUT direction, or if the bank is not yet full if the endpoint is
 348:lib/lufa/LUFA/Drivers/USB/Core/AVR8/../AVR8/Endpoint_AVR8.h **** 			 *  direction). This function will return false if an error has occurred in the endpoint, if the
 349:lib/lufa/LUFA/Drivers/USB/Core/AVR8/../AVR8/Endpoint_AVR8.h **** 			 *  is an OUT direction and no packet (or an empty packet) has been received, or if the endpoint
 350:lib/lufa/LUFA/Drivers/USB/Core/AVR8/../AVR8/Endpoint_AVR8.h **** 			 *  direction and the endpoint bank is full.
 351:lib/lufa/LUFA/Drivers/USB/Core/AVR8/../AVR8/Endpoint_AVR8.h **** 			 *
 352:lib/lufa/LUFA/Drivers/USB/Core/AVR8/../AVR8/Endpoint_AVR8.h **** 			 *  \ingroup Group_EndpointPacketManagement_AVR8
 353:lib/lufa/LUFA/Drivers/USB/Core/AVR8/../AVR8/Endpoint_AVR8.h **** 			 *
 354:lib/lufa/LUFA/Drivers/USB/Core/AVR8/../AVR8/Endpoint_AVR8.h **** 			 *  \return Boolean \c true if the currently selected endpoint may be read from or written to, d
 355:lib/lufa/LUFA/Drivers/USB/Core/AVR8/../AVR8/Endpoint_AVR8.h **** 			 *          on its direction.
 356:lib/lufa/LUFA/Drivers/USB/Core/AVR8/../AVR8/Endpoint_AVR8.h **** 			 */
 357:lib/lufa/LUFA/Drivers/USB/Core/AVR8/../AVR8/Endpoint_AVR8.h **** 			static inline bool Endpoint_IsReadWriteAllowed(void) ATTR_WARN_UNUSED_RESULT ATTR_ALWAYS_INLINE;
 358:lib/lufa/LUFA/Drivers/USB/Core/AVR8/../AVR8/Endpoint_AVR8.h **** 			static inline bool Endpoint_IsReadWriteAllowed(void)
 359:lib/lufa/LUFA/Drivers/USB/Core/AVR8/../AVR8/Endpoint_AVR8.h **** 			{
 360:lib/lufa/LUFA/Drivers/USB/Core/AVR8/../AVR8/Endpoint_AVR8.h **** 				return ((UEINTX & (1 << RWAL)) ? true : false);
 361:lib/lufa/LUFA/Drivers/USB/Core/AVR8/../AVR8/Endpoint_AVR8.h **** 			}
 362:lib/lufa/LUFA/Drivers/USB/Core/AVR8/../AVR8/Endpoint_AVR8.h **** 
 363:lib/lufa/LUFA/Drivers/USB/Core/AVR8/../AVR8/Endpoint_AVR8.h **** 			/** Determines if the currently selected endpoint is configured.
 364:lib/lufa/LUFA/Drivers/USB/Core/AVR8/../AVR8/Endpoint_AVR8.h **** 			 *
 365:lib/lufa/LUFA/Drivers/USB/Core/AVR8/../AVR8/Endpoint_AVR8.h **** 			 *  \return Boolean \c true if the currently selected endpoint has been configured, \c false oth
 366:lib/lufa/LUFA/Drivers/USB/Core/AVR8/../AVR8/Endpoint_AVR8.h **** 			 */
 367:lib/lufa/LUFA/Drivers/USB/Core/AVR8/../AVR8/Endpoint_AVR8.h **** 			static inline bool Endpoint_IsConfigured(void) ATTR_WARN_UNUSED_RESULT ATTR_ALWAYS_INLINE;
 368:lib/lufa/LUFA/Drivers/USB/Core/AVR8/../AVR8/Endpoint_AVR8.h **** 			static inline bool Endpoint_IsConfigured(void)
 369:lib/lufa/LUFA/Drivers/USB/Core/AVR8/../AVR8/Endpoint_AVR8.h **** 			{
 370:lib/lufa/LUFA/Drivers/USB/Core/AVR8/../AVR8/Endpoint_AVR8.h **** 				return ((UESTA0X & (1 << CFGOK)) ? true : false);
 371:lib/lufa/LUFA/Drivers/USB/Core/AVR8/../AVR8/Endpoint_AVR8.h **** 			}
 372:lib/lufa/LUFA/Drivers/USB/Core/AVR8/../AVR8/Endpoint_AVR8.h **** 
 373:lib/lufa/LUFA/Drivers/USB/Core/AVR8/../AVR8/Endpoint_AVR8.h **** 			/** Returns a mask indicating which INTERRUPT type endpoints have interrupted - i.e. their
 374:lib/lufa/LUFA/Drivers/USB/Core/AVR8/../AVR8/Endpoint_AVR8.h **** 			 *  interrupt duration has elapsed. Which endpoints have interrupted can be determined by
 375:lib/lufa/LUFA/Drivers/USB/Core/AVR8/../AVR8/Endpoint_AVR8.h **** 			 *  masking the return value against <tt>(1 << <i>{Endpoint Number}</i>)</tt>.
 376:lib/lufa/LUFA/Drivers/USB/Core/AVR8/../AVR8/Endpoint_AVR8.h **** 			 *
 377:lib/lufa/LUFA/Drivers/USB/Core/AVR8/../AVR8/Endpoint_AVR8.h **** 			 *  \return Mask whose bits indicate which endpoints have interrupted.
 378:lib/lufa/LUFA/Drivers/USB/Core/AVR8/../AVR8/Endpoint_AVR8.h **** 			 */
 379:lib/lufa/LUFA/Drivers/USB/Core/AVR8/../AVR8/Endpoint_AVR8.h **** 			static inline uint8_t Endpoint_GetEndpointInterrupts(void) ATTR_WARN_UNUSED_RESULT ATTR_ALWAYS_I
 380:lib/lufa/LUFA/Drivers/USB/Core/AVR8/../AVR8/Endpoint_AVR8.h **** 			static inline uint8_t Endpoint_GetEndpointInterrupts(void)
 381:lib/lufa/LUFA/Drivers/USB/Core/AVR8/../AVR8/Endpoint_AVR8.h **** 			{
 382:lib/lufa/LUFA/Drivers/USB/Core/AVR8/../AVR8/Endpoint_AVR8.h **** 				return UEINT;
 383:lib/lufa/LUFA/Drivers/USB/Core/AVR8/../AVR8/Endpoint_AVR8.h **** 			}
 384:lib/lufa/LUFA/Drivers/USB/Core/AVR8/../AVR8/Endpoint_AVR8.h **** 
 385:lib/lufa/LUFA/Drivers/USB/Core/AVR8/../AVR8/Endpoint_AVR8.h **** 			/** Determines if the specified endpoint number has interrupted (valid only for INTERRUPT type
 386:lib/lufa/LUFA/Drivers/USB/Core/AVR8/../AVR8/Endpoint_AVR8.h **** 			 *  endpoints).
 387:lib/lufa/LUFA/Drivers/USB/Core/AVR8/../AVR8/Endpoint_AVR8.h **** 			 *
 388:lib/lufa/LUFA/Drivers/USB/Core/AVR8/../AVR8/Endpoint_AVR8.h **** 			 *  \param[in] Address  Address of the endpoint whose interrupt flag should be tested.
 389:lib/lufa/LUFA/Drivers/USB/Core/AVR8/../AVR8/Endpoint_AVR8.h **** 			 *
 390:lib/lufa/LUFA/Drivers/USB/Core/AVR8/../AVR8/Endpoint_AVR8.h **** 			 *  \return Boolean \c true if the specified endpoint has interrupted, \c false otherwise.
 391:lib/lufa/LUFA/Drivers/USB/Core/AVR8/../AVR8/Endpoint_AVR8.h **** 			 */
 392:lib/lufa/LUFA/Drivers/USB/Core/AVR8/../AVR8/Endpoint_AVR8.h **** 			static inline bool Endpoint_HasEndpointInterrupted(const uint8_t Address) ATTR_WARN_UNUSED_RESUL
 393:lib/lufa/LUFA/Drivers/USB/Core/AVR8/../AVR8/Endpoint_AVR8.h **** 			static inline bool Endpoint_HasEndpointInterrupted(const uint8_t Address)
 394:lib/lufa/LUFA/Drivers/USB/Core/AVR8/../AVR8/Endpoint_AVR8.h **** 			{
 395:lib/lufa/LUFA/Drivers/USB/Core/AVR8/../AVR8/Endpoint_AVR8.h **** 				return ((Endpoint_GetEndpointInterrupts() & (1 << (Address & ENDPOINT_EPNUM_MASK))) ? true : fa
 396:lib/lufa/LUFA/Drivers/USB/Core/AVR8/../AVR8/Endpoint_AVR8.h **** 			}
 397:lib/lufa/LUFA/Drivers/USB/Core/AVR8/../AVR8/Endpoint_AVR8.h **** 
 398:lib/lufa/LUFA/Drivers/USB/Core/AVR8/../AVR8/Endpoint_AVR8.h **** 			/** Determines if the selected IN endpoint is ready for a new packet to be sent to the host.
 399:lib/lufa/LUFA/Drivers/USB/Core/AVR8/../AVR8/Endpoint_AVR8.h **** 			 *
 400:lib/lufa/LUFA/Drivers/USB/Core/AVR8/../AVR8/Endpoint_AVR8.h **** 			 *  \ingroup Group_EndpointPacketManagement_AVR8
 401:lib/lufa/LUFA/Drivers/USB/Core/AVR8/../AVR8/Endpoint_AVR8.h **** 			 *
 402:lib/lufa/LUFA/Drivers/USB/Core/AVR8/../AVR8/Endpoint_AVR8.h **** 			 *  \return Boolean \c true if the current endpoint is ready for an IN packet, \c false otherwis
 403:lib/lufa/LUFA/Drivers/USB/Core/AVR8/../AVR8/Endpoint_AVR8.h **** 			 */
 404:lib/lufa/LUFA/Drivers/USB/Core/AVR8/../AVR8/Endpoint_AVR8.h **** 			static inline bool Endpoint_IsINReady(void) ATTR_WARN_UNUSED_RESULT ATTR_ALWAYS_INLINE;
 405:lib/lufa/LUFA/Drivers/USB/Core/AVR8/../AVR8/Endpoint_AVR8.h **** 			static inline bool Endpoint_IsINReady(void)
 406:lib/lufa/LUFA/Drivers/USB/Core/AVR8/../AVR8/Endpoint_AVR8.h **** 			{
 407:lib/lufa/LUFA/Drivers/USB/Core/AVR8/../AVR8/Endpoint_AVR8.h **** 				return ((UEINTX & (1 << TXINI)) ? true : false);
 408:lib/lufa/LUFA/Drivers/USB/Core/AVR8/../AVR8/Endpoint_AVR8.h **** 			}
 409:lib/lufa/LUFA/Drivers/USB/Core/AVR8/../AVR8/Endpoint_AVR8.h **** 
 410:lib/lufa/LUFA/Drivers/USB/Core/AVR8/../AVR8/Endpoint_AVR8.h **** 			/** Determines if the selected OUT endpoint has received new packet from the host.
 411:lib/lufa/LUFA/Drivers/USB/Core/AVR8/../AVR8/Endpoint_AVR8.h **** 			 *
 412:lib/lufa/LUFA/Drivers/USB/Core/AVR8/../AVR8/Endpoint_AVR8.h **** 			 *  \ingroup Group_EndpointPacketManagement_AVR8
 413:lib/lufa/LUFA/Drivers/USB/Core/AVR8/../AVR8/Endpoint_AVR8.h **** 			 *
 414:lib/lufa/LUFA/Drivers/USB/Core/AVR8/../AVR8/Endpoint_AVR8.h **** 			 *  \return Boolean \c true if current endpoint is has received an OUT packet, \c false otherwis
 415:lib/lufa/LUFA/Drivers/USB/Core/AVR8/../AVR8/Endpoint_AVR8.h **** 			 */
 416:lib/lufa/LUFA/Drivers/USB/Core/AVR8/../AVR8/Endpoint_AVR8.h **** 			static inline bool Endpoint_IsOUTReceived(void) ATTR_WARN_UNUSED_RESULT ATTR_ALWAYS_INLINE;
 417:lib/lufa/LUFA/Drivers/USB/Core/AVR8/../AVR8/Endpoint_AVR8.h **** 			static inline bool Endpoint_IsOUTReceived(void)
 418:lib/lufa/LUFA/Drivers/USB/Core/AVR8/../AVR8/Endpoint_AVR8.h **** 			{
 419:lib/lufa/LUFA/Drivers/USB/Core/AVR8/../AVR8/Endpoint_AVR8.h **** 				return ((UEINTX & (1 << RXOUTI)) ? true : false);
 420:lib/lufa/LUFA/Drivers/USB/Core/AVR8/../AVR8/Endpoint_AVR8.h **** 			}
 421:lib/lufa/LUFA/Drivers/USB/Core/AVR8/../AVR8/Endpoint_AVR8.h **** 
 422:lib/lufa/LUFA/Drivers/USB/Core/AVR8/../AVR8/Endpoint_AVR8.h **** 			/** Determines if the current CONTROL type endpoint has received a SETUP packet.
 423:lib/lufa/LUFA/Drivers/USB/Core/AVR8/../AVR8/Endpoint_AVR8.h **** 			 *
 424:lib/lufa/LUFA/Drivers/USB/Core/AVR8/../AVR8/Endpoint_AVR8.h **** 			 *  \ingroup Group_EndpointPacketManagement_AVR8
 425:lib/lufa/LUFA/Drivers/USB/Core/AVR8/../AVR8/Endpoint_AVR8.h **** 			 *
 426:lib/lufa/LUFA/Drivers/USB/Core/AVR8/../AVR8/Endpoint_AVR8.h **** 			 *  \return Boolean \c true if the selected endpoint has received a SETUP packet, \c false other
 427:lib/lufa/LUFA/Drivers/USB/Core/AVR8/../AVR8/Endpoint_AVR8.h **** 			 */
 428:lib/lufa/LUFA/Drivers/USB/Core/AVR8/../AVR8/Endpoint_AVR8.h **** 			static inline bool Endpoint_IsSETUPReceived(void) ATTR_WARN_UNUSED_RESULT ATTR_ALWAYS_INLINE;
 429:lib/lufa/LUFA/Drivers/USB/Core/AVR8/../AVR8/Endpoint_AVR8.h **** 			static inline bool Endpoint_IsSETUPReceived(void)
 430:lib/lufa/LUFA/Drivers/USB/Core/AVR8/../AVR8/Endpoint_AVR8.h **** 			{
 431:lib/lufa/LUFA/Drivers/USB/Core/AVR8/../AVR8/Endpoint_AVR8.h **** 				return ((UEINTX & (1 << RXSTPI)) ? true : false);
 432:lib/lufa/LUFA/Drivers/USB/Core/AVR8/../AVR8/Endpoint_AVR8.h **** 			}
 433:lib/lufa/LUFA/Drivers/USB/Core/AVR8/../AVR8/Endpoint_AVR8.h **** 
 434:lib/lufa/LUFA/Drivers/USB/Core/AVR8/../AVR8/Endpoint_AVR8.h **** 			/** Clears a received SETUP packet on the currently selected CONTROL type endpoint, freeing up t
 435:lib/lufa/LUFA/Drivers/USB/Core/AVR8/../AVR8/Endpoint_AVR8.h **** 			 *  endpoint for the next packet.
 436:lib/lufa/LUFA/Drivers/USB/Core/AVR8/../AVR8/Endpoint_AVR8.h **** 			 *
 437:lib/lufa/LUFA/Drivers/USB/Core/AVR8/../AVR8/Endpoint_AVR8.h **** 			 *  \ingroup Group_EndpointPacketManagement_AVR8
 438:lib/lufa/LUFA/Drivers/USB/Core/AVR8/../AVR8/Endpoint_AVR8.h **** 			 *
 439:lib/lufa/LUFA/Drivers/USB/Core/AVR8/../AVR8/Endpoint_AVR8.h **** 			 *  \note This is not applicable for non CONTROL type endpoints.
 440:lib/lufa/LUFA/Drivers/USB/Core/AVR8/../AVR8/Endpoint_AVR8.h **** 			 */
 441:lib/lufa/LUFA/Drivers/USB/Core/AVR8/../AVR8/Endpoint_AVR8.h **** 			static inline void Endpoint_ClearSETUP(void) ATTR_ALWAYS_INLINE;
 442:lib/lufa/LUFA/Drivers/USB/Core/AVR8/../AVR8/Endpoint_AVR8.h **** 			static inline void Endpoint_ClearSETUP(void)
 443:lib/lufa/LUFA/Drivers/USB/Core/AVR8/../AVR8/Endpoint_AVR8.h **** 			{
 444:lib/lufa/LUFA/Drivers/USB/Core/AVR8/../AVR8/Endpoint_AVR8.h **** 				UEINTX &= ~(1 << RXSTPI);
 445:lib/lufa/LUFA/Drivers/USB/Core/AVR8/../AVR8/Endpoint_AVR8.h **** 			}
 446:lib/lufa/LUFA/Drivers/USB/Core/AVR8/../AVR8/Endpoint_AVR8.h **** 
 447:lib/lufa/LUFA/Drivers/USB/Core/AVR8/../AVR8/Endpoint_AVR8.h **** 			/** Sends an IN packet to the host on the currently selected endpoint, freeing up the endpoint f
 448:lib/lufa/LUFA/Drivers/USB/Core/AVR8/../AVR8/Endpoint_AVR8.h **** 			 *  next packet and switching to the alternative endpoint bank if double banked.
 449:lib/lufa/LUFA/Drivers/USB/Core/AVR8/../AVR8/Endpoint_AVR8.h **** 			 *
 450:lib/lufa/LUFA/Drivers/USB/Core/AVR8/../AVR8/Endpoint_AVR8.h **** 			 *  \ingroup Group_EndpointPacketManagement_AVR8
 451:lib/lufa/LUFA/Drivers/USB/Core/AVR8/../AVR8/Endpoint_AVR8.h **** 			 */
 452:lib/lufa/LUFA/Drivers/USB/Core/AVR8/../AVR8/Endpoint_AVR8.h **** 			static inline void Endpoint_ClearIN(void) ATTR_ALWAYS_INLINE;
 453:lib/lufa/LUFA/Drivers/USB/Core/AVR8/../AVR8/Endpoint_AVR8.h **** 			static inline void Endpoint_ClearIN(void)
 454:lib/lufa/LUFA/Drivers/USB/Core/AVR8/../AVR8/Endpoint_AVR8.h **** 			{
 455:lib/lufa/LUFA/Drivers/USB/Core/AVR8/../AVR8/Endpoint_AVR8.h **** 				#if !defined(CONTROL_ONLY_DEVICE)
 456:lib/lufa/LUFA/Drivers/USB/Core/AVR8/../AVR8/Endpoint_AVR8.h **** 					UEINTX &= ~((1 << TXINI) | (1 << FIFOCON));
 457:lib/lufa/LUFA/Drivers/USB/Core/AVR8/../AVR8/Endpoint_AVR8.h **** 				#else
 458:lib/lufa/LUFA/Drivers/USB/Core/AVR8/../AVR8/Endpoint_AVR8.h **** 					UEINTX &= ~(1 << TXINI);
 459:lib/lufa/LUFA/Drivers/USB/Core/AVR8/../AVR8/Endpoint_AVR8.h **** 				#endif
 460:lib/lufa/LUFA/Drivers/USB/Core/AVR8/../AVR8/Endpoint_AVR8.h **** 			}
 461:lib/lufa/LUFA/Drivers/USB/Core/AVR8/../AVR8/Endpoint_AVR8.h **** 
 462:lib/lufa/LUFA/Drivers/USB/Core/AVR8/../AVR8/Endpoint_AVR8.h **** 			/** Acknowledges an OUT packet to the host on the currently selected endpoint, freeing up the en
 463:lib/lufa/LUFA/Drivers/USB/Core/AVR8/../AVR8/Endpoint_AVR8.h **** 			 *  for the next packet and switching to the alternative endpoint bank if double banked.
 464:lib/lufa/LUFA/Drivers/USB/Core/AVR8/../AVR8/Endpoint_AVR8.h **** 			 *
 465:lib/lufa/LUFA/Drivers/USB/Core/AVR8/../AVR8/Endpoint_AVR8.h **** 			 *  \ingroup Group_EndpointPacketManagement_AVR8
 466:lib/lufa/LUFA/Drivers/USB/Core/AVR8/../AVR8/Endpoint_AVR8.h **** 			 */
 467:lib/lufa/LUFA/Drivers/USB/Core/AVR8/../AVR8/Endpoint_AVR8.h **** 			static inline void Endpoint_ClearOUT(void) ATTR_ALWAYS_INLINE;
 468:lib/lufa/LUFA/Drivers/USB/Core/AVR8/../AVR8/Endpoint_AVR8.h **** 			static inline void Endpoint_ClearOUT(void)
 469:lib/lufa/LUFA/Drivers/USB/Core/AVR8/../AVR8/Endpoint_AVR8.h **** 			{
 470:lib/lufa/LUFA/Drivers/USB/Core/AVR8/../AVR8/Endpoint_AVR8.h **** 				#if !defined(CONTROL_ONLY_DEVICE)
 471:lib/lufa/LUFA/Drivers/USB/Core/AVR8/../AVR8/Endpoint_AVR8.h **** 					UEINTX &= ~((1 << RXOUTI) | (1 << FIFOCON));
 472:lib/lufa/LUFA/Drivers/USB/Core/AVR8/../AVR8/Endpoint_AVR8.h **** 				#else
 473:lib/lufa/LUFA/Drivers/USB/Core/AVR8/../AVR8/Endpoint_AVR8.h **** 					UEINTX &= ~(1 << RXOUTI);
 474:lib/lufa/LUFA/Drivers/USB/Core/AVR8/../AVR8/Endpoint_AVR8.h **** 				#endif
 475:lib/lufa/LUFA/Drivers/USB/Core/AVR8/../AVR8/Endpoint_AVR8.h **** 			}
 476:lib/lufa/LUFA/Drivers/USB/Core/AVR8/../AVR8/Endpoint_AVR8.h **** 
 477:lib/lufa/LUFA/Drivers/USB/Core/AVR8/../AVR8/Endpoint_AVR8.h **** 			/** Stalls the current endpoint, indicating to the host that a logical problem occurred with the
 478:lib/lufa/LUFA/Drivers/USB/Core/AVR8/../AVR8/Endpoint_AVR8.h **** 			 *  indicated endpoint and that the current transfer sequence should be aborted. This provides a
 479:lib/lufa/LUFA/Drivers/USB/Core/AVR8/../AVR8/Endpoint_AVR8.h **** 			 *  way for devices to indicate invalid commands to the host so that the current transfer can be
 480:lib/lufa/LUFA/Drivers/USB/Core/AVR8/../AVR8/Endpoint_AVR8.h **** 			 *  aborted and the host can begin its own recovery sequence.
 481:lib/lufa/LUFA/Drivers/USB/Core/AVR8/../AVR8/Endpoint_AVR8.h **** 			 *
 482:lib/lufa/LUFA/Drivers/USB/Core/AVR8/../AVR8/Endpoint_AVR8.h **** 			 *  The currently selected endpoint remains stalled until either the \ref Endpoint_ClearStall() 
 483:lib/lufa/LUFA/Drivers/USB/Core/AVR8/../AVR8/Endpoint_AVR8.h **** 			 *  is called, or the host issues a CLEAR FEATURE request to the device for the currently select
 484:lib/lufa/LUFA/Drivers/USB/Core/AVR8/../AVR8/Endpoint_AVR8.h **** 			 *  endpoint.
 485:lib/lufa/LUFA/Drivers/USB/Core/AVR8/../AVR8/Endpoint_AVR8.h **** 			 *
 486:lib/lufa/LUFA/Drivers/USB/Core/AVR8/../AVR8/Endpoint_AVR8.h **** 			 *  \ingroup Group_EndpointPacketManagement_AVR8
 487:lib/lufa/LUFA/Drivers/USB/Core/AVR8/../AVR8/Endpoint_AVR8.h **** 			 */
 488:lib/lufa/LUFA/Drivers/USB/Core/AVR8/../AVR8/Endpoint_AVR8.h **** 			static inline void Endpoint_StallTransaction(void) ATTR_ALWAYS_INLINE;
 489:lib/lufa/LUFA/Drivers/USB/Core/AVR8/../AVR8/Endpoint_AVR8.h **** 			static inline void Endpoint_StallTransaction(void)
 490:lib/lufa/LUFA/Drivers/USB/Core/AVR8/../AVR8/Endpoint_AVR8.h **** 			{
 491:lib/lufa/LUFA/Drivers/USB/Core/AVR8/../AVR8/Endpoint_AVR8.h **** 				UECONX |= (1 << STALLRQ);
 492:lib/lufa/LUFA/Drivers/USB/Core/AVR8/../AVR8/Endpoint_AVR8.h **** 			}
 493:lib/lufa/LUFA/Drivers/USB/Core/AVR8/../AVR8/Endpoint_AVR8.h **** 
 494:lib/lufa/LUFA/Drivers/USB/Core/AVR8/../AVR8/Endpoint_AVR8.h **** 			/** Clears the STALL condition on the currently selected endpoint.
 495:lib/lufa/LUFA/Drivers/USB/Core/AVR8/../AVR8/Endpoint_AVR8.h **** 			 *
 496:lib/lufa/LUFA/Drivers/USB/Core/AVR8/../AVR8/Endpoint_AVR8.h **** 			 *  \ingroup Group_EndpointPacketManagement_AVR8
 497:lib/lufa/LUFA/Drivers/USB/Core/AVR8/../AVR8/Endpoint_AVR8.h **** 			 */
 498:lib/lufa/LUFA/Drivers/USB/Core/AVR8/../AVR8/Endpoint_AVR8.h **** 			static inline void Endpoint_ClearStall(void) ATTR_ALWAYS_INLINE;
 499:lib/lufa/LUFA/Drivers/USB/Core/AVR8/../AVR8/Endpoint_AVR8.h **** 			static inline void Endpoint_ClearStall(void)
 500:lib/lufa/LUFA/Drivers/USB/Core/AVR8/../AVR8/Endpoint_AVR8.h **** 			{
 501:lib/lufa/LUFA/Drivers/USB/Core/AVR8/../AVR8/Endpoint_AVR8.h **** 				UECONX |= (1 << STALLRQC);
 502:lib/lufa/LUFA/Drivers/USB/Core/AVR8/../AVR8/Endpoint_AVR8.h **** 			}
 503:lib/lufa/LUFA/Drivers/USB/Core/AVR8/../AVR8/Endpoint_AVR8.h **** 
 504:lib/lufa/LUFA/Drivers/USB/Core/AVR8/../AVR8/Endpoint_AVR8.h **** 			/** Determines if the currently selected endpoint is stalled, \c false otherwise.
 505:lib/lufa/LUFA/Drivers/USB/Core/AVR8/../AVR8/Endpoint_AVR8.h **** 			 *
 506:lib/lufa/LUFA/Drivers/USB/Core/AVR8/../AVR8/Endpoint_AVR8.h **** 			 *  \ingroup Group_EndpointPacketManagement_AVR8
 507:lib/lufa/LUFA/Drivers/USB/Core/AVR8/../AVR8/Endpoint_AVR8.h **** 			 *
 508:lib/lufa/LUFA/Drivers/USB/Core/AVR8/../AVR8/Endpoint_AVR8.h **** 			 *  \return Boolean \c true if the currently selected endpoint is stalled, \c false otherwise.
 509:lib/lufa/LUFA/Drivers/USB/Core/AVR8/../AVR8/Endpoint_AVR8.h **** 			 */
 510:lib/lufa/LUFA/Drivers/USB/Core/AVR8/../AVR8/Endpoint_AVR8.h **** 			static inline bool Endpoint_IsStalled(void) ATTR_WARN_UNUSED_RESULT ATTR_ALWAYS_INLINE;
 511:lib/lufa/LUFA/Drivers/USB/Core/AVR8/../AVR8/Endpoint_AVR8.h **** 			static inline bool Endpoint_IsStalled(void)
 512:lib/lufa/LUFA/Drivers/USB/Core/AVR8/../AVR8/Endpoint_AVR8.h **** 			{
 513:lib/lufa/LUFA/Drivers/USB/Core/AVR8/../AVR8/Endpoint_AVR8.h **** 				return ((UECONX & (1 << STALLRQ)) ? true : false);
 514:lib/lufa/LUFA/Drivers/USB/Core/AVR8/../AVR8/Endpoint_AVR8.h **** 			}
 515:lib/lufa/LUFA/Drivers/USB/Core/AVR8/../AVR8/Endpoint_AVR8.h **** 
 516:lib/lufa/LUFA/Drivers/USB/Core/AVR8/../AVR8/Endpoint_AVR8.h **** 			/** Resets the data toggle of the currently selected endpoint. */
 517:lib/lufa/LUFA/Drivers/USB/Core/AVR8/../AVR8/Endpoint_AVR8.h **** 			static inline void Endpoint_ResetDataToggle(void) ATTR_ALWAYS_INLINE;
 518:lib/lufa/LUFA/Drivers/USB/Core/AVR8/../AVR8/Endpoint_AVR8.h **** 			static inline void Endpoint_ResetDataToggle(void)
 519:lib/lufa/LUFA/Drivers/USB/Core/AVR8/../AVR8/Endpoint_AVR8.h **** 			{
 520:lib/lufa/LUFA/Drivers/USB/Core/AVR8/../AVR8/Endpoint_AVR8.h **** 				UECONX |= (1 << RSTDT);
 521:lib/lufa/LUFA/Drivers/USB/Core/AVR8/../AVR8/Endpoint_AVR8.h **** 			}
 522:lib/lufa/LUFA/Drivers/USB/Core/AVR8/../AVR8/Endpoint_AVR8.h **** 
 523:lib/lufa/LUFA/Drivers/USB/Core/AVR8/../AVR8/Endpoint_AVR8.h **** 			/** Sets the direction of the currently selected endpoint.
 524:lib/lufa/LUFA/Drivers/USB/Core/AVR8/../AVR8/Endpoint_AVR8.h **** 			 *
 525:lib/lufa/LUFA/Drivers/USB/Core/AVR8/../AVR8/Endpoint_AVR8.h **** 			 *  \param[in] DirectionMask  New endpoint direction, as a \c ENDPOINT_DIR_* mask.
 526:lib/lufa/LUFA/Drivers/USB/Core/AVR8/../AVR8/Endpoint_AVR8.h **** 			 */
 527:lib/lufa/LUFA/Drivers/USB/Core/AVR8/../AVR8/Endpoint_AVR8.h **** 			static inline void Endpoint_SetEndpointDirection(const uint8_t DirectionMask) ATTR_ALWAYS_INLINE
 528:lib/lufa/LUFA/Drivers/USB/Core/AVR8/../AVR8/Endpoint_AVR8.h **** 			static inline void Endpoint_SetEndpointDirection(const uint8_t DirectionMask)
 529:lib/lufa/LUFA/Drivers/USB/Core/AVR8/../AVR8/Endpoint_AVR8.h **** 			{
 530:lib/lufa/LUFA/Drivers/USB/Core/AVR8/../AVR8/Endpoint_AVR8.h **** 				UECFG0X = ((UECFG0X & ~(1 << EPDIR)) | (DirectionMask ? (1 << EPDIR) : 0));
 531:lib/lufa/LUFA/Drivers/USB/Core/AVR8/../AVR8/Endpoint_AVR8.h **** 			}
 532:lib/lufa/LUFA/Drivers/USB/Core/AVR8/../AVR8/Endpoint_AVR8.h **** 
 533:lib/lufa/LUFA/Drivers/USB/Core/AVR8/../AVR8/Endpoint_AVR8.h **** 			/** Reads one byte from the currently selected endpoint's bank, for OUT direction endpoints.
 534:lib/lufa/LUFA/Drivers/USB/Core/AVR8/../AVR8/Endpoint_AVR8.h **** 			 *
 535:lib/lufa/LUFA/Drivers/USB/Core/AVR8/../AVR8/Endpoint_AVR8.h **** 			 *  \ingroup Group_EndpointPrimitiveRW_AVR8
 536:lib/lufa/LUFA/Drivers/USB/Core/AVR8/../AVR8/Endpoint_AVR8.h **** 			 *
 537:lib/lufa/LUFA/Drivers/USB/Core/AVR8/../AVR8/Endpoint_AVR8.h **** 			 *  \return Next byte in the currently selected endpoint's FIFO buffer.
 538:lib/lufa/LUFA/Drivers/USB/Core/AVR8/../AVR8/Endpoint_AVR8.h **** 			 */
 539:lib/lufa/LUFA/Drivers/USB/Core/AVR8/../AVR8/Endpoint_AVR8.h **** 			static inline uint8_t Endpoint_Read_8(void) ATTR_WARN_UNUSED_RESULT ATTR_ALWAYS_INLINE;
 540:lib/lufa/LUFA/Drivers/USB/Core/AVR8/../AVR8/Endpoint_AVR8.h **** 			static inline uint8_t Endpoint_Read_8(void)
  63               		.loc 2 540 26 discriminator 3 view .LVU7
  64               	.LBB174:
 541:lib/lufa/LUFA/Drivers/USB/Core/AVR8/../AVR8/Endpoint_AVR8.h **** 			{
 542:lib/lufa/LUFA/Drivers/USB/Core/AVR8/../AVR8/Endpoint_AVR8.h **** 				return UEDATX;
  65               		.loc 2 542 5 discriminator 3 view .LVU8
  66               		.loc 2 542 12 is_stmt 0 discriminator 3 view .LVU9
  67 001a 2091 F100 		lds r18,241
  68               	.LBE174:
  69               	.LBE173:
  70               		.loc 1 61 23 discriminator 3 view .LVU10
  71 001e FC01      		movw r30,r24
  72 0020 2193      		st Z+,r18
  73 0022 CF01      		movw r24,r30
  74               	.LVL2:
  60:lib/lufa/LUFA/Drivers/USB/Core/DeviceStandardReq.c **** 	  *(RequestHeader++) = Endpoint_Read_8();
  75               		.loc 1 60 88 is_stmt 1 discriminator 3 view .LVU11
  60:lib/lufa/LUFA/Drivers/USB/Core/DeviceStandardReq.c **** 	  *(RequestHeader++) = Endpoint_Read_8();
  76               		.loc 1 60 38 discriminator 3 view .LVU12
  60:lib/lufa/LUFA/Drivers/USB/Core/DeviceStandardReq.c **** 	  *(RequestHeader++) = Endpoint_Read_8();
  77               		.loc 1 60 2 is_stmt 0 discriminator 3 view .LVU13
  78 0024 F0E0      		ldi r31,hi8(USB_ControlRequest+8)
  79 0026 8030      		cpi r24,lo8(USB_ControlRequest+8)
  80 0028 9F07      		cpc r25,r31
  81 002a 01F4      		brne .L2
  82               	.LBE175:
  62:lib/lufa/LUFA/Drivers/USB/Core/DeviceStandardReq.c **** 	#endif
  63:lib/lufa/LUFA/Drivers/USB/Core/DeviceStandardReq.c **** 
  64:lib/lufa/LUFA/Drivers/USB/Core/DeviceStandardReq.c **** 	EVENT_USB_Device_ControlRequest();
  83               		.loc 1 64 2 is_stmt 1 view .LVU14
  84 002c 0E94 0000 		call EVENT_USB_Device_ControlRequest
  85               	.LVL3:
  65:lib/lufa/LUFA/Drivers/USB/Core/DeviceStandardReq.c **** 
  66:lib/lufa/LUFA/Drivers/USB/Core/DeviceStandardReq.c **** 	if (Endpoint_IsSETUPReceived())
  86               		.loc 1 66 2 view .LVU15
  87               	.LBB176:
  88               	.LBI176:
 429:lib/lufa/LUFA/Drivers/USB/Core/AVR8/../AVR8/Endpoint_AVR8.h **** 			{
  89               		.loc 2 429 23 view .LVU16
  90               	.LBB177:
 431:lib/lufa/LUFA/Drivers/USB/Core/AVR8/../AVR8/Endpoint_AVR8.h **** 			}
  91               		.loc 2 431 5 view .LVU17
 431:lib/lufa/LUFA/Drivers/USB/Core/AVR8/../AVR8/Endpoint_AVR8.h **** 			}
  92               		.loc 2 431 14 is_stmt 0 view .LVU18
  93 0030 8091 E800 		lds r24,232
  94               	.LBE177:
  95               	.LBE176:
  96               		.loc 1 66 5 view .LVU19
  97 0034 83FF      		sbrs r24,3
  98 0036 00C0      		rjmp .L3
  99               	.LBB178:
  67:lib/lufa/LUFA/Drivers/USB/Core/DeviceStandardReq.c **** 	{
  68:lib/lufa/LUFA/Drivers/USB/Core/DeviceStandardReq.c **** 		uint8_t bmRequestType = USB_ControlRequest.bmRequestType;
 100               		.loc 1 68 3 is_stmt 1 view .LVU20
 101               		.loc 1 68 11 is_stmt 0 view .LVU21
 102 0038 8091 0000 		lds r24,USB_ControlRequest
 103               	.LVL4:
  69:lib/lufa/LUFA/Drivers/USB/Core/DeviceStandardReq.c **** 
  70:lib/lufa/LUFA/Drivers/USB/Core/DeviceStandardReq.c **** 		switch (USB_ControlRequest.bRequest)
 104               		.loc 1 70 3 is_stmt 1 view .LVU22
 105               		.loc 1 70 29 is_stmt 0 view .LVU23
 106 003c 9091 0000 		lds r25,USB_ControlRequest+1
 107               		.loc 1 70 3 view .LVU24
 108 0040 9A30      		cpi r25,lo8(10)
 109 0042 00F0      		brlo .+2
 110 0044 00C0      		rjmp .L3
 111 0046 E92F      		mov r30,r25
 112 0048 F0E0      		ldi r31,0
 113 004a E050      		subi r30,lo8(-(gs(.L5)))
 114 004c F040      		sbci r31,hi8(-(gs(.L5)))
 115 004e 0C94 0000 		jmp __tablejump2__
 116               		.section	.jumptables.gcc.USB_Device_ProcessControlRequest,"a",@progbits
 117               		.p2align	1
 118               	.L5:
 119 0000 0000      		.word gs(.L10)
 120 0002 0000      		.word gs(.L9)
 121 0004 0000      		.word gs(.L3)
 122 0006 0000      		.word gs(.L9)
 123 0008 0000      		.word gs(.L3)
 124 000a 0000      		.word gs(.L8)
 125 000c 0000      		.word gs(.L7)
 126 000e 0000      		.word gs(.L3)
 127 0010 0000      		.word gs(.L6)
 128 0012 0000      		.word gs(.L4)
 129               		.section	.text.USB_Device_ProcessControlRequest
 130               	.L10:
  71:lib/lufa/LUFA/Drivers/USB/Core/DeviceStandardReq.c **** 		{
  72:lib/lufa/LUFA/Drivers/USB/Core/DeviceStandardReq.c **** 			case REQ_GetStatus:
  73:lib/lufa/LUFA/Drivers/USB/Core/DeviceStandardReq.c **** 				if ((bmRequestType == (REQDIR_DEVICETOHOST | REQTYPE_STANDARD | REQREC_DEVICE)) ||
 131               		.loc 1 73 5 is_stmt 1 view .LVU25
 132               		.loc 1 73 8 is_stmt 0 view .LVU26
 133 0052 8038      		cpi r24,lo8(-128)
 134 0054 01F0      		breq .L11
 135               		.loc 1 73 85 discriminator 1 view .LVU27
 136 0056 8238      		cpi r24,lo8(-126)
 137 0058 01F0      		breq .+2
 138 005a 00C0      		rjmp .L3
  74:lib/lufa/LUFA/Drivers/USB/Core/DeviceStandardReq.c **** 					(bmRequestType == (REQDIR_DEVICETOHOST | REQTYPE_STANDARD | REQREC_ENDPOINT)))
  75:lib/lufa/LUFA/Drivers/USB/Core/DeviceStandardReq.c **** 				{
  76:lib/lufa/LUFA/Drivers/USB/Core/DeviceStandardReq.c **** 					USB_Device_GetStatus();
 139               		.loc 1 76 6 is_stmt 1 view .LVU28
 140               	.LBB179:
 141               	.LBI179:
  77:lib/lufa/LUFA/Drivers/USB/Core/DeviceStandardReq.c **** 				}
  78:lib/lufa/LUFA/Drivers/USB/Core/DeviceStandardReq.c **** 
  79:lib/lufa/LUFA/Drivers/USB/Core/DeviceStandardReq.c **** 				break;
  80:lib/lufa/LUFA/Drivers/USB/Core/DeviceStandardReq.c **** 			case REQ_ClearFeature:
  81:lib/lufa/LUFA/Drivers/USB/Core/DeviceStandardReq.c **** 			case REQ_SetFeature:
  82:lib/lufa/LUFA/Drivers/USB/Core/DeviceStandardReq.c **** 				if ((bmRequestType == (REQDIR_HOSTTODEVICE | REQTYPE_STANDARD | REQREC_DEVICE)) ||
  83:lib/lufa/LUFA/Drivers/USB/Core/DeviceStandardReq.c **** 					(bmRequestType == (REQDIR_HOSTTODEVICE | REQTYPE_STANDARD | REQREC_ENDPOINT)))
  84:lib/lufa/LUFA/Drivers/USB/Core/DeviceStandardReq.c **** 				{
  85:lib/lufa/LUFA/Drivers/USB/Core/DeviceStandardReq.c **** 					USB_Device_ClearSetFeature();
  86:lib/lufa/LUFA/Drivers/USB/Core/DeviceStandardReq.c **** 				}
  87:lib/lufa/LUFA/Drivers/USB/Core/DeviceStandardReq.c **** 
  88:lib/lufa/LUFA/Drivers/USB/Core/DeviceStandardReq.c **** 				break;
  89:lib/lufa/LUFA/Drivers/USB/Core/DeviceStandardReq.c **** 			case REQ_SetAddress:
  90:lib/lufa/LUFA/Drivers/USB/Core/DeviceStandardReq.c **** 				if (bmRequestType == (REQDIR_HOSTTODEVICE | REQTYPE_STANDARD | REQREC_DEVICE))
  91:lib/lufa/LUFA/Drivers/USB/Core/DeviceStandardReq.c **** 				  USB_Device_SetAddress();
  92:lib/lufa/LUFA/Drivers/USB/Core/DeviceStandardReq.c **** 
  93:lib/lufa/LUFA/Drivers/USB/Core/DeviceStandardReq.c **** 				break;
  94:lib/lufa/LUFA/Drivers/USB/Core/DeviceStandardReq.c **** 			case REQ_GetDescriptor:
  95:lib/lufa/LUFA/Drivers/USB/Core/DeviceStandardReq.c **** 				if ((bmRequestType == (REQDIR_DEVICETOHOST | REQTYPE_STANDARD | REQREC_DEVICE)) ||
  96:lib/lufa/LUFA/Drivers/USB/Core/DeviceStandardReq.c **** 					(bmRequestType == (REQDIR_DEVICETOHOST | REQTYPE_STANDARD | REQREC_INTERFACE)))
  97:lib/lufa/LUFA/Drivers/USB/Core/DeviceStandardReq.c **** 				{
  98:lib/lufa/LUFA/Drivers/USB/Core/DeviceStandardReq.c **** 					USB_Device_GetDescriptor();
  99:lib/lufa/LUFA/Drivers/USB/Core/DeviceStandardReq.c **** 				}
 100:lib/lufa/LUFA/Drivers/USB/Core/DeviceStandardReq.c **** 
 101:lib/lufa/LUFA/Drivers/USB/Core/DeviceStandardReq.c **** 				break;
 102:lib/lufa/LUFA/Drivers/USB/Core/DeviceStandardReq.c **** 			case REQ_GetConfiguration:
 103:lib/lufa/LUFA/Drivers/USB/Core/DeviceStandardReq.c **** 				if (bmRequestType == (REQDIR_DEVICETOHOST | REQTYPE_STANDARD | REQREC_DEVICE))
 104:lib/lufa/LUFA/Drivers/USB/Core/DeviceStandardReq.c **** 				  USB_Device_GetConfiguration();
 105:lib/lufa/LUFA/Drivers/USB/Core/DeviceStandardReq.c **** 
 106:lib/lufa/LUFA/Drivers/USB/Core/DeviceStandardReq.c **** 				break;
 107:lib/lufa/LUFA/Drivers/USB/Core/DeviceStandardReq.c **** 			case REQ_SetConfiguration:
 108:lib/lufa/LUFA/Drivers/USB/Core/DeviceStandardReq.c **** 				if (bmRequestType == (REQDIR_HOSTTODEVICE | REQTYPE_STANDARD | REQREC_DEVICE))
 109:lib/lufa/LUFA/Drivers/USB/Core/DeviceStandardReq.c **** 				  USB_Device_SetConfiguration();
 110:lib/lufa/LUFA/Drivers/USB/Core/DeviceStandardReq.c **** 
 111:lib/lufa/LUFA/Drivers/USB/Core/DeviceStandardReq.c **** 				break;
 112:lib/lufa/LUFA/Drivers/USB/Core/DeviceStandardReq.c **** 
 113:lib/lufa/LUFA/Drivers/USB/Core/DeviceStandardReq.c **** 			default:
 114:lib/lufa/LUFA/Drivers/USB/Core/DeviceStandardReq.c **** 				break;
 115:lib/lufa/LUFA/Drivers/USB/Core/DeviceStandardReq.c **** 		}
 116:lib/lufa/LUFA/Drivers/USB/Core/DeviceStandardReq.c **** 	}
 117:lib/lufa/LUFA/Drivers/USB/Core/DeviceStandardReq.c **** 
 118:lib/lufa/LUFA/Drivers/USB/Core/DeviceStandardReq.c **** 	if (Endpoint_IsSETUPReceived())
 119:lib/lufa/LUFA/Drivers/USB/Core/DeviceStandardReq.c **** 	{
 120:lib/lufa/LUFA/Drivers/USB/Core/DeviceStandardReq.c **** 		Endpoint_ClearSETUP();
 121:lib/lufa/LUFA/Drivers/USB/Core/DeviceStandardReq.c **** 		Endpoint_StallTransaction();
 122:lib/lufa/LUFA/Drivers/USB/Core/DeviceStandardReq.c **** 	}
 123:lib/lufa/LUFA/Drivers/USB/Core/DeviceStandardReq.c **** }
 124:lib/lufa/LUFA/Drivers/USB/Core/DeviceStandardReq.c **** 
 125:lib/lufa/LUFA/Drivers/USB/Core/DeviceStandardReq.c **** static void USB_Device_SetAddress(void)
 126:lib/lufa/LUFA/Drivers/USB/Core/DeviceStandardReq.c **** {
 127:lib/lufa/LUFA/Drivers/USB/Core/DeviceStandardReq.c **** 	uint8_t DeviceAddress = (USB_ControlRequest.wValue & 0x7F);
 128:lib/lufa/LUFA/Drivers/USB/Core/DeviceStandardReq.c **** 
 129:lib/lufa/LUFA/Drivers/USB/Core/DeviceStandardReq.c **** 	USB_Device_SetDeviceAddress(DeviceAddress);
 130:lib/lufa/LUFA/Drivers/USB/Core/DeviceStandardReq.c **** 
 131:lib/lufa/LUFA/Drivers/USB/Core/DeviceStandardReq.c **** 	Endpoint_ClearSETUP();
 132:lib/lufa/LUFA/Drivers/USB/Core/DeviceStandardReq.c **** 
 133:lib/lufa/LUFA/Drivers/USB/Core/DeviceStandardReq.c **** 	Endpoint_ClearStatusStage();
 134:lib/lufa/LUFA/Drivers/USB/Core/DeviceStandardReq.c **** 
 135:lib/lufa/LUFA/Drivers/USB/Core/DeviceStandardReq.c **** 	while (!(Endpoint_IsINReady()));
 136:lib/lufa/LUFA/Drivers/USB/Core/DeviceStandardReq.c **** 
 137:lib/lufa/LUFA/Drivers/USB/Core/DeviceStandardReq.c **** 	USB_Device_EnableDeviceAddress(DeviceAddress);
 138:lib/lufa/LUFA/Drivers/USB/Core/DeviceStandardReq.c **** 
 139:lib/lufa/LUFA/Drivers/USB/Core/DeviceStandardReq.c **** 	USB_DeviceState = (DeviceAddress) ? DEVICE_STATE_Addressed : DEVICE_STATE_Default;
 140:lib/lufa/LUFA/Drivers/USB/Core/DeviceStandardReq.c **** }
 141:lib/lufa/LUFA/Drivers/USB/Core/DeviceStandardReq.c **** 
 142:lib/lufa/LUFA/Drivers/USB/Core/DeviceStandardReq.c **** static void USB_Device_SetConfiguration(void)
 143:lib/lufa/LUFA/Drivers/USB/Core/DeviceStandardReq.c **** {
 144:lib/lufa/LUFA/Drivers/USB/Core/DeviceStandardReq.c **** 	#if defined(FIXED_NUM_CONFIGURATIONS)
 145:lib/lufa/LUFA/Drivers/USB/Core/DeviceStandardReq.c **** 	if ((uint8_t)USB_ControlRequest.wValue > FIXED_NUM_CONFIGURATIONS)
 146:lib/lufa/LUFA/Drivers/USB/Core/DeviceStandardReq.c **** 	  return;
 147:lib/lufa/LUFA/Drivers/USB/Core/DeviceStandardReq.c **** 	#else
 148:lib/lufa/LUFA/Drivers/USB/Core/DeviceStandardReq.c **** 	USB_Descriptor_Device_t* DevDescriptorPtr;
 149:lib/lufa/LUFA/Drivers/USB/Core/DeviceStandardReq.c **** 
 150:lib/lufa/LUFA/Drivers/USB/Core/DeviceStandardReq.c **** 	#if defined(ARCH_HAS_MULTI_ADDRESS_SPACE)
 151:lib/lufa/LUFA/Drivers/USB/Core/DeviceStandardReq.c **** 		#if defined(USE_FLASH_DESCRIPTORS)
 152:lib/lufa/LUFA/Drivers/USB/Core/DeviceStandardReq.c **** 			#define MemoryAddressSpace  MEMSPACE_FLASH
 153:lib/lufa/LUFA/Drivers/USB/Core/DeviceStandardReq.c **** 		#elif defined(USE_EEPROM_DESCRIPTORS)
 154:lib/lufa/LUFA/Drivers/USB/Core/DeviceStandardReq.c **** 			#define MemoryAddressSpace  MEMSPACE_EEPROM
 155:lib/lufa/LUFA/Drivers/USB/Core/DeviceStandardReq.c **** 		#elif defined(USE_RAM_DESCRIPTORS)
 156:lib/lufa/LUFA/Drivers/USB/Core/DeviceStandardReq.c **** 			#define MemoryAddressSpace  MEMSPACE_RAM
 157:lib/lufa/LUFA/Drivers/USB/Core/DeviceStandardReq.c **** 		#else
 158:lib/lufa/LUFA/Drivers/USB/Core/DeviceStandardReq.c **** 			uint8_t MemoryAddressSpace;
 159:lib/lufa/LUFA/Drivers/USB/Core/DeviceStandardReq.c **** 		#endif
 160:lib/lufa/LUFA/Drivers/USB/Core/DeviceStandardReq.c **** 	#endif
 161:lib/lufa/LUFA/Drivers/USB/Core/DeviceStandardReq.c **** 
 162:lib/lufa/LUFA/Drivers/USB/Core/DeviceStandardReq.c **** 	if (CALLBACK_USB_GetDescriptor((DTYPE_Device << 8), 0, (void*)&DevDescriptorPtr
 163:lib/lufa/LUFA/Drivers/USB/Core/DeviceStandardReq.c **** 	#if defined(ARCH_HAS_MULTI_ADDRESS_SPACE) && \
 164:lib/lufa/LUFA/Drivers/USB/Core/DeviceStandardReq.c **** 	    !(defined(USE_FLASH_DESCRIPTORS) || defined(USE_EEPROM_DESCRIPTORS) || defined(USE_RAM_DESCRIP
 165:lib/lufa/LUFA/Drivers/USB/Core/DeviceStandardReq.c **** 	                               , &MemoryAddressSpace
 166:lib/lufa/LUFA/Drivers/USB/Core/DeviceStandardReq.c **** 	#endif
 167:lib/lufa/LUFA/Drivers/USB/Core/DeviceStandardReq.c **** 	                               ) == NO_DESCRIPTOR)
 168:lib/lufa/LUFA/Drivers/USB/Core/DeviceStandardReq.c **** 	{
 169:lib/lufa/LUFA/Drivers/USB/Core/DeviceStandardReq.c **** 		return;
 170:lib/lufa/LUFA/Drivers/USB/Core/DeviceStandardReq.c **** 	}
 171:lib/lufa/LUFA/Drivers/USB/Core/DeviceStandardReq.c **** 
 172:lib/lufa/LUFA/Drivers/USB/Core/DeviceStandardReq.c **** 	#if defined(ARCH_HAS_MULTI_ADDRESS_SPACE)
 173:lib/lufa/LUFA/Drivers/USB/Core/DeviceStandardReq.c **** 	if (MemoryAddressSpace == MEMSPACE_FLASH)
 174:lib/lufa/LUFA/Drivers/USB/Core/DeviceStandardReq.c **** 	{
 175:lib/lufa/LUFA/Drivers/USB/Core/DeviceStandardReq.c **** 		if (((uint8_t)USB_ControlRequest.wValue > pgm_read_byte(&DevDescriptorPtr->NumberOfConfigurations
 176:lib/lufa/LUFA/Drivers/USB/Core/DeviceStandardReq.c **** 		  return;
 177:lib/lufa/LUFA/Drivers/USB/Core/DeviceStandardReq.c **** 	}
 178:lib/lufa/LUFA/Drivers/USB/Core/DeviceStandardReq.c **** 	else if (MemoryAddressSpace == MEMSPACE_EEPROM)
 179:lib/lufa/LUFA/Drivers/USB/Core/DeviceStandardReq.c **** 	{
 180:lib/lufa/LUFA/Drivers/USB/Core/DeviceStandardReq.c **** 		if (((uint8_t)USB_ControlRequest.wValue > eeprom_read_byte(&DevDescriptorPtr->NumberOfConfigurati
 181:lib/lufa/LUFA/Drivers/USB/Core/DeviceStandardReq.c **** 		  return;
 182:lib/lufa/LUFA/Drivers/USB/Core/DeviceStandardReq.c **** 	}
 183:lib/lufa/LUFA/Drivers/USB/Core/DeviceStandardReq.c **** 	else
 184:lib/lufa/LUFA/Drivers/USB/Core/DeviceStandardReq.c **** 	{
 185:lib/lufa/LUFA/Drivers/USB/Core/DeviceStandardReq.c **** 		if ((uint8_t)USB_ControlRequest.wValue > DevDescriptorPtr->NumberOfConfigurations)
 186:lib/lufa/LUFA/Drivers/USB/Core/DeviceStandardReq.c **** 		  return;
 187:lib/lufa/LUFA/Drivers/USB/Core/DeviceStandardReq.c **** 	}
 188:lib/lufa/LUFA/Drivers/USB/Core/DeviceStandardReq.c **** 	#else
 189:lib/lufa/LUFA/Drivers/USB/Core/DeviceStandardReq.c **** 	if ((uint8_t)USB_ControlRequest.wValue > DevDescriptorPtr->NumberOfConfigurations)
 190:lib/lufa/LUFA/Drivers/USB/Core/DeviceStandardReq.c **** 	  return;
 191:lib/lufa/LUFA/Drivers/USB/Core/DeviceStandardReq.c **** 	#endif
 192:lib/lufa/LUFA/Drivers/USB/Core/DeviceStandardReq.c **** 	#endif
 193:lib/lufa/LUFA/Drivers/USB/Core/DeviceStandardReq.c **** 
 194:lib/lufa/LUFA/Drivers/USB/Core/DeviceStandardReq.c **** 	Endpoint_ClearSETUP();
 195:lib/lufa/LUFA/Drivers/USB/Core/DeviceStandardReq.c **** 
 196:lib/lufa/LUFA/Drivers/USB/Core/DeviceStandardReq.c **** 	USB_Device_ConfigurationNumber = (uint8_t)USB_ControlRequest.wValue;
 197:lib/lufa/LUFA/Drivers/USB/Core/DeviceStandardReq.c **** 
 198:lib/lufa/LUFA/Drivers/USB/Core/DeviceStandardReq.c **** 	Endpoint_ClearStatusStage();
 199:lib/lufa/LUFA/Drivers/USB/Core/DeviceStandardReq.c **** 
 200:lib/lufa/LUFA/Drivers/USB/Core/DeviceStandardReq.c **** 	if (USB_Device_ConfigurationNumber)
 201:lib/lufa/LUFA/Drivers/USB/Core/DeviceStandardReq.c **** 	  USB_DeviceState = DEVICE_STATE_Configured;
 202:lib/lufa/LUFA/Drivers/USB/Core/DeviceStandardReq.c **** 	else
 203:lib/lufa/LUFA/Drivers/USB/Core/DeviceStandardReq.c **** 	  USB_DeviceState = (USB_Device_IsAddressSet()) ? DEVICE_STATE_Configured : DEVICE_STATE_Powered;
 204:lib/lufa/LUFA/Drivers/USB/Core/DeviceStandardReq.c **** 
 205:lib/lufa/LUFA/Drivers/USB/Core/DeviceStandardReq.c **** 	EVENT_USB_Device_ConfigurationChanged();
 206:lib/lufa/LUFA/Drivers/USB/Core/DeviceStandardReq.c **** }
 207:lib/lufa/LUFA/Drivers/USB/Core/DeviceStandardReq.c **** 
 208:lib/lufa/LUFA/Drivers/USB/Core/DeviceStandardReq.c **** static void USB_Device_GetConfiguration(void)
 209:lib/lufa/LUFA/Drivers/USB/Core/DeviceStandardReq.c **** {
 210:lib/lufa/LUFA/Drivers/USB/Core/DeviceStandardReq.c **** 	Endpoint_ClearSETUP();
 211:lib/lufa/LUFA/Drivers/USB/Core/DeviceStandardReq.c **** 
 212:lib/lufa/LUFA/Drivers/USB/Core/DeviceStandardReq.c **** 	Endpoint_Write_8(USB_Device_ConfigurationNumber);
 213:lib/lufa/LUFA/Drivers/USB/Core/DeviceStandardReq.c **** 	Endpoint_ClearIN();
 214:lib/lufa/LUFA/Drivers/USB/Core/DeviceStandardReq.c **** 
 215:lib/lufa/LUFA/Drivers/USB/Core/DeviceStandardReq.c **** 	Endpoint_ClearStatusStage();
 216:lib/lufa/LUFA/Drivers/USB/Core/DeviceStandardReq.c **** }
 217:lib/lufa/LUFA/Drivers/USB/Core/DeviceStandardReq.c **** 
 218:lib/lufa/LUFA/Drivers/USB/Core/DeviceStandardReq.c **** #if !defined(NO_INTERNAL_SERIAL) && (USE_INTERNAL_SERIAL != NO_DESCRIPTOR)
 219:lib/lufa/LUFA/Drivers/USB/Core/DeviceStandardReq.c **** static void USB_Device_GetInternalSerialDescriptor(void)
 220:lib/lufa/LUFA/Drivers/USB/Core/DeviceStandardReq.c **** {
 221:lib/lufa/LUFA/Drivers/USB/Core/DeviceStandardReq.c **** 	struct
 222:lib/lufa/LUFA/Drivers/USB/Core/DeviceStandardReq.c **** 	{
 223:lib/lufa/LUFA/Drivers/USB/Core/DeviceStandardReq.c **** 		USB_Descriptor_Header_t Header;
 224:lib/lufa/LUFA/Drivers/USB/Core/DeviceStandardReq.c **** 		uint16_t                UnicodeString[INTERNAL_SERIAL_LENGTH_BITS / 4];
 225:lib/lufa/LUFA/Drivers/USB/Core/DeviceStandardReq.c **** 	} SignatureDescriptor;
 226:lib/lufa/LUFA/Drivers/USB/Core/DeviceStandardReq.c **** 
 227:lib/lufa/LUFA/Drivers/USB/Core/DeviceStandardReq.c **** 	SignatureDescriptor.Header.Type = DTYPE_String;
 228:lib/lufa/LUFA/Drivers/USB/Core/DeviceStandardReq.c **** 	SignatureDescriptor.Header.Size = USB_STRING_LEN(INTERNAL_SERIAL_LENGTH_BITS / 4);
 229:lib/lufa/LUFA/Drivers/USB/Core/DeviceStandardReq.c **** 
 230:lib/lufa/LUFA/Drivers/USB/Core/DeviceStandardReq.c **** 	USB_Device_GetSerialString(SignatureDescriptor.UnicodeString);
 231:lib/lufa/LUFA/Drivers/USB/Core/DeviceStandardReq.c **** 
 232:lib/lufa/LUFA/Drivers/USB/Core/DeviceStandardReq.c **** 	Endpoint_ClearSETUP();
 233:lib/lufa/LUFA/Drivers/USB/Core/DeviceStandardReq.c **** 
 234:lib/lufa/LUFA/Drivers/USB/Core/DeviceStandardReq.c **** 	Endpoint_Write_Control_Stream_LE(&SignatureDescriptor, sizeof(SignatureDescriptor));
 235:lib/lufa/LUFA/Drivers/USB/Core/DeviceStandardReq.c **** 	Endpoint_ClearOUT();
 236:lib/lufa/LUFA/Drivers/USB/Core/DeviceStandardReq.c **** }
 237:lib/lufa/LUFA/Drivers/USB/Core/DeviceStandardReq.c **** #endif
 238:lib/lufa/LUFA/Drivers/USB/Core/DeviceStandardReq.c **** 
 239:lib/lufa/LUFA/Drivers/USB/Core/DeviceStandardReq.c **** static void USB_Device_GetDescriptor(void)
 240:lib/lufa/LUFA/Drivers/USB/Core/DeviceStandardReq.c **** {
 241:lib/lufa/LUFA/Drivers/USB/Core/DeviceStandardReq.c **** 	const void* DescriptorPointer;
 242:lib/lufa/LUFA/Drivers/USB/Core/DeviceStandardReq.c **** 	uint16_t    DescriptorSize;
 243:lib/lufa/LUFA/Drivers/USB/Core/DeviceStandardReq.c **** 
 244:lib/lufa/LUFA/Drivers/USB/Core/DeviceStandardReq.c **** 	#if defined(ARCH_HAS_MULTI_ADDRESS_SPACE) && \
 245:lib/lufa/LUFA/Drivers/USB/Core/DeviceStandardReq.c **** 	    !(defined(USE_FLASH_DESCRIPTORS) || defined(USE_EEPROM_DESCRIPTORS) || defined(USE_RAM_DESCRIP
 246:lib/lufa/LUFA/Drivers/USB/Core/DeviceStandardReq.c **** 	uint8_t DescriptorAddressSpace;
 247:lib/lufa/LUFA/Drivers/USB/Core/DeviceStandardReq.c **** 	#endif
 248:lib/lufa/LUFA/Drivers/USB/Core/DeviceStandardReq.c **** 
 249:lib/lufa/LUFA/Drivers/USB/Core/DeviceStandardReq.c **** 	#if !defined(NO_INTERNAL_SERIAL) && (USE_INTERNAL_SERIAL != NO_DESCRIPTOR)
 250:lib/lufa/LUFA/Drivers/USB/Core/DeviceStandardReq.c **** 	if (USB_ControlRequest.wValue == ((DTYPE_String << 8) | USE_INTERNAL_SERIAL))
 251:lib/lufa/LUFA/Drivers/USB/Core/DeviceStandardReq.c **** 	{
 252:lib/lufa/LUFA/Drivers/USB/Core/DeviceStandardReq.c **** 		USB_Device_GetInternalSerialDescriptor();
 253:lib/lufa/LUFA/Drivers/USB/Core/DeviceStandardReq.c **** 		return;
 254:lib/lufa/LUFA/Drivers/USB/Core/DeviceStandardReq.c **** 	}
 255:lib/lufa/LUFA/Drivers/USB/Core/DeviceStandardReq.c **** 	#endif
 256:lib/lufa/LUFA/Drivers/USB/Core/DeviceStandardReq.c **** 
 257:lib/lufa/LUFA/Drivers/USB/Core/DeviceStandardReq.c **** 	if ((DescriptorSize = CALLBACK_USB_GetDescriptor(USB_ControlRequest.wValue, USB_ControlRequest.wIn
 258:lib/lufa/LUFA/Drivers/USB/Core/DeviceStandardReq.c **** 	                                                 &DescriptorPointer
 259:lib/lufa/LUFA/Drivers/USB/Core/DeviceStandardReq.c **** 	#if defined(ARCH_HAS_MULTI_ADDRESS_SPACE) && \
 260:lib/lufa/LUFA/Drivers/USB/Core/DeviceStandardReq.c **** 	    !(defined(USE_FLASH_DESCRIPTORS) || defined(USE_EEPROM_DESCRIPTORS) || defined(USE_RAM_DESCRIP
 261:lib/lufa/LUFA/Drivers/USB/Core/DeviceStandardReq.c **** 	                                                 , &DescriptorAddressSpace
 262:lib/lufa/LUFA/Drivers/USB/Core/DeviceStandardReq.c **** 	#endif
 263:lib/lufa/LUFA/Drivers/USB/Core/DeviceStandardReq.c **** 													 )) == NO_DESCRIPTOR)
 264:lib/lufa/LUFA/Drivers/USB/Core/DeviceStandardReq.c **** 	{
 265:lib/lufa/LUFA/Drivers/USB/Core/DeviceStandardReq.c **** 		return;
 266:lib/lufa/LUFA/Drivers/USB/Core/DeviceStandardReq.c **** 	}
 267:lib/lufa/LUFA/Drivers/USB/Core/DeviceStandardReq.c **** 
 268:lib/lufa/LUFA/Drivers/USB/Core/DeviceStandardReq.c **** 	Endpoint_ClearSETUP();
 269:lib/lufa/LUFA/Drivers/USB/Core/DeviceStandardReq.c **** 
 270:lib/lufa/LUFA/Drivers/USB/Core/DeviceStandardReq.c **** 	#if defined(USE_RAM_DESCRIPTORS) || !defined(ARCH_HAS_MULTI_ADDRESS_SPACE)
 271:lib/lufa/LUFA/Drivers/USB/Core/DeviceStandardReq.c **** 	Endpoint_Write_Control_Stream_LE(DescriptorPointer, DescriptorSize);
 272:lib/lufa/LUFA/Drivers/USB/Core/DeviceStandardReq.c **** 	#elif defined(USE_EEPROM_DESCRIPTORS)
 273:lib/lufa/LUFA/Drivers/USB/Core/DeviceStandardReq.c **** 	Endpoint_Write_Control_EStream_LE(DescriptorPointer, DescriptorSize);
 274:lib/lufa/LUFA/Drivers/USB/Core/DeviceStandardReq.c **** 	#elif defined(USE_FLASH_DESCRIPTORS)
 275:lib/lufa/LUFA/Drivers/USB/Core/DeviceStandardReq.c **** 	Endpoint_Write_Control_PStream_LE(DescriptorPointer, DescriptorSize);
 276:lib/lufa/LUFA/Drivers/USB/Core/DeviceStandardReq.c **** 	#else
 277:lib/lufa/LUFA/Drivers/USB/Core/DeviceStandardReq.c **** 	if (DescriptorAddressSpace == MEMSPACE_FLASH)
 278:lib/lufa/LUFA/Drivers/USB/Core/DeviceStandardReq.c **** 	  Endpoint_Write_Control_PStream_LE(DescriptorPointer, DescriptorSize);
 279:lib/lufa/LUFA/Drivers/USB/Core/DeviceStandardReq.c **** 	else if (DescriptorAddressSpace == MEMSPACE_EEPROM)
 280:lib/lufa/LUFA/Drivers/USB/Core/DeviceStandardReq.c **** 	  Endpoint_Write_Control_EStream_LE(DescriptorPointer, DescriptorSize);
 281:lib/lufa/LUFA/Drivers/USB/Core/DeviceStandardReq.c **** 	else
 282:lib/lufa/LUFA/Drivers/USB/Core/DeviceStandardReq.c **** 	  Endpoint_Write_Control_Stream_LE(DescriptorPointer, DescriptorSize);
 283:lib/lufa/LUFA/Drivers/USB/Core/DeviceStandardReq.c **** 	#endif
 284:lib/lufa/LUFA/Drivers/USB/Core/DeviceStandardReq.c **** 
 285:lib/lufa/LUFA/Drivers/USB/Core/DeviceStandardReq.c **** 	Endpoint_ClearOUT();
 286:lib/lufa/LUFA/Drivers/USB/Core/DeviceStandardReq.c **** }
 287:lib/lufa/LUFA/Drivers/USB/Core/DeviceStandardReq.c **** 
 288:lib/lufa/LUFA/Drivers/USB/Core/DeviceStandardReq.c **** static void USB_Device_GetStatus(void)
 142               		.loc 1 288 13 view .LVU29
 143               	.LBB180:
 289:lib/lufa/LUFA/Drivers/USB/Core/DeviceStandardReq.c **** {
 290:lib/lufa/LUFA/Drivers/USB/Core/DeviceStandardReq.c **** 	uint8_t CurrentStatus = 0;
 144               		.loc 1 290 2 view .LVU30
 145               	.LVL5:
 291:lib/lufa/LUFA/Drivers/USB/Core/DeviceStandardReq.c **** 
 292:lib/lufa/LUFA/Drivers/USB/Core/DeviceStandardReq.c **** 	switch (USB_ControlRequest.bmRequestType)
 146               		.loc 1 292 2 view .LVU31
 147               	.LBB181:
 293:lib/lufa/LUFA/Drivers/USB/Core/DeviceStandardReq.c **** 	{
 294:lib/lufa/LUFA/Drivers/USB/Core/DeviceStandardReq.c **** 		case (REQDIR_DEVICETOHOST | REQTYPE_STANDARD | REQREC_DEVICE):
 295:lib/lufa/LUFA/Drivers/USB/Core/DeviceStandardReq.c **** 		{
 296:lib/lufa/LUFA/Drivers/USB/Core/DeviceStandardReq.c **** 			#if !defined(NO_DEVICE_SELF_POWER)
 297:lib/lufa/LUFA/Drivers/USB/Core/DeviceStandardReq.c **** 			if (USB_Device_CurrentlySelfPowered)
 298:lib/lufa/LUFA/Drivers/USB/Core/DeviceStandardReq.c **** 			  CurrentStatus |= FEATURE_SELFPOWERED_ENABLED;
 299:lib/lufa/LUFA/Drivers/USB/Core/DeviceStandardReq.c **** 			#endif
 300:lib/lufa/LUFA/Drivers/USB/Core/DeviceStandardReq.c **** 
 301:lib/lufa/LUFA/Drivers/USB/Core/DeviceStandardReq.c **** 			#if !defined(NO_DEVICE_REMOTE_WAKEUP)
 302:lib/lufa/LUFA/Drivers/USB/Core/DeviceStandardReq.c **** 			if (USB_Device_RemoteWakeupEnabled)
 303:lib/lufa/LUFA/Drivers/USB/Core/DeviceStandardReq.c **** 			  CurrentStatus |= FEATURE_REMOTE_WAKEUP_ENABLED;
 304:lib/lufa/LUFA/Drivers/USB/Core/DeviceStandardReq.c **** 			#endif
 305:lib/lufa/LUFA/Drivers/USB/Core/DeviceStandardReq.c **** 			break;
 306:lib/lufa/LUFA/Drivers/USB/Core/DeviceStandardReq.c **** 		}
 307:lib/lufa/LUFA/Drivers/USB/Core/DeviceStandardReq.c **** 		case (REQDIR_DEVICETOHOST | REQTYPE_STANDARD | REQREC_ENDPOINT):
 308:lib/lufa/LUFA/Drivers/USB/Core/DeviceStandardReq.c **** 		{
 309:lib/lufa/LUFA/Drivers/USB/Core/DeviceStandardReq.c **** 			#if !defined(CONTROL_ONLY_DEVICE)
 310:lib/lufa/LUFA/Drivers/USB/Core/DeviceStandardReq.c **** 			uint8_t EndpointIndex = ((uint8_t)USB_ControlRequest.wIndex & ENDPOINT_EPNUM_MASK);
 148               		.loc 1 310 4 view .LVU32
 149               		.loc 1 310 12 is_stmt 0 view .LVU33
 150 005c 8091 0000 		lds r24,USB_ControlRequest+4
 151               	.LVL6:
 152               		.loc 1 310 12 view .LVU34
 153 0060 8F70      		andi r24,lo8(15)
 154               	.LVL7:
 311:lib/lufa/LUFA/Drivers/USB/Core/DeviceStandardReq.c **** 
 312:lib/lufa/LUFA/Drivers/USB/Core/DeviceStandardReq.c **** 			if (EndpointIndex >= ENDPOINT_TOTAL_ENDPOINTS)
 155               		.loc 1 312 4 is_stmt 1 view .LVU35
 156               		.loc 1 312 7 is_stmt 0 view .LVU36
 157 0062 8730      		cpi r24,lo8(7)
 158 0064 00F0      		brlo .+2
 159 0066 00C0      		rjmp .L3
 313:lib/lufa/LUFA/Drivers/USB/Core/DeviceStandardReq.c **** 				return;
 314:lib/lufa/LUFA/Drivers/USB/Core/DeviceStandardReq.c **** 
 315:lib/lufa/LUFA/Drivers/USB/Core/DeviceStandardReq.c **** 			Endpoint_SelectEndpoint(EndpointIndex);
 160               		.loc 1 315 4 is_stmt 1 view .LVU37
 161               	.LVL8:
 162               	.LBB182:
 163               	.LBI182:
 267:lib/lufa/LUFA/Drivers/USB/Core/AVR8/../AVR8/Endpoint_AVR8.h **** 			{
 164               		.loc 2 267 23 view .LVU38
 165               	.LBB183:
 270:lib/lufa/LUFA/Drivers/USB/Core/AVR8/../AVR8/Endpoint_AVR8.h **** 				#endif
 166               		.loc 2 270 6 view .LVU39
 270:lib/lufa/LUFA/Drivers/USB/Core/AVR8/../AVR8/Endpoint_AVR8.h **** 				#endif
 167               		.loc 2 270 12 is_stmt 0 view .LVU40
 168 0068 8093 E900 		sts 233,r24
 169               	.LVL9:
 270:lib/lufa/LUFA/Drivers/USB/Core/AVR8/../AVR8/Endpoint_AVR8.h **** 				#endif
 170               		.loc 2 270 12 view .LVU41
 171               	.LBE183:
 172               	.LBE182:
 316:lib/lufa/LUFA/Drivers/USB/Core/DeviceStandardReq.c **** 
 317:lib/lufa/LUFA/Drivers/USB/Core/DeviceStandardReq.c **** 			CurrentStatus = Endpoint_IsStalled();
 173               		.loc 1 317 4 is_stmt 1 view .LVU42
 174               	.LBB184:
 175               	.LBI184:
 511:lib/lufa/LUFA/Drivers/USB/Core/AVR8/../AVR8/Endpoint_AVR8.h **** 			{
 176               		.loc 2 511 23 view .LVU43
 177               	.LBB185:
 513:lib/lufa/LUFA/Drivers/USB/Core/AVR8/../AVR8/Endpoint_AVR8.h **** 			}
 178               		.loc 2 513 5 view .LVU44
 513:lib/lufa/LUFA/Drivers/USB/Core/AVR8/../AVR8/Endpoint_AVR8.h **** 			}
 179               		.loc 2 513 14 is_stmt 0 view .LVU45
 180 006c 8091 EB00 		lds r24,235
 181               	.LVL10:
 513:lib/lufa/LUFA/Drivers/USB/Core/AVR8/../AVR8/Endpoint_AVR8.h **** 			}
 182               		.loc 2 513 46 view .LVU46
 183 0070 85FB      		bst r24,5
 184 0072 8827      		clr r24
 185 0074 80F9      		bld r24,0
 186               	.LVL11:
 513:lib/lufa/LUFA/Drivers/USB/Core/AVR8/../AVR8/Endpoint_AVR8.h **** 			}
 187               		.loc 2 513 46 view .LVU47
 188               	.LBE185:
 189               	.LBE184:
 318:lib/lufa/LUFA/Drivers/USB/Core/DeviceStandardReq.c **** 
 319:lib/lufa/LUFA/Drivers/USB/Core/DeviceStandardReq.c **** 			Endpoint_SelectEndpoint(ENDPOINT_CONTROLEP);
 190               		.loc 1 319 4 is_stmt 1 view .LVU48
 191               	.LBB186:
 192               	.LBI186:
 267:lib/lufa/LUFA/Drivers/USB/Core/AVR8/../AVR8/Endpoint_AVR8.h **** 			{
 193               		.loc 2 267 23 view .LVU49
 194               	.LBB187:
 270:lib/lufa/LUFA/Drivers/USB/Core/AVR8/../AVR8/Endpoint_AVR8.h **** 				#endif
 195               		.loc 2 270 6 view .LVU50
 270:lib/lufa/LUFA/Drivers/USB/Core/AVR8/../AVR8/Endpoint_AVR8.h **** 				#endif
 196               		.loc 2 270 12 is_stmt 0 view .LVU51
 197 0076 1092 E900 		sts 233,__zero_reg__
 198               	.LVL12:
 270:lib/lufa/LUFA/Drivers/USB/Core/AVR8/../AVR8/Endpoint_AVR8.h **** 				#endif
 199               		.loc 2 270 12 view .LVU52
 200 007a 00C0      		rjmp .L13
 201               	.LVL13:
 202               	.L11:
 270:lib/lufa/LUFA/Drivers/USB/Core/AVR8/../AVR8/Endpoint_AVR8.h **** 				#endif
 203               		.loc 2 270 12 view .LVU53
 204               	.LBE187:
 205               	.LBE186:
 206               	.LBE181:
 297:lib/lufa/LUFA/Drivers/USB/Core/DeviceStandardReq.c **** 			  CurrentStatus |= FEATURE_SELFPOWERED_ENABLED;
 207               		.loc 1 297 4 is_stmt 1 view .LVU54
 290:lib/lufa/LUFA/Drivers/USB/Core/DeviceStandardReq.c **** 
 208               		.loc 1 290 10 is_stmt 0 view .LVU55
 209 007c 8091 0000 		lds r24,USB_Device_CurrentlySelfPowered
 210               	.LVL14:
 302:lib/lufa/LUFA/Drivers/USB/Core/DeviceStandardReq.c **** 			  CurrentStatus |= FEATURE_REMOTE_WAKEUP_ENABLED;
 211               		.loc 1 302 4 is_stmt 1 view .LVU56
 302:lib/lufa/LUFA/Drivers/USB/Core/DeviceStandardReq.c **** 			  CurrentStatus |= FEATURE_REMOTE_WAKEUP_ENABLED;
 212               		.loc 1 302 7 is_stmt 0 view .LVU57
 213 0080 9091 0000 		lds r25,USB_Device_RemoteWakeupEnabled
 214 0084 9111      		cpse r25,__zero_reg__
 303:lib/lufa/LUFA/Drivers/USB/Core/DeviceStandardReq.c **** 			#endif
 215               		.loc 1 303 6 is_stmt 1 view .LVU58
 303:lib/lufa/LUFA/Drivers/USB/Core/DeviceStandardReq.c **** 			#endif
 216               		.loc 1 303 20 is_stmt 0 view .LVU59
 217 0086 8260      		ori r24,lo8(2)
 218               	.LVL15:
 219               	.L13:
 320:lib/lufa/LUFA/Drivers/USB/Core/DeviceStandardReq.c **** 			#endif
 321:lib/lufa/LUFA/Drivers/USB/Core/DeviceStandardReq.c **** 
 322:lib/lufa/LUFA/Drivers/USB/Core/DeviceStandardReq.c **** 			break;
 323:lib/lufa/LUFA/Drivers/USB/Core/DeviceStandardReq.c **** 		}
 324:lib/lufa/LUFA/Drivers/USB/Core/DeviceStandardReq.c **** 		default:
 325:lib/lufa/LUFA/Drivers/USB/Core/DeviceStandardReq.c **** 			return;
 326:lib/lufa/LUFA/Drivers/USB/Core/DeviceStandardReq.c **** 	}
 327:lib/lufa/LUFA/Drivers/USB/Core/DeviceStandardReq.c **** 
 328:lib/lufa/LUFA/Drivers/USB/Core/DeviceStandardReq.c **** 	Endpoint_ClearSETUP();
 220               		.loc 1 328 2 is_stmt 1 view .LVU60
 221               	.LBB188:
 222               	.LBI188:
 442:lib/lufa/LUFA/Drivers/USB/Core/AVR8/../AVR8/Endpoint_AVR8.h **** 			{
 223               		.loc 2 442 23 view .LVU61
 224               	.LBB189:
 444:lib/lufa/LUFA/Drivers/USB/Core/AVR8/../AVR8/Endpoint_AVR8.h **** 			}
 225               		.loc 2 444 5 view .LVU62
 444:lib/lufa/LUFA/Drivers/USB/Core/AVR8/../AVR8/Endpoint_AVR8.h **** 			}
 226               		.loc 2 444 12 is_stmt 0 view .LVU63
 227 0088 9091 E800 		lds r25,232
 228 008c 977F      		andi r25,lo8(-9)
 229 008e 9093 E800 		sts 232,r25
 230               	.LBE189:
 231               	.LBE188:
 329:lib/lufa/LUFA/Drivers/USB/Core/DeviceStandardReq.c **** 
 330:lib/lufa/LUFA/Drivers/USB/Core/DeviceStandardReq.c **** 	Endpoint_Write_16_LE(CurrentStatus);
 232               		.loc 1 330 2 is_stmt 1 view .LVU64
 233               	.LVL16:
 234               	.LBB190:
 235               	.LBI190:
 543:lib/lufa/LUFA/Drivers/USB/Core/AVR8/../AVR8/Endpoint_AVR8.h **** 			}
 544:lib/lufa/LUFA/Drivers/USB/Core/AVR8/../AVR8/Endpoint_AVR8.h **** 
 545:lib/lufa/LUFA/Drivers/USB/Core/AVR8/../AVR8/Endpoint_AVR8.h **** 			/** Writes one byte to the currently selected endpoint's bank, for IN direction endpoints.
 546:lib/lufa/LUFA/Drivers/USB/Core/AVR8/../AVR8/Endpoint_AVR8.h **** 			 *
 547:lib/lufa/LUFA/Drivers/USB/Core/AVR8/../AVR8/Endpoint_AVR8.h **** 			 *  \ingroup Group_EndpointPrimitiveRW_AVR8
 548:lib/lufa/LUFA/Drivers/USB/Core/AVR8/../AVR8/Endpoint_AVR8.h **** 			 *
 549:lib/lufa/LUFA/Drivers/USB/Core/AVR8/../AVR8/Endpoint_AVR8.h **** 			 *  \param[in] Data  Data to write into the the currently selected endpoint's FIFO buffer.
 550:lib/lufa/LUFA/Drivers/USB/Core/AVR8/../AVR8/Endpoint_AVR8.h **** 			 */
 551:lib/lufa/LUFA/Drivers/USB/Core/AVR8/../AVR8/Endpoint_AVR8.h **** 			static inline void Endpoint_Write_8(const uint8_t Data) ATTR_ALWAYS_INLINE;
 552:lib/lufa/LUFA/Drivers/USB/Core/AVR8/../AVR8/Endpoint_AVR8.h **** 			static inline void Endpoint_Write_8(const uint8_t Data)
 553:lib/lufa/LUFA/Drivers/USB/Core/AVR8/../AVR8/Endpoint_AVR8.h **** 			{
 554:lib/lufa/LUFA/Drivers/USB/Core/AVR8/../AVR8/Endpoint_AVR8.h **** 				UEDATX = Data;
 555:lib/lufa/LUFA/Drivers/USB/Core/AVR8/../AVR8/Endpoint_AVR8.h **** 			}
 556:lib/lufa/LUFA/Drivers/USB/Core/AVR8/../AVR8/Endpoint_AVR8.h **** 
 557:lib/lufa/LUFA/Drivers/USB/Core/AVR8/../AVR8/Endpoint_AVR8.h **** 			/** Discards one byte from the currently selected endpoint's bank, for OUT direction endpoints.
 558:lib/lufa/LUFA/Drivers/USB/Core/AVR8/../AVR8/Endpoint_AVR8.h **** 			 *
 559:lib/lufa/LUFA/Drivers/USB/Core/AVR8/../AVR8/Endpoint_AVR8.h **** 			 *  \ingroup Group_EndpointPrimitiveRW_AVR8
 560:lib/lufa/LUFA/Drivers/USB/Core/AVR8/../AVR8/Endpoint_AVR8.h **** 			 */
 561:lib/lufa/LUFA/Drivers/USB/Core/AVR8/../AVR8/Endpoint_AVR8.h **** 			static inline void Endpoint_Discard_8(void) ATTR_ALWAYS_INLINE;
 562:lib/lufa/LUFA/Drivers/USB/Core/AVR8/../AVR8/Endpoint_AVR8.h **** 			static inline void Endpoint_Discard_8(void)
 563:lib/lufa/LUFA/Drivers/USB/Core/AVR8/../AVR8/Endpoint_AVR8.h **** 			{
 564:lib/lufa/LUFA/Drivers/USB/Core/AVR8/../AVR8/Endpoint_AVR8.h **** 				uint8_t Dummy;
 565:lib/lufa/LUFA/Drivers/USB/Core/AVR8/../AVR8/Endpoint_AVR8.h **** 
 566:lib/lufa/LUFA/Drivers/USB/Core/AVR8/../AVR8/Endpoint_AVR8.h **** 				Dummy = UEDATX;
 567:lib/lufa/LUFA/Drivers/USB/Core/AVR8/../AVR8/Endpoint_AVR8.h **** 
 568:lib/lufa/LUFA/Drivers/USB/Core/AVR8/../AVR8/Endpoint_AVR8.h **** 				(void)Dummy;
 569:lib/lufa/LUFA/Drivers/USB/Core/AVR8/../AVR8/Endpoint_AVR8.h **** 			}
 570:lib/lufa/LUFA/Drivers/USB/Core/AVR8/../AVR8/Endpoint_AVR8.h **** 
 571:lib/lufa/LUFA/Drivers/USB/Core/AVR8/../AVR8/Endpoint_AVR8.h **** 			/** Reads two bytes from the currently selected endpoint's bank in little endian format, for OUT
 572:lib/lufa/LUFA/Drivers/USB/Core/AVR8/../AVR8/Endpoint_AVR8.h **** 			 *  direction endpoints.
 573:lib/lufa/LUFA/Drivers/USB/Core/AVR8/../AVR8/Endpoint_AVR8.h **** 			 *
 574:lib/lufa/LUFA/Drivers/USB/Core/AVR8/../AVR8/Endpoint_AVR8.h **** 			 *  \ingroup Group_EndpointPrimitiveRW_AVR8
 575:lib/lufa/LUFA/Drivers/USB/Core/AVR8/../AVR8/Endpoint_AVR8.h **** 			 *
 576:lib/lufa/LUFA/Drivers/USB/Core/AVR8/../AVR8/Endpoint_AVR8.h **** 			 *  \return Next two bytes in the currently selected endpoint's FIFO buffer.
 577:lib/lufa/LUFA/Drivers/USB/Core/AVR8/../AVR8/Endpoint_AVR8.h **** 			 */
 578:lib/lufa/LUFA/Drivers/USB/Core/AVR8/../AVR8/Endpoint_AVR8.h **** 			static inline uint16_t Endpoint_Read_16_LE(void) ATTR_WARN_UNUSED_RESULT ATTR_ALWAYS_INLINE;
 579:lib/lufa/LUFA/Drivers/USB/Core/AVR8/../AVR8/Endpoint_AVR8.h **** 			static inline uint16_t Endpoint_Read_16_LE(void)
 580:lib/lufa/LUFA/Drivers/USB/Core/AVR8/../AVR8/Endpoint_AVR8.h **** 			{
 581:lib/lufa/LUFA/Drivers/USB/Core/AVR8/../AVR8/Endpoint_AVR8.h **** 				union
 582:lib/lufa/LUFA/Drivers/USB/Core/AVR8/../AVR8/Endpoint_AVR8.h **** 				{
 583:lib/lufa/LUFA/Drivers/USB/Core/AVR8/../AVR8/Endpoint_AVR8.h **** 					uint16_t Value;
 584:lib/lufa/LUFA/Drivers/USB/Core/AVR8/../AVR8/Endpoint_AVR8.h **** 					uint8_t  Bytes[2];
 585:lib/lufa/LUFA/Drivers/USB/Core/AVR8/../AVR8/Endpoint_AVR8.h **** 				} Data;
 586:lib/lufa/LUFA/Drivers/USB/Core/AVR8/../AVR8/Endpoint_AVR8.h **** 
 587:lib/lufa/LUFA/Drivers/USB/Core/AVR8/../AVR8/Endpoint_AVR8.h **** 				Data.Bytes[0] = UEDATX;
 588:lib/lufa/LUFA/Drivers/USB/Core/AVR8/../AVR8/Endpoint_AVR8.h **** 				Data.Bytes[1] = UEDATX;
 589:lib/lufa/LUFA/Drivers/USB/Core/AVR8/../AVR8/Endpoint_AVR8.h **** 
 590:lib/lufa/LUFA/Drivers/USB/Core/AVR8/../AVR8/Endpoint_AVR8.h **** 				return Data.Value;
 591:lib/lufa/LUFA/Drivers/USB/Core/AVR8/../AVR8/Endpoint_AVR8.h **** 			}
 592:lib/lufa/LUFA/Drivers/USB/Core/AVR8/../AVR8/Endpoint_AVR8.h **** 
 593:lib/lufa/LUFA/Drivers/USB/Core/AVR8/../AVR8/Endpoint_AVR8.h **** 			/** Reads two bytes from the currently selected endpoint's bank in big endian format, for OUT
 594:lib/lufa/LUFA/Drivers/USB/Core/AVR8/../AVR8/Endpoint_AVR8.h **** 			 *  direction endpoints.
 595:lib/lufa/LUFA/Drivers/USB/Core/AVR8/../AVR8/Endpoint_AVR8.h **** 			 *
 596:lib/lufa/LUFA/Drivers/USB/Core/AVR8/../AVR8/Endpoint_AVR8.h **** 			 *  \ingroup Group_EndpointPrimitiveRW_AVR8
 597:lib/lufa/LUFA/Drivers/USB/Core/AVR8/../AVR8/Endpoint_AVR8.h **** 			 *
 598:lib/lufa/LUFA/Drivers/USB/Core/AVR8/../AVR8/Endpoint_AVR8.h **** 			 *  \return Next two bytes in the currently selected endpoint's FIFO buffer.
 599:lib/lufa/LUFA/Drivers/USB/Core/AVR8/../AVR8/Endpoint_AVR8.h **** 			 */
 600:lib/lufa/LUFA/Drivers/USB/Core/AVR8/../AVR8/Endpoint_AVR8.h **** 			static inline uint16_t Endpoint_Read_16_BE(void) ATTR_WARN_UNUSED_RESULT ATTR_ALWAYS_INLINE;
 601:lib/lufa/LUFA/Drivers/USB/Core/AVR8/../AVR8/Endpoint_AVR8.h **** 			static inline uint16_t Endpoint_Read_16_BE(void)
 602:lib/lufa/LUFA/Drivers/USB/Core/AVR8/../AVR8/Endpoint_AVR8.h **** 			{
 603:lib/lufa/LUFA/Drivers/USB/Core/AVR8/../AVR8/Endpoint_AVR8.h **** 				union
 604:lib/lufa/LUFA/Drivers/USB/Core/AVR8/../AVR8/Endpoint_AVR8.h **** 				{
 605:lib/lufa/LUFA/Drivers/USB/Core/AVR8/../AVR8/Endpoint_AVR8.h **** 					uint16_t Value;
 606:lib/lufa/LUFA/Drivers/USB/Core/AVR8/../AVR8/Endpoint_AVR8.h **** 					uint8_t  Bytes[2];
 607:lib/lufa/LUFA/Drivers/USB/Core/AVR8/../AVR8/Endpoint_AVR8.h **** 				} Data;
 608:lib/lufa/LUFA/Drivers/USB/Core/AVR8/../AVR8/Endpoint_AVR8.h **** 
 609:lib/lufa/LUFA/Drivers/USB/Core/AVR8/../AVR8/Endpoint_AVR8.h **** 				Data.Bytes[1] = UEDATX;
 610:lib/lufa/LUFA/Drivers/USB/Core/AVR8/../AVR8/Endpoint_AVR8.h **** 				Data.Bytes[0] = UEDATX;
 611:lib/lufa/LUFA/Drivers/USB/Core/AVR8/../AVR8/Endpoint_AVR8.h **** 
 612:lib/lufa/LUFA/Drivers/USB/Core/AVR8/../AVR8/Endpoint_AVR8.h **** 				return Data.Value;
 613:lib/lufa/LUFA/Drivers/USB/Core/AVR8/../AVR8/Endpoint_AVR8.h **** 			}
 614:lib/lufa/LUFA/Drivers/USB/Core/AVR8/../AVR8/Endpoint_AVR8.h **** 
 615:lib/lufa/LUFA/Drivers/USB/Core/AVR8/../AVR8/Endpoint_AVR8.h **** 			/** Writes two bytes to the currently selected endpoint's bank in little endian format, for IN
 616:lib/lufa/LUFA/Drivers/USB/Core/AVR8/../AVR8/Endpoint_AVR8.h **** 			 *  direction endpoints.
 617:lib/lufa/LUFA/Drivers/USB/Core/AVR8/../AVR8/Endpoint_AVR8.h **** 			 *
 618:lib/lufa/LUFA/Drivers/USB/Core/AVR8/../AVR8/Endpoint_AVR8.h **** 			 *  \ingroup Group_EndpointPrimitiveRW_AVR8
 619:lib/lufa/LUFA/Drivers/USB/Core/AVR8/../AVR8/Endpoint_AVR8.h **** 			 *
 620:lib/lufa/LUFA/Drivers/USB/Core/AVR8/../AVR8/Endpoint_AVR8.h **** 			 *  \param[in] Data  Data to write to the currently selected endpoint's FIFO buffer.
 621:lib/lufa/LUFA/Drivers/USB/Core/AVR8/../AVR8/Endpoint_AVR8.h **** 			 */
 622:lib/lufa/LUFA/Drivers/USB/Core/AVR8/../AVR8/Endpoint_AVR8.h **** 			static inline void Endpoint_Write_16_LE(const uint16_t Data) ATTR_ALWAYS_INLINE;
 623:lib/lufa/LUFA/Drivers/USB/Core/AVR8/../AVR8/Endpoint_AVR8.h **** 			static inline void Endpoint_Write_16_LE(const uint16_t Data)
 236               		.loc 2 623 23 view .LVU65
 237               	.LBB191:
 624:lib/lufa/LUFA/Drivers/USB/Core/AVR8/../AVR8/Endpoint_AVR8.h **** 			{
 625:lib/lufa/LUFA/Drivers/USB/Core/AVR8/../AVR8/Endpoint_AVR8.h **** 				UEDATX = (Data & 0xFF);
 238               		.loc 2 625 5 view .LVU66
 239               		.loc 2 625 12 is_stmt 0 view .LVU67
 240 0092 8093 F100 		sts 241,r24
 626:lib/lufa/LUFA/Drivers/USB/Core/AVR8/../AVR8/Endpoint_AVR8.h **** 				UEDATX = (Data >> 8);
 241               		.loc 2 626 5 is_stmt 1 view .LVU68
 242               		.loc 2 626 12 is_stmt 0 view .LVU69
 243 0096 1092 F100 		sts 241,__zero_reg__
 244               	.LVL17:
 245               		.loc 2 626 12 view .LVU70
 246               	.LBE191:
 247               	.LBE190:
 331:lib/lufa/LUFA/Drivers/USB/Core/DeviceStandardReq.c **** 	Endpoint_ClearIN();
 248               		.loc 1 331 2 is_stmt 1 view .LVU71
 249               	.LBB192:
 250               	.LBI192:
 453:lib/lufa/LUFA/Drivers/USB/Core/AVR8/../AVR8/Endpoint_AVR8.h **** 			{
 251               		.loc 2 453 23 view .LVU72
 252               	.LBB193:
 456:lib/lufa/LUFA/Drivers/USB/Core/AVR8/../AVR8/Endpoint_AVR8.h **** 				#else
 253               		.loc 2 456 6 view .LVU73
 254               	.L62:
 456:lib/lufa/LUFA/Drivers/USB/Core/AVR8/../AVR8/Endpoint_AVR8.h **** 				#else
 255               		.loc 2 456 6 is_stmt 0 view .LVU74
 256               	.LBE193:
 257               	.LBE192:
 258               	.LBE180:
 259               	.LBE179:
 260               	.LBB194:
 261               	.LBB195:
 213:lib/lufa/LUFA/Drivers/USB/Core/DeviceStandardReq.c **** 
 262               		.loc 1 213 2 is_stmt 1 view .LVU75
 263               	.LBB196:
 264               	.LBI196:
 453:lib/lufa/LUFA/Drivers/USB/Core/AVR8/../AVR8/Endpoint_AVR8.h **** 			{
 265               		.loc 2 453 23 view .LVU76
 266               	.LBB197:
 456:lib/lufa/LUFA/Drivers/USB/Core/AVR8/../AVR8/Endpoint_AVR8.h **** 				#else
 267               		.loc 2 456 6 view .LVU77
 456:lib/lufa/LUFA/Drivers/USB/Core/AVR8/../AVR8/Endpoint_AVR8.h **** 				#else
 268               		.loc 2 456 13 is_stmt 0 view .LVU78
 269 009a 8091 E800 		lds r24,232
 270 009e 8E77      		andi r24,lo8(126)
 271 00a0 00C0      		rjmp .L60
 272               	.LVL18:
 273               	.L9:
 456:lib/lufa/LUFA/Drivers/USB/Core/AVR8/../AVR8/Endpoint_AVR8.h **** 				#else
 274               		.loc 2 456 13 view .LVU79
 275               	.LBE197:
 276               	.LBE196:
 277               	.LBE195:
 278               	.LBE194:
  82:lib/lufa/LUFA/Drivers/USB/Core/DeviceStandardReq.c **** 					(bmRequestType == (REQDIR_HOSTTODEVICE | REQTYPE_STANDARD | REQREC_ENDPOINT)))
 279               		.loc 1 82 5 is_stmt 1 view .LVU80
  82:lib/lufa/LUFA/Drivers/USB/Core/DeviceStandardReq.c **** 					(bmRequestType == (REQDIR_HOSTTODEVICE | REQTYPE_STANDARD | REQREC_ENDPOINT)))
 280               		.loc 1 82 8 is_stmt 0 view .LVU81
 281 00a2 8823      		tst r24
 282 00a4 01F4      		brne .+2
 283 00a6 00C0      		rjmp .L14
  82:lib/lufa/LUFA/Drivers/USB/Core/DeviceStandardReq.c **** 					(bmRequestType == (REQDIR_HOSTTODEVICE | REQTYPE_STANDARD | REQREC_ENDPOINT)))
 284               		.loc 1 82 85 discriminator 1 view .LVU82
 285 00a8 8230      		cpi r24,lo8(2)
 286 00aa 01F0      		breq .+2
 287 00ac 00C0      		rjmp .L3
  85:lib/lufa/LUFA/Drivers/USB/Core/DeviceStandardReq.c **** 				}
 288               		.loc 1 85 6 is_stmt 1 view .LVU83
 289               	.LBB203:
 290               	.LBI203:
 332:lib/lufa/LUFA/Drivers/USB/Core/DeviceStandardReq.c **** 
 333:lib/lufa/LUFA/Drivers/USB/Core/DeviceStandardReq.c **** 	Endpoint_ClearStatusStage();
 334:lib/lufa/LUFA/Drivers/USB/Core/DeviceStandardReq.c **** }
 335:lib/lufa/LUFA/Drivers/USB/Core/DeviceStandardReq.c **** 
 336:lib/lufa/LUFA/Drivers/USB/Core/DeviceStandardReq.c **** static void USB_Device_ClearSetFeature(void)
 291               		.loc 1 336 13 view .LVU84
 292               	.LBB204:
 337:lib/lufa/LUFA/Drivers/USB/Core/DeviceStandardReq.c **** {
 338:lib/lufa/LUFA/Drivers/USB/Core/DeviceStandardReq.c **** 	switch (USB_ControlRequest.bmRequestType & CONTROL_REQTYPE_RECIPIENT)
 293               		.loc 1 338 2 view .LVU85
 339:lib/lufa/LUFA/Drivers/USB/Core/DeviceStandardReq.c **** 	{
 340:lib/lufa/LUFA/Drivers/USB/Core/DeviceStandardReq.c **** 		#if !defined(NO_DEVICE_REMOTE_WAKEUP)
 341:lib/lufa/LUFA/Drivers/USB/Core/DeviceStandardReq.c **** 		case REQREC_DEVICE:
 342:lib/lufa/LUFA/Drivers/USB/Core/DeviceStandardReq.c **** 		{
 343:lib/lufa/LUFA/Drivers/USB/Core/DeviceStandardReq.c **** 			if ((uint8_t)USB_ControlRequest.wValue == FEATURE_SEL_DeviceRemoteWakeup)
 344:lib/lufa/LUFA/Drivers/USB/Core/DeviceStandardReq.c **** 			  USB_Device_RemoteWakeupEnabled = (USB_ControlRequest.bRequest == REQ_SetFeature);
 345:lib/lufa/LUFA/Drivers/USB/Core/DeviceStandardReq.c **** 			else
 346:lib/lufa/LUFA/Drivers/USB/Core/DeviceStandardReq.c **** 			  return;
 347:lib/lufa/LUFA/Drivers/USB/Core/DeviceStandardReq.c **** 
 348:lib/lufa/LUFA/Drivers/USB/Core/DeviceStandardReq.c **** 			break;
 349:lib/lufa/LUFA/Drivers/USB/Core/DeviceStandardReq.c **** 		}
 350:lib/lufa/LUFA/Drivers/USB/Core/DeviceStandardReq.c **** 		#endif
 351:lib/lufa/LUFA/Drivers/USB/Core/DeviceStandardReq.c **** 		#if !defined(CONTROL_ONLY_DEVICE)
 352:lib/lufa/LUFA/Drivers/USB/Core/DeviceStandardReq.c **** 		case REQREC_ENDPOINT:
 353:lib/lufa/LUFA/Drivers/USB/Core/DeviceStandardReq.c **** 		{
 354:lib/lufa/LUFA/Drivers/USB/Core/DeviceStandardReq.c **** 			if ((uint8_t)USB_ControlRequest.wValue == FEATURE_SEL_EndpointHalt)
 294               		.loc 1 354 4 view .LVU86
 295               		.loc 1 354 7 is_stmt 0 view .LVU87
 296 00ae 8091 0000 		lds r24,USB_ControlRequest+2
 297               	.LVL19:
 298               		.loc 1 354 7 view .LVU88
 299 00b2 8111      		cpse r24,__zero_reg__
 300 00b4 00C0      		rjmp .L17
 301               	.LBB205:
 355:lib/lufa/LUFA/Drivers/USB/Core/DeviceStandardReq.c **** 			{
 356:lib/lufa/LUFA/Drivers/USB/Core/DeviceStandardReq.c **** 				uint8_t EndpointIndex = ((uint8_t)USB_ControlRequest.wIndex & ENDPOINT_EPNUM_MASK);
 302               		.loc 1 356 5 is_stmt 1 view .LVU89
 303               		.loc 1 356 13 is_stmt 0 view .LVU90
 304 00b6 8091 0000 		lds r24,USB_ControlRequest+4
 305 00ba 8F70      		andi r24,lo8(15)
 306               	.LVL20:
 357:lib/lufa/LUFA/Drivers/USB/Core/DeviceStandardReq.c **** 
 358:lib/lufa/LUFA/Drivers/USB/Core/DeviceStandardReq.c **** 				if (EndpointIndex == ENDPOINT_CONTROLEP || EndpointIndex >= ENDPOINT_TOTAL_ENDPOINTS)
 307               		.loc 1 358 5 is_stmt 1 view .LVU91
 308               		.loc 1 358 45 is_stmt 0 view .LVU92
 309 00bc 2FEF      		ldi r18,lo8(-1)
 310 00be 280F      		add r18,r24
 311               		.loc 1 358 8 view .LVU93
 312 00c0 2630      		cpi r18,lo8(6)
 313 00c2 00F0      		brlo .+2
 314 00c4 00C0      		rjmp .L3
 359:lib/lufa/LUFA/Drivers/USB/Core/DeviceStandardReq.c **** 				  return;
 360:lib/lufa/LUFA/Drivers/USB/Core/DeviceStandardReq.c **** 
 361:lib/lufa/LUFA/Drivers/USB/Core/DeviceStandardReq.c **** 				Endpoint_SelectEndpoint(EndpointIndex);
 315               		.loc 1 361 5 is_stmt 1 view .LVU94
 316               	.LVL21:
 317               	.LBB206:
 318               	.LBI206:
 267:lib/lufa/LUFA/Drivers/USB/Core/AVR8/../AVR8/Endpoint_AVR8.h **** 			{
 319               		.loc 2 267 23 view .LVU95
 320               	.LBB207:
 270:lib/lufa/LUFA/Drivers/USB/Core/AVR8/../AVR8/Endpoint_AVR8.h **** 				#endif
 321               		.loc 2 270 6 view .LVU96
 270:lib/lufa/LUFA/Drivers/USB/Core/AVR8/../AVR8/Endpoint_AVR8.h **** 				#endif
 322               		.loc 2 270 12 is_stmt 0 view .LVU97
 323 00c6 8093 E900 		sts 233,r24
 324               	.LVL22:
 270:lib/lufa/LUFA/Drivers/USB/Core/AVR8/../AVR8/Endpoint_AVR8.h **** 				#endif
 325               		.loc 2 270 12 view .LVU98
 326               	.LBE207:
 327               	.LBE206:
 362:lib/lufa/LUFA/Drivers/USB/Core/DeviceStandardReq.c **** 
 363:lib/lufa/LUFA/Drivers/USB/Core/DeviceStandardReq.c **** 				if (Endpoint_IsEnabled())
 328               		.loc 1 363 5 is_stmt 1 view .LVU99
 329               	.LBB208:
 330               	.LBI208:
 311:lib/lufa/LUFA/Drivers/USB/Core/AVR8/../AVR8/Endpoint_AVR8.h **** 			{
 331               		.loc 2 311 23 view .LVU100
 332               	.LBB209:
 313:lib/lufa/LUFA/Drivers/USB/Core/AVR8/../AVR8/Endpoint_AVR8.h **** 			}
 333               		.loc 2 313 5 view .LVU101
 313:lib/lufa/LUFA/Drivers/USB/Core/AVR8/../AVR8/Endpoint_AVR8.h **** 			}
 334               		.loc 2 313 14 is_stmt 0 view .LVU102
 335 00ca 2091 EB00 		lds r18,235
 336               	.LBE209:
 337               	.LBE208:
 338               		.loc 1 363 8 view .LVU103
 339 00ce 20FF      		sbrs r18,0
 340 00d0 00C0      		rjmp .L17
 364:lib/lufa/LUFA/Drivers/USB/Core/DeviceStandardReq.c **** 				{
 365:lib/lufa/LUFA/Drivers/USB/Core/DeviceStandardReq.c **** 					if (USB_ControlRequest.bRequest == REQ_SetFeature)
 341               		.loc 1 365 6 is_stmt 1 view .LVU104
 342               		.loc 1 365 9 is_stmt 0 view .LVU105
 343 00d2 9330      		cpi r25,lo8(3)
 344 00d4 01F4      		brne .L19
 366:lib/lufa/LUFA/Drivers/USB/Core/DeviceStandardReq.c **** 					{
 367:lib/lufa/LUFA/Drivers/USB/Core/DeviceStandardReq.c **** 						Endpoint_StallTransaction();
 345               		.loc 1 367 7 is_stmt 1 view .LVU106
 346               	.LBB210:
 347               	.LBI210:
 489:lib/lufa/LUFA/Drivers/USB/Core/AVR8/../AVR8/Endpoint_AVR8.h **** 			{
 348               		.loc 2 489 23 view .LVU107
 349               	.LBB211:
 491:lib/lufa/LUFA/Drivers/USB/Core/AVR8/../AVR8/Endpoint_AVR8.h **** 			}
 350               		.loc 2 491 5 view .LVU108
 491:lib/lufa/LUFA/Drivers/USB/Core/AVR8/../AVR8/Endpoint_AVR8.h **** 			}
 351               		.loc 2 491 12 is_stmt 0 view .LVU109
 352 00d6 8091 EB00 		lds r24,235
 353               	.LVL23:
 491:lib/lufa/LUFA/Drivers/USB/Core/AVR8/../AVR8/Endpoint_AVR8.h **** 			}
 354               		.loc 2 491 12 view .LVU110
 355 00da 8062      		ori r24,lo8(32)
 356               	.LVL24:
 357               	.L59:
 491:lib/lufa/LUFA/Drivers/USB/Core/AVR8/../AVR8/Endpoint_AVR8.h **** 			}
 358               		.loc 2 491 12 view .LVU111
 359               	.LBE211:
 360               	.LBE210:
 361               	.LBB212:
 362               	.LBB213:
 520:lib/lufa/LUFA/Drivers/USB/Core/AVR8/../AVR8/Endpoint_AVR8.h **** 			}
 363               		.loc 2 520 12 view .LVU112
 364 00dc 8093 EB00 		sts 235,r24
 365 00e0 00C0      		rjmp .L17
 366               	.LVL25:
 367               	.L19:
 520:lib/lufa/LUFA/Drivers/USB/Core/AVR8/../AVR8/Endpoint_AVR8.h **** 			}
 368               		.loc 2 520 12 view .LVU113
 369               	.LBE213:
 370               	.LBE212:
 368:lib/lufa/LUFA/Drivers/USB/Core/DeviceStandardReq.c **** 					}
 369:lib/lufa/LUFA/Drivers/USB/Core/DeviceStandardReq.c **** 					else
 370:lib/lufa/LUFA/Drivers/USB/Core/DeviceStandardReq.c **** 					{
 371:lib/lufa/LUFA/Drivers/USB/Core/DeviceStandardReq.c **** 						Endpoint_ClearStall();
 371               		.loc 1 371 7 is_stmt 1 view .LVU114
 372               	.LBB215:
 373               	.LBI215:
 499:lib/lufa/LUFA/Drivers/USB/Core/AVR8/../AVR8/Endpoint_AVR8.h **** 			{
 374               		.loc 2 499 23 view .LVU115
 375               	.LBB216:
 501:lib/lufa/LUFA/Drivers/USB/Core/AVR8/../AVR8/Endpoint_AVR8.h **** 			}
 376               		.loc 2 501 5 view .LVU116
 501:lib/lufa/LUFA/Drivers/USB/Core/AVR8/../AVR8/Endpoint_AVR8.h **** 			}
 377               		.loc 2 501 12 is_stmt 0 view .LVU117
 378 00e2 9091 EB00 		lds r25,235
 379 00e6 9061      		ori r25,lo8(16)
 380 00e8 9093 EB00 		sts 235,r25
 381               	.LBE216:
 382               	.LBE215:
 372:lib/lufa/LUFA/Drivers/USB/Core/DeviceStandardReq.c **** 						Endpoint_ResetEndpoint(EndpointIndex);
 383               		.loc 1 372 7 is_stmt 1 view .LVU118
 384               	.LVL26:
 385               	.LBB217:
 386               	.LBI217:
 280:lib/lufa/LUFA/Drivers/USB/Core/AVR8/../AVR8/Endpoint_AVR8.h **** 			{
 387               		.loc 2 280 23 view .LVU119
 388               	.LBB218:
 282:lib/lufa/LUFA/Drivers/USB/Core/AVR8/../AVR8/Endpoint_AVR8.h **** 				UERST = 0;
 389               		.loc 2 282 5 view .LVU120
 282:lib/lufa/LUFA/Drivers/USB/Core/AVR8/../AVR8/Endpoint_AVR8.h **** 				UERST = 0;
 390               		.loc 2 282 16 is_stmt 0 view .LVU121
 391 00ec 21E0      		ldi r18,lo8(1)
 392 00ee 30E0      		ldi r19,0
 393 00f0 00C0      		rjmp 2f
 394               		1:
 395 00f2 220F      		lsl r18
 396               		2:
 397 00f4 8A95      		dec r24
 398 00f6 02F4      		brpl 1b
 282:lib/lufa/LUFA/Drivers/USB/Core/AVR8/../AVR8/Endpoint_AVR8.h **** 				UERST = 0;
 399               		.loc 2 282 11 view .LVU122
 400 00f8 2093 EA00 		sts 234,r18
 283:lib/lufa/LUFA/Drivers/USB/Core/AVR8/../AVR8/Endpoint_AVR8.h **** 			}
 401               		.loc 2 283 5 is_stmt 1 view .LVU123
 283:lib/lufa/LUFA/Drivers/USB/Core/AVR8/../AVR8/Endpoint_AVR8.h **** 			}
 402               		.loc 2 283 11 is_stmt 0 view .LVU124
 403 00fc 1092 EA00 		sts 234,__zero_reg__
 404               	.LVL27:
 283:lib/lufa/LUFA/Drivers/USB/Core/AVR8/../AVR8/Endpoint_AVR8.h **** 			}
 405               		.loc 2 283 11 view .LVU125
 406               	.LBE218:
 407               	.LBE217:
 373:lib/lufa/LUFA/Drivers/USB/Core/DeviceStandardReq.c **** 						Endpoint_ResetDataToggle();
 408               		.loc 1 373 7 is_stmt 1 view .LVU126
 409               	.LBB219:
 410               	.LBI212:
 518:lib/lufa/LUFA/Drivers/USB/Core/AVR8/../AVR8/Endpoint_AVR8.h **** 			{
 411               		.loc 2 518 23 view .LVU127
 412               	.LBB214:
 520:lib/lufa/LUFA/Drivers/USB/Core/AVR8/../AVR8/Endpoint_AVR8.h **** 			}
 413               		.loc 2 520 5 view .LVU128
 520:lib/lufa/LUFA/Drivers/USB/Core/AVR8/../AVR8/Endpoint_AVR8.h **** 			}
 414               		.loc 2 520 12 is_stmt 0 view .LVU129
 415 0100 8091 EB00 		lds r24,235
 416               	.LVL28:
 520:lib/lufa/LUFA/Drivers/USB/Core/AVR8/../AVR8/Endpoint_AVR8.h **** 			}
 417               		.loc 2 520 12 view .LVU130
 418 0104 8860      		ori r24,lo8(8)
 419 0106 00C0      		rjmp .L59
 420               	.LVL29:
 421               	.L8:
 520:lib/lufa/LUFA/Drivers/USB/Core/AVR8/../AVR8/Endpoint_AVR8.h **** 			}
 422               		.loc 2 520 12 view .LVU131
 423               	.LBE214:
 424               	.LBE219:
 425               	.LBE205:
 426               	.LBE204:
 427               	.LBE203:
  90:lib/lufa/LUFA/Drivers/USB/Core/DeviceStandardReq.c **** 				  USB_Device_SetAddress();
 428               		.loc 1 90 5 is_stmt 1 view .LVU132
  90:lib/lufa/LUFA/Drivers/USB/Core/DeviceStandardReq.c **** 				  USB_Device_SetAddress();
 429               		.loc 1 90 8 is_stmt 0 view .LVU133
 430 0108 8111      		cpse r24,__zero_reg__
 431 010a 00C0      		rjmp .L3
  91:lib/lufa/LUFA/Drivers/USB/Core/DeviceStandardReq.c **** 
 432               		.loc 1 91 7 is_stmt 1 view .LVU134
 433               	.LBB225:
 434               	.LBI225:
 125:lib/lufa/LUFA/Drivers/USB/Core/DeviceStandardReq.c **** {
 435               		.loc 1 125 13 view .LVU135
 436               	.LBB226:
 127:lib/lufa/LUFA/Drivers/USB/Core/DeviceStandardReq.c **** 
 437               		.loc 1 127 2 view .LVU136
 127:lib/lufa/LUFA/Drivers/USB/Core/DeviceStandardReq.c **** 
 438               		.loc 1 127 10 is_stmt 0 view .LVU137
 439 010c 1091 0000 		lds r17,USB_ControlRequest+2
 440 0110 1F77      		andi r17,lo8(127)
 441               	.LVL30:
 129:lib/lufa/LUFA/Drivers/USB/Core/DeviceStandardReq.c **** 
 442               		.loc 1 129 2 is_stmt 1 view .LVU138
 443               	.LBB227:
 444               	.LBI227:
 445               		.file 3 "lib/lufa/LUFA/Drivers/USB/Core/AVR8/../AVR8/Device_AVR8.h"
   1:lib/lufa/LUFA/Drivers/USB/Core/AVR8/../AVR8/Device_AVR8.h **** /*
   2:lib/lufa/LUFA/Drivers/USB/Core/AVR8/../AVR8/Device_AVR8.h ****              LUFA Library
   3:lib/lufa/LUFA/Drivers/USB/Core/AVR8/../AVR8/Device_AVR8.h ****      Copyright (C) Dean Camera, 2019.
   4:lib/lufa/LUFA/Drivers/USB/Core/AVR8/../AVR8/Device_AVR8.h **** 
   5:lib/lufa/LUFA/Drivers/USB/Core/AVR8/../AVR8/Device_AVR8.h ****   dean [at] fourwalledcubicle [dot] com
   6:lib/lufa/LUFA/Drivers/USB/Core/AVR8/../AVR8/Device_AVR8.h ****            www.lufa-lib.org
   7:lib/lufa/LUFA/Drivers/USB/Core/AVR8/../AVR8/Device_AVR8.h **** */
   8:lib/lufa/LUFA/Drivers/USB/Core/AVR8/../AVR8/Device_AVR8.h **** 
   9:lib/lufa/LUFA/Drivers/USB/Core/AVR8/../AVR8/Device_AVR8.h **** /*
  10:lib/lufa/LUFA/Drivers/USB/Core/AVR8/../AVR8/Device_AVR8.h ****   Copyright 2019  Dean Camera (dean [at] fourwalledcubicle [dot] com)
  11:lib/lufa/LUFA/Drivers/USB/Core/AVR8/../AVR8/Device_AVR8.h **** 
  12:lib/lufa/LUFA/Drivers/USB/Core/AVR8/../AVR8/Device_AVR8.h ****   Permission to use, copy, modify, distribute, and sell this
  13:lib/lufa/LUFA/Drivers/USB/Core/AVR8/../AVR8/Device_AVR8.h ****   software and its documentation for any purpose is hereby granted
  14:lib/lufa/LUFA/Drivers/USB/Core/AVR8/../AVR8/Device_AVR8.h ****   without fee, provided that the above copyright notice appear in
  15:lib/lufa/LUFA/Drivers/USB/Core/AVR8/../AVR8/Device_AVR8.h ****   all copies and that both that the copyright notice and this
  16:lib/lufa/LUFA/Drivers/USB/Core/AVR8/../AVR8/Device_AVR8.h ****   permission notice and warranty disclaimer appear in supporting
  17:lib/lufa/LUFA/Drivers/USB/Core/AVR8/../AVR8/Device_AVR8.h ****   documentation, and that the name of the author not be used in
  18:lib/lufa/LUFA/Drivers/USB/Core/AVR8/../AVR8/Device_AVR8.h ****   advertising or publicity pertaining to distribution of the
  19:lib/lufa/LUFA/Drivers/USB/Core/AVR8/../AVR8/Device_AVR8.h ****   software without specific, written prior permission.
  20:lib/lufa/LUFA/Drivers/USB/Core/AVR8/../AVR8/Device_AVR8.h **** 
  21:lib/lufa/LUFA/Drivers/USB/Core/AVR8/../AVR8/Device_AVR8.h ****   The author disclaims all warranties with regard to this
  22:lib/lufa/LUFA/Drivers/USB/Core/AVR8/../AVR8/Device_AVR8.h ****   software, including all implied warranties of merchantability
  23:lib/lufa/LUFA/Drivers/USB/Core/AVR8/../AVR8/Device_AVR8.h ****   and fitness.  In no event shall the author be liable for any
  24:lib/lufa/LUFA/Drivers/USB/Core/AVR8/../AVR8/Device_AVR8.h ****   special, indirect or consequential damages or any damages
  25:lib/lufa/LUFA/Drivers/USB/Core/AVR8/../AVR8/Device_AVR8.h ****   whatsoever resulting from loss of use, data or profits, whether
  26:lib/lufa/LUFA/Drivers/USB/Core/AVR8/../AVR8/Device_AVR8.h ****   in an action of contract, negligence or other tortious action,
  27:lib/lufa/LUFA/Drivers/USB/Core/AVR8/../AVR8/Device_AVR8.h ****   arising out of or in connection with the use or performance of
  28:lib/lufa/LUFA/Drivers/USB/Core/AVR8/../AVR8/Device_AVR8.h ****   this software.
  29:lib/lufa/LUFA/Drivers/USB/Core/AVR8/../AVR8/Device_AVR8.h **** */
  30:lib/lufa/LUFA/Drivers/USB/Core/AVR8/../AVR8/Device_AVR8.h **** 
  31:lib/lufa/LUFA/Drivers/USB/Core/AVR8/../AVR8/Device_AVR8.h **** /** \file
  32:lib/lufa/LUFA/Drivers/USB/Core/AVR8/../AVR8/Device_AVR8.h ****  *  \brief USB Device definitions for the AVR8 microcontrollers.
  33:lib/lufa/LUFA/Drivers/USB/Core/AVR8/../AVR8/Device_AVR8.h ****  *  \copydetails Group_Device_AVR8
  34:lib/lufa/LUFA/Drivers/USB/Core/AVR8/../AVR8/Device_AVR8.h ****  *
  35:lib/lufa/LUFA/Drivers/USB/Core/AVR8/../AVR8/Device_AVR8.h ****  *  \note This file should not be included directly. It is automatically included as needed by the 
  36:lib/lufa/LUFA/Drivers/USB/Core/AVR8/../AVR8/Device_AVR8.h ****  *        dispatch header located in LUFA/Drivers/USB/USB.h.
  37:lib/lufa/LUFA/Drivers/USB/Core/AVR8/../AVR8/Device_AVR8.h ****  */
  38:lib/lufa/LUFA/Drivers/USB/Core/AVR8/../AVR8/Device_AVR8.h **** 
  39:lib/lufa/LUFA/Drivers/USB/Core/AVR8/../AVR8/Device_AVR8.h **** /** \ingroup Group_Device
  40:lib/lufa/LUFA/Drivers/USB/Core/AVR8/../AVR8/Device_AVR8.h ****  *  \defgroup Group_Device_AVR8 Device Management (AVR8)
  41:lib/lufa/LUFA/Drivers/USB/Core/AVR8/../AVR8/Device_AVR8.h ****  *  \brief USB Device definitions for the AVR8 microcontrollers.
  42:lib/lufa/LUFA/Drivers/USB/Core/AVR8/../AVR8/Device_AVR8.h ****  *
  43:lib/lufa/LUFA/Drivers/USB/Core/AVR8/../AVR8/Device_AVR8.h ****  *  Architecture specific USB Device definitions for the Atmel 8-bit AVR microcontrollers.
  44:lib/lufa/LUFA/Drivers/USB/Core/AVR8/../AVR8/Device_AVR8.h ****  *
  45:lib/lufa/LUFA/Drivers/USB/Core/AVR8/../AVR8/Device_AVR8.h ****  *  @{
  46:lib/lufa/LUFA/Drivers/USB/Core/AVR8/../AVR8/Device_AVR8.h ****  */
  47:lib/lufa/LUFA/Drivers/USB/Core/AVR8/../AVR8/Device_AVR8.h **** 
  48:lib/lufa/LUFA/Drivers/USB/Core/AVR8/../AVR8/Device_AVR8.h **** #ifndef __USBDEVICE_AVR8_H__
  49:lib/lufa/LUFA/Drivers/USB/Core/AVR8/../AVR8/Device_AVR8.h **** #define __USBDEVICE_AVR8_H__
  50:lib/lufa/LUFA/Drivers/USB/Core/AVR8/../AVR8/Device_AVR8.h **** 
  51:lib/lufa/LUFA/Drivers/USB/Core/AVR8/../AVR8/Device_AVR8.h **** 	/* Includes: */
  52:lib/lufa/LUFA/Drivers/USB/Core/AVR8/../AVR8/Device_AVR8.h **** 		#include "../../../../Common/Common.h"
  53:lib/lufa/LUFA/Drivers/USB/Core/AVR8/../AVR8/Device_AVR8.h **** 		#include "../USBController.h"
  54:lib/lufa/LUFA/Drivers/USB/Core/AVR8/../AVR8/Device_AVR8.h **** 		#include "../StdDescriptors.h"
  55:lib/lufa/LUFA/Drivers/USB/Core/AVR8/../AVR8/Device_AVR8.h **** 		#include "../USBInterrupt.h"
  56:lib/lufa/LUFA/Drivers/USB/Core/AVR8/../AVR8/Device_AVR8.h **** 		#include "../Endpoint.h"
  57:lib/lufa/LUFA/Drivers/USB/Core/AVR8/../AVR8/Device_AVR8.h **** 
  58:lib/lufa/LUFA/Drivers/USB/Core/AVR8/../AVR8/Device_AVR8.h **** 	/* Enable C linkage for C++ Compilers: */
  59:lib/lufa/LUFA/Drivers/USB/Core/AVR8/../AVR8/Device_AVR8.h **** 		#if defined(__cplusplus)
  60:lib/lufa/LUFA/Drivers/USB/Core/AVR8/../AVR8/Device_AVR8.h **** 			extern "C" {
  61:lib/lufa/LUFA/Drivers/USB/Core/AVR8/../AVR8/Device_AVR8.h **** 		#endif
  62:lib/lufa/LUFA/Drivers/USB/Core/AVR8/../AVR8/Device_AVR8.h **** 
  63:lib/lufa/LUFA/Drivers/USB/Core/AVR8/../AVR8/Device_AVR8.h **** 	/* Preprocessor Checks: */
  64:lib/lufa/LUFA/Drivers/USB/Core/AVR8/../AVR8/Device_AVR8.h **** 		#if !defined(__INCLUDE_FROM_USB_DRIVER)
  65:lib/lufa/LUFA/Drivers/USB/Core/AVR8/../AVR8/Device_AVR8.h **** 			#error Do not include this file directly. Include LUFA/Drivers/USB/USB.h instead.
  66:lib/lufa/LUFA/Drivers/USB/Core/AVR8/../AVR8/Device_AVR8.h **** 		#endif
  67:lib/lufa/LUFA/Drivers/USB/Core/AVR8/../AVR8/Device_AVR8.h **** 
  68:lib/lufa/LUFA/Drivers/USB/Core/AVR8/../AVR8/Device_AVR8.h **** 		#if (defined(USE_RAM_DESCRIPTORS) && defined(USE_EEPROM_DESCRIPTORS))
  69:lib/lufa/LUFA/Drivers/USB/Core/AVR8/../AVR8/Device_AVR8.h **** 			#error USE_RAM_DESCRIPTORS and USE_EEPROM_DESCRIPTORS are mutually exclusive.
  70:lib/lufa/LUFA/Drivers/USB/Core/AVR8/../AVR8/Device_AVR8.h **** 		#endif
  71:lib/lufa/LUFA/Drivers/USB/Core/AVR8/../AVR8/Device_AVR8.h **** 
  72:lib/lufa/LUFA/Drivers/USB/Core/AVR8/../AVR8/Device_AVR8.h **** 		#if (defined(USE_FLASH_DESCRIPTORS) && defined(USE_EEPROM_DESCRIPTORS))
  73:lib/lufa/LUFA/Drivers/USB/Core/AVR8/../AVR8/Device_AVR8.h **** 			#error USE_FLASH_DESCRIPTORS and USE_EEPROM_DESCRIPTORS are mutually exclusive.
  74:lib/lufa/LUFA/Drivers/USB/Core/AVR8/../AVR8/Device_AVR8.h **** 		#endif
  75:lib/lufa/LUFA/Drivers/USB/Core/AVR8/../AVR8/Device_AVR8.h **** 
  76:lib/lufa/LUFA/Drivers/USB/Core/AVR8/../AVR8/Device_AVR8.h **** 		#if (defined(USE_FLASH_DESCRIPTORS) && defined(USE_RAM_DESCRIPTORS))
  77:lib/lufa/LUFA/Drivers/USB/Core/AVR8/../AVR8/Device_AVR8.h **** 			#error USE_FLASH_DESCRIPTORS and USE_RAM_DESCRIPTORS are mutually exclusive.
  78:lib/lufa/LUFA/Drivers/USB/Core/AVR8/../AVR8/Device_AVR8.h **** 		#endif
  79:lib/lufa/LUFA/Drivers/USB/Core/AVR8/../AVR8/Device_AVR8.h **** 
  80:lib/lufa/LUFA/Drivers/USB/Core/AVR8/../AVR8/Device_AVR8.h **** 	/* Public Interface - May be used in end-application: */
  81:lib/lufa/LUFA/Drivers/USB/Core/AVR8/../AVR8/Device_AVR8.h **** 		/* Macros: */
  82:lib/lufa/LUFA/Drivers/USB/Core/AVR8/../AVR8/Device_AVR8.h **** 			/** \name USB Device Mode Option Masks */
  83:lib/lufa/LUFA/Drivers/USB/Core/AVR8/../AVR8/Device_AVR8.h **** 			//@{
  84:lib/lufa/LUFA/Drivers/USB/Core/AVR8/../AVR8/Device_AVR8.h **** 			#if defined(USB_SERIES_4_AVR) || defined(USB_SERIES_6_AVR) || defined(USB_SERIES_7_AVR) || defin
  85:lib/lufa/LUFA/Drivers/USB/Core/AVR8/../AVR8/Device_AVR8.h **** 				/** Mask for the Options parameter of the \ref USB_Init() function. This indicates that the
  86:lib/lufa/LUFA/Drivers/USB/Core/AVR8/../AVR8/Device_AVR8.h **** 				 *  USB interface should be initialized in low speed (1.5Mb/s) mode.
  87:lib/lufa/LUFA/Drivers/USB/Core/AVR8/../AVR8/Device_AVR8.h **** 				 *
  88:lib/lufa/LUFA/Drivers/USB/Core/AVR8/../AVR8/Device_AVR8.h **** 				 *  \note Low Speed mode is not available on all USB AVR models.
  89:lib/lufa/LUFA/Drivers/USB/Core/AVR8/../AVR8/Device_AVR8.h **** 				 *        \n
  90:lib/lufa/LUFA/Drivers/USB/Core/AVR8/../AVR8/Device_AVR8.h **** 				 *
  91:lib/lufa/LUFA/Drivers/USB/Core/AVR8/../AVR8/Device_AVR8.h **** 				 *  \note Restrictions apply on the number, size and type of endpoints which can be used
  92:lib/lufa/LUFA/Drivers/USB/Core/AVR8/../AVR8/Device_AVR8.h **** 				 *        when running in low speed mode - please refer to the USB 2.0 specification.
  93:lib/lufa/LUFA/Drivers/USB/Core/AVR8/../AVR8/Device_AVR8.h **** 				 */
  94:lib/lufa/LUFA/Drivers/USB/Core/AVR8/../AVR8/Device_AVR8.h **** 				#define USB_DEVICE_OPT_LOWSPEED            (1 << 0)
  95:lib/lufa/LUFA/Drivers/USB/Core/AVR8/../AVR8/Device_AVR8.h **** 			#endif
  96:lib/lufa/LUFA/Drivers/USB/Core/AVR8/../AVR8/Device_AVR8.h **** 
  97:lib/lufa/LUFA/Drivers/USB/Core/AVR8/../AVR8/Device_AVR8.h **** 			/** Mask for the Options parameter of the \ref USB_Init() function. This indicates that the
  98:lib/lufa/LUFA/Drivers/USB/Core/AVR8/../AVR8/Device_AVR8.h **** 			 *  USB interface should be initialized in full speed (12Mb/s) mode.
  99:lib/lufa/LUFA/Drivers/USB/Core/AVR8/../AVR8/Device_AVR8.h **** 			 */
 100:lib/lufa/LUFA/Drivers/USB/Core/AVR8/../AVR8/Device_AVR8.h **** 			#define USB_DEVICE_OPT_FULLSPEED               (0 << 0)
 101:lib/lufa/LUFA/Drivers/USB/Core/AVR8/../AVR8/Device_AVR8.h **** 			//@}
 102:lib/lufa/LUFA/Drivers/USB/Core/AVR8/../AVR8/Device_AVR8.h **** 
 103:lib/lufa/LUFA/Drivers/USB/Core/AVR8/../AVR8/Device_AVR8.h **** 			#if (!defined(NO_INTERNAL_SERIAL) && \
 104:lib/lufa/LUFA/Drivers/USB/Core/AVR8/../AVR8/Device_AVR8.h **** 			     (defined(USB_SERIES_7_AVR) || defined(USB_SERIES_6_AVR) || \
 105:lib/lufa/LUFA/Drivers/USB/Core/AVR8/../AVR8/Device_AVR8.h **** 			      defined(USB_SERIES_4_AVR) || defined(USB_SERIES_2_AVR) || \
 106:lib/lufa/LUFA/Drivers/USB/Core/AVR8/../AVR8/Device_AVR8.h **** 				  defined(__DOXYGEN__)))
 107:lib/lufa/LUFA/Drivers/USB/Core/AVR8/../AVR8/Device_AVR8.h **** 				/** String descriptor index for the device's unique serial number string descriptor within the 
 108:lib/lufa/LUFA/Drivers/USB/Core/AVR8/../AVR8/Device_AVR8.h **** 				 *  This unique serial number is used by the host to associate resources to the device (such as
 109:lib/lufa/LUFA/Drivers/USB/Core/AVR8/../AVR8/Device_AVR8.h **** 				 *  number allocations) to a device regardless of the port it is plugged in to on the host. Som
 110:lib/lufa/LUFA/Drivers/USB/Core/AVR8/../AVR8/Device_AVR8.h **** 				 *  a unique serial number internally, and setting the device descriptors serial number string 
 111:lib/lufa/LUFA/Drivers/USB/Core/AVR8/../AVR8/Device_AVR8.h **** 				 *  will cause it to use the internal serial number.
 112:lib/lufa/LUFA/Drivers/USB/Core/AVR8/../AVR8/Device_AVR8.h **** 				 *
 113:lib/lufa/LUFA/Drivers/USB/Core/AVR8/../AVR8/Device_AVR8.h **** 				 *  On unsupported devices, this will evaluate to \ref NO_DESCRIPTOR and so will force the host
 114:lib/lufa/LUFA/Drivers/USB/Core/AVR8/../AVR8/Device_AVR8.h **** 				 *  number for the device.
 115:lib/lufa/LUFA/Drivers/USB/Core/AVR8/../AVR8/Device_AVR8.h **** 				 */
 116:lib/lufa/LUFA/Drivers/USB/Core/AVR8/../AVR8/Device_AVR8.h **** 				#ifndef USE_INTERNAL_SERIAL
 117:lib/lufa/LUFA/Drivers/USB/Core/AVR8/../AVR8/Device_AVR8.h **** 					#define USE_INTERNAL_SERIAL         0xDC
 118:lib/lufa/LUFA/Drivers/USB/Core/AVR8/../AVR8/Device_AVR8.h **** 				#endif
 119:lib/lufa/LUFA/Drivers/USB/Core/AVR8/../AVR8/Device_AVR8.h **** 
 120:lib/lufa/LUFA/Drivers/USB/Core/AVR8/../AVR8/Device_AVR8.h **** 				/** Length of the device's unique internal serial number, in bits, if present on the selected m
 121:lib/lufa/LUFA/Drivers/USB/Core/AVR8/../AVR8/Device_AVR8.h **** 				 *  model.
 122:lib/lufa/LUFA/Drivers/USB/Core/AVR8/../AVR8/Device_AVR8.h **** 				 */
 123:lib/lufa/LUFA/Drivers/USB/Core/AVR8/../AVR8/Device_AVR8.h **** 				#define INTERNAL_SERIAL_LENGTH_BITS     80
 124:lib/lufa/LUFA/Drivers/USB/Core/AVR8/../AVR8/Device_AVR8.h **** 
 125:lib/lufa/LUFA/Drivers/USB/Core/AVR8/../AVR8/Device_AVR8.h **** 				/** Start address of the internal serial number, in the appropriate address space, if present o
 126:lib/lufa/LUFA/Drivers/USB/Core/AVR8/../AVR8/Device_AVR8.h **** 				 *  model.
 127:lib/lufa/LUFA/Drivers/USB/Core/AVR8/../AVR8/Device_AVR8.h **** 				 */
 128:lib/lufa/LUFA/Drivers/USB/Core/AVR8/../AVR8/Device_AVR8.h **** 				#define INTERNAL_SERIAL_START_ADDRESS   0x0E
 129:lib/lufa/LUFA/Drivers/USB/Core/AVR8/../AVR8/Device_AVR8.h **** 			#else
 130:lib/lufa/LUFA/Drivers/USB/Core/AVR8/../AVR8/Device_AVR8.h **** 				#undef	USE_INTERNAL_SERIAL
 131:lib/lufa/LUFA/Drivers/USB/Core/AVR8/../AVR8/Device_AVR8.h **** 				#define USE_INTERNAL_SERIAL             NO_DESCRIPTOR
 132:lib/lufa/LUFA/Drivers/USB/Core/AVR8/../AVR8/Device_AVR8.h **** 
 133:lib/lufa/LUFA/Drivers/USB/Core/AVR8/../AVR8/Device_AVR8.h **** 				#define INTERNAL_SERIAL_LENGTH_BITS     0
 134:lib/lufa/LUFA/Drivers/USB/Core/AVR8/../AVR8/Device_AVR8.h **** 				#define INTERNAL_SERIAL_START_ADDRESS   0
 135:lib/lufa/LUFA/Drivers/USB/Core/AVR8/../AVR8/Device_AVR8.h **** 			#endif
 136:lib/lufa/LUFA/Drivers/USB/Core/AVR8/../AVR8/Device_AVR8.h **** 
 137:lib/lufa/LUFA/Drivers/USB/Core/AVR8/../AVR8/Device_AVR8.h **** 		/* Function Prototypes: */
 138:lib/lufa/LUFA/Drivers/USB/Core/AVR8/../AVR8/Device_AVR8.h **** 			/** Sends a Remote Wakeup request to the host. This signals to the host that the device should
 139:lib/lufa/LUFA/Drivers/USB/Core/AVR8/../AVR8/Device_AVR8.h **** 			 *  be taken out of suspended mode, and communications should resume.
 140:lib/lufa/LUFA/Drivers/USB/Core/AVR8/../AVR8/Device_AVR8.h **** 			 *
 141:lib/lufa/LUFA/Drivers/USB/Core/AVR8/../AVR8/Device_AVR8.h **** 			 *  Typically, this is implemented so that HID devices (mice, keyboards, etc.) can wake up the
 142:lib/lufa/LUFA/Drivers/USB/Core/AVR8/../AVR8/Device_AVR8.h **** 			 *  host computer when the host has suspended all USB devices to enter a low power state.
 143:lib/lufa/LUFA/Drivers/USB/Core/AVR8/../AVR8/Device_AVR8.h **** 			 *
 144:lib/lufa/LUFA/Drivers/USB/Core/AVR8/../AVR8/Device_AVR8.h **** 			 *  \attention This function should only be used if the device has indicated to the host that it
 145:lib/lufa/LUFA/Drivers/USB/Core/AVR8/../AVR8/Device_AVR8.h **** 			 *             supports the Remote Wakeup feature in the device descriptors, and should only be
 146:lib/lufa/LUFA/Drivers/USB/Core/AVR8/../AVR8/Device_AVR8.h **** 			 *             issued if the host is currently allowing remote wakeup events from the device (i.
 147:lib/lufa/LUFA/Drivers/USB/Core/AVR8/../AVR8/Device_AVR8.h **** 			 *             the \ref USB_Device_RemoteWakeupEnabled flag is set). When the \c NO_DEVICE_REMOT
 148:lib/lufa/LUFA/Drivers/USB/Core/AVR8/../AVR8/Device_AVR8.h **** 			 *             compile time option is used, this function is unavailable.
 149:lib/lufa/LUFA/Drivers/USB/Core/AVR8/../AVR8/Device_AVR8.h **** 			 *             \n\n
 150:lib/lufa/LUFA/Drivers/USB/Core/AVR8/../AVR8/Device_AVR8.h **** 			 *
 151:lib/lufa/LUFA/Drivers/USB/Core/AVR8/../AVR8/Device_AVR8.h **** 			 *  \attention The USB clock must be running for this function to operate. If the stack is initi
 152:lib/lufa/LUFA/Drivers/USB/Core/AVR8/../AVR8/Device_AVR8.h **** 			 *             the \ref USB_OPT_MANUAL_PLL option enabled, the user must ensure that the PLL is 
 153:lib/lufa/LUFA/Drivers/USB/Core/AVR8/../AVR8/Device_AVR8.h **** 			 *             before attempting to call this function.
 154:lib/lufa/LUFA/Drivers/USB/Core/AVR8/../AVR8/Device_AVR8.h **** 			 *
 155:lib/lufa/LUFA/Drivers/USB/Core/AVR8/../AVR8/Device_AVR8.h **** 			 *  \see \ref Group_StdDescriptors for more information on the RMWAKEUP feature and device descr
 156:lib/lufa/LUFA/Drivers/USB/Core/AVR8/../AVR8/Device_AVR8.h **** 			 */
 157:lib/lufa/LUFA/Drivers/USB/Core/AVR8/../AVR8/Device_AVR8.h **** 			void USB_Device_SendRemoteWakeup(void);
 158:lib/lufa/LUFA/Drivers/USB/Core/AVR8/../AVR8/Device_AVR8.h **** 
 159:lib/lufa/LUFA/Drivers/USB/Core/AVR8/../AVR8/Device_AVR8.h **** 		/* Inline Functions: */
 160:lib/lufa/LUFA/Drivers/USB/Core/AVR8/../AVR8/Device_AVR8.h **** 			/** Returns the current USB frame number, when in device mode. Every millisecond the USB bus is 
 161:lib/lufa/LUFA/Drivers/USB/Core/AVR8/../AVR8/Device_AVR8.h **** 			 *  the frame number is incremented by one.
 162:lib/lufa/LUFA/Drivers/USB/Core/AVR8/../AVR8/Device_AVR8.h **** 			 *
 163:lib/lufa/LUFA/Drivers/USB/Core/AVR8/../AVR8/Device_AVR8.h **** 			 *  \return Current USB frame number from the USB controller.
 164:lib/lufa/LUFA/Drivers/USB/Core/AVR8/../AVR8/Device_AVR8.h **** 			 */
 165:lib/lufa/LUFA/Drivers/USB/Core/AVR8/../AVR8/Device_AVR8.h **** 			static inline uint16_t USB_Device_GetFrameNumber(void) ATTR_ALWAYS_INLINE ATTR_WARN_UNUSED_RESUL
 166:lib/lufa/LUFA/Drivers/USB/Core/AVR8/../AVR8/Device_AVR8.h **** 			static inline uint16_t USB_Device_GetFrameNumber(void)
 167:lib/lufa/LUFA/Drivers/USB/Core/AVR8/../AVR8/Device_AVR8.h **** 			{
 168:lib/lufa/LUFA/Drivers/USB/Core/AVR8/../AVR8/Device_AVR8.h **** 				return UDFNUM;
 169:lib/lufa/LUFA/Drivers/USB/Core/AVR8/../AVR8/Device_AVR8.h **** 			}
 170:lib/lufa/LUFA/Drivers/USB/Core/AVR8/../AVR8/Device_AVR8.h **** 
 171:lib/lufa/LUFA/Drivers/USB/Core/AVR8/../AVR8/Device_AVR8.h **** 			#if !defined(NO_SOF_EVENTS)
 172:lib/lufa/LUFA/Drivers/USB/Core/AVR8/../AVR8/Device_AVR8.h **** 				/** Enables the device mode Start Of Frame events. When enabled, this causes the
 173:lib/lufa/LUFA/Drivers/USB/Core/AVR8/../AVR8/Device_AVR8.h **** 				 *  \ref EVENT_USB_Device_StartOfFrame() event to fire once per millisecond, synchronized to th
 174:lib/lufa/LUFA/Drivers/USB/Core/AVR8/../AVR8/Device_AVR8.h **** 				 *  at the start of each USB frame when enumerated in device mode.
 175:lib/lufa/LUFA/Drivers/USB/Core/AVR8/../AVR8/Device_AVR8.h **** 				 *
 176:lib/lufa/LUFA/Drivers/USB/Core/AVR8/../AVR8/Device_AVR8.h **** 				 *  \note This function is not available when the \c NO_SOF_EVENTS compile time token is define
 177:lib/lufa/LUFA/Drivers/USB/Core/AVR8/../AVR8/Device_AVR8.h **** 				 */
 178:lib/lufa/LUFA/Drivers/USB/Core/AVR8/../AVR8/Device_AVR8.h **** 				static inline void USB_Device_EnableSOFEvents(void) ATTR_ALWAYS_INLINE;
 179:lib/lufa/LUFA/Drivers/USB/Core/AVR8/../AVR8/Device_AVR8.h **** 				static inline void USB_Device_EnableSOFEvents(void)
 180:lib/lufa/LUFA/Drivers/USB/Core/AVR8/../AVR8/Device_AVR8.h **** 				{
 181:lib/lufa/LUFA/Drivers/USB/Core/AVR8/../AVR8/Device_AVR8.h **** 					USB_INT_Enable(USB_INT_SOFI);
 182:lib/lufa/LUFA/Drivers/USB/Core/AVR8/../AVR8/Device_AVR8.h **** 				}
 183:lib/lufa/LUFA/Drivers/USB/Core/AVR8/../AVR8/Device_AVR8.h **** 
 184:lib/lufa/LUFA/Drivers/USB/Core/AVR8/../AVR8/Device_AVR8.h **** 				/** Disables the device mode Start Of Frame events. When disabled, this stops the firing of the
 185:lib/lufa/LUFA/Drivers/USB/Core/AVR8/../AVR8/Device_AVR8.h **** 				 *  \ref EVENT_USB_Device_StartOfFrame() event when enumerated in device mode.
 186:lib/lufa/LUFA/Drivers/USB/Core/AVR8/../AVR8/Device_AVR8.h **** 				 *
 187:lib/lufa/LUFA/Drivers/USB/Core/AVR8/../AVR8/Device_AVR8.h **** 				 *  \note This function is not available when the \c NO_SOF_EVENTS compile time token is define
 188:lib/lufa/LUFA/Drivers/USB/Core/AVR8/../AVR8/Device_AVR8.h **** 				 */
 189:lib/lufa/LUFA/Drivers/USB/Core/AVR8/../AVR8/Device_AVR8.h **** 				static inline void USB_Device_DisableSOFEvents(void) ATTR_ALWAYS_INLINE;
 190:lib/lufa/LUFA/Drivers/USB/Core/AVR8/../AVR8/Device_AVR8.h **** 				static inline void USB_Device_DisableSOFEvents(void)
 191:lib/lufa/LUFA/Drivers/USB/Core/AVR8/../AVR8/Device_AVR8.h **** 				{
 192:lib/lufa/LUFA/Drivers/USB/Core/AVR8/../AVR8/Device_AVR8.h **** 					USB_INT_Disable(USB_INT_SOFI);
 193:lib/lufa/LUFA/Drivers/USB/Core/AVR8/../AVR8/Device_AVR8.h **** 				}
 194:lib/lufa/LUFA/Drivers/USB/Core/AVR8/../AVR8/Device_AVR8.h **** 			#endif
 195:lib/lufa/LUFA/Drivers/USB/Core/AVR8/../AVR8/Device_AVR8.h **** 
 196:lib/lufa/LUFA/Drivers/USB/Core/AVR8/../AVR8/Device_AVR8.h **** 	/* Private Interface - For use in library only: */
 197:lib/lufa/LUFA/Drivers/USB/Core/AVR8/../AVR8/Device_AVR8.h **** 	#if !defined(__DOXYGEN__)
 198:lib/lufa/LUFA/Drivers/USB/Core/AVR8/../AVR8/Device_AVR8.h **** 		/* Inline Functions: */
 199:lib/lufa/LUFA/Drivers/USB/Core/AVR8/../AVR8/Device_AVR8.h **** 			#if defined(USB_DEVICE_OPT_LOWSPEED)
 200:lib/lufa/LUFA/Drivers/USB/Core/AVR8/../AVR8/Device_AVR8.h **** 			static inline void USB_Device_SetLowSpeed(void) ATTR_ALWAYS_INLINE;
 201:lib/lufa/LUFA/Drivers/USB/Core/AVR8/../AVR8/Device_AVR8.h **** 			static inline void USB_Device_SetLowSpeed(void)
 202:lib/lufa/LUFA/Drivers/USB/Core/AVR8/../AVR8/Device_AVR8.h **** 			{
 203:lib/lufa/LUFA/Drivers/USB/Core/AVR8/../AVR8/Device_AVR8.h **** 				UDCON |=  (1 << LSM);
 204:lib/lufa/LUFA/Drivers/USB/Core/AVR8/../AVR8/Device_AVR8.h **** 			}
 205:lib/lufa/LUFA/Drivers/USB/Core/AVR8/../AVR8/Device_AVR8.h **** 
 206:lib/lufa/LUFA/Drivers/USB/Core/AVR8/../AVR8/Device_AVR8.h **** 			static inline void USB_Device_SetFullSpeed(void) ATTR_ALWAYS_INLINE;
 207:lib/lufa/LUFA/Drivers/USB/Core/AVR8/../AVR8/Device_AVR8.h **** 			static inline void USB_Device_SetFullSpeed(void)
 208:lib/lufa/LUFA/Drivers/USB/Core/AVR8/../AVR8/Device_AVR8.h **** 			{
 209:lib/lufa/LUFA/Drivers/USB/Core/AVR8/../AVR8/Device_AVR8.h **** 				UDCON &= ~(1 << LSM);
 210:lib/lufa/LUFA/Drivers/USB/Core/AVR8/../AVR8/Device_AVR8.h **** 			}
 211:lib/lufa/LUFA/Drivers/USB/Core/AVR8/../AVR8/Device_AVR8.h **** 			#endif
 212:lib/lufa/LUFA/Drivers/USB/Core/AVR8/../AVR8/Device_AVR8.h **** 
 213:lib/lufa/LUFA/Drivers/USB/Core/AVR8/../AVR8/Device_AVR8.h **** 			static inline void USB_Device_SetDeviceAddress(const uint8_t Address) ATTR_ALWAYS_INLINE;
 214:lib/lufa/LUFA/Drivers/USB/Core/AVR8/../AVR8/Device_AVR8.h **** 			static inline void USB_Device_SetDeviceAddress(const uint8_t Address)
 446               		.loc 3 214 23 view .LVU139
 447               	.LBB228:
 215:lib/lufa/LUFA/Drivers/USB/Core/AVR8/../AVR8/Device_AVR8.h **** 			{
 216:lib/lufa/LUFA/Drivers/USB/Core/AVR8/../AVR8/Device_AVR8.h **** 				UDADDR = (UDADDR & (1 << ADDEN)) | (Address & 0x7F);
 448               		.loc 3 216 5 view .LVU140
 449               		.loc 3 216 15 is_stmt 0 view .LVU141
 450 0112 8091 E300 		lds r24,227
 451               	.LVL31:
 452               		.loc 3 216 22 view .LVU142
 453 0116 8078      		andi r24,lo8(-128)
 454               		.loc 3 216 38 view .LVU143
 455 0118 812B      		or r24,r17
 456               		.loc 3 216 12 view .LVU144
 457 011a 8093 E300 		sts 227,r24
 458               	.LVL32:
 459               		.loc 3 216 12 view .LVU145
 460               	.LBE228:
 461               	.LBE227:
 131:lib/lufa/LUFA/Drivers/USB/Core/DeviceStandardReq.c **** 
 462               		.loc 1 131 2 is_stmt 1 view .LVU146
 463               	.LBB229:
 464               	.LBI229:
 442:lib/lufa/LUFA/Drivers/USB/Core/AVR8/../AVR8/Endpoint_AVR8.h **** 			{
 465               		.loc 2 442 23 view .LVU147
 466               	.LBB230:
 444:lib/lufa/LUFA/Drivers/USB/Core/AVR8/../AVR8/Endpoint_AVR8.h **** 			}
 467               		.loc 2 444 5 view .LVU148
 444:lib/lufa/LUFA/Drivers/USB/Core/AVR8/../AVR8/Endpoint_AVR8.h **** 			}
 468               		.loc 2 444 12 is_stmt 0 view .LVU149
 469 011e 8091 E800 		lds r24,232
 470 0122 877F      		andi r24,lo8(-9)
 471 0124 8093 E800 		sts 232,r24
 472               	.LBE230:
 473               	.LBE229:
 133:lib/lufa/LUFA/Drivers/USB/Core/DeviceStandardReq.c **** 
 474               		.loc 1 133 2 is_stmt 1 view .LVU150
 475 0128 0E94 0000 		call Endpoint_ClearStatusStage
 476               	.LVL33:
 135:lib/lufa/LUFA/Drivers/USB/Core/DeviceStandardReq.c **** 
 477               		.loc 1 135 2 view .LVU151
 478               	.L20:
 135:lib/lufa/LUFA/Drivers/USB/Core/DeviceStandardReq.c **** 
 479               		.loc 1 135 33 view .LVU152
 135:lib/lufa/LUFA/Drivers/USB/Core/DeviceStandardReq.c **** 
 480               		.loc 1 135 8 view .LVU153
 481               	.LBB231:
 482               	.LBI231:
 405:lib/lufa/LUFA/Drivers/USB/Core/AVR8/../AVR8/Endpoint_AVR8.h **** 			{
 483               		.loc 2 405 23 view .LVU154
 484               	.LBB232:
 407:lib/lufa/LUFA/Drivers/USB/Core/AVR8/../AVR8/Endpoint_AVR8.h **** 			}
 485               		.loc 2 407 5 view .LVU155
 407:lib/lufa/LUFA/Drivers/USB/Core/AVR8/../AVR8/Endpoint_AVR8.h **** 			}
 486               		.loc 2 407 14 is_stmt 0 view .LVU156
 487 012c 8091 E800 		lds r24,232
 488               	.LBE232:
 489               	.LBE231:
 135:lib/lufa/LUFA/Drivers/USB/Core/DeviceStandardReq.c **** 
 490               		.loc 1 135 8 view .LVU157
 491 0130 80FF      		sbrs r24,0
 492 0132 00C0      		rjmp .L20
 137:lib/lufa/LUFA/Drivers/USB/Core/DeviceStandardReq.c **** 
 493               		.loc 1 137 2 is_stmt 1 view .LVU158
 494               	.LVL34:
 495               	.LBB233:
 496               	.LBI233:
 217:lib/lufa/LUFA/Drivers/USB/Core/AVR8/../AVR8/Device_AVR8.h **** 			}
 218:lib/lufa/LUFA/Drivers/USB/Core/AVR8/../AVR8/Device_AVR8.h **** 
 219:lib/lufa/LUFA/Drivers/USB/Core/AVR8/../AVR8/Device_AVR8.h **** 			static inline void USB_Device_EnableDeviceAddress(const uint8_t Address) ATTR_ALWAYS_INLINE;
 220:lib/lufa/LUFA/Drivers/USB/Core/AVR8/../AVR8/Device_AVR8.h **** 			static inline void USB_Device_EnableDeviceAddress(const uint8_t Address)
 497               		.loc 3 220 23 view .LVU159
 498               	.LBB234:
 221:lib/lufa/LUFA/Drivers/USB/Core/AVR8/../AVR8/Device_AVR8.h **** 			{
 222:lib/lufa/LUFA/Drivers/USB/Core/AVR8/../AVR8/Device_AVR8.h **** 				(void)Address;
 499               		.loc 3 222 5 view .LVU160
 223:lib/lufa/LUFA/Drivers/USB/Core/AVR8/../AVR8/Device_AVR8.h **** 
 224:lib/lufa/LUFA/Drivers/USB/Core/AVR8/../AVR8/Device_AVR8.h **** 				UDADDR |= (1 << ADDEN);
 500               		.loc 3 224 5 view .LVU161
 501               		.loc 3 224 12 is_stmt 0 view .LVU162
 502 0134 8091 E300 		lds r24,227
 503 0138 8068      		ori r24,lo8(-128)
 504 013a 8093 E300 		sts 227,r24
 505               	.LVL35:
 506               		.loc 3 224 12 view .LVU163
 507               	.LBE234:
 508               	.LBE233:
 139:lib/lufa/LUFA/Drivers/USB/Core/DeviceStandardReq.c **** }
 509               		.loc 1 139 2 is_stmt 1 view .LVU164
 139:lib/lufa/LUFA/Drivers/USB/Core/DeviceStandardReq.c **** }
 510               		.loc 1 139 18 is_stmt 0 view .LVU165
 511 013e 82E0      		ldi r24,lo8(2)
 512 0140 1111      		cpse r17,__zero_reg__
 513 0142 83E0      		ldi r24,lo8(3)
 514               	.L21:
 515 0144 8093 0000 		sts USB_DeviceState,r24
 516 0148 00C0      		rjmp .L3
 517               	.LVL36:
 518               	.L7:
 139:lib/lufa/LUFA/Drivers/USB/Core/DeviceStandardReq.c **** }
 519               		.loc 1 139 18 view .LVU166
 520               	.LBE226:
 521               	.LBE225:
  95:lib/lufa/LUFA/Drivers/USB/Core/DeviceStandardReq.c **** 					(bmRequestType == (REQDIR_DEVICETOHOST | REQTYPE_STANDARD | REQREC_INTERFACE)))
 522               		.loc 1 95 5 is_stmt 1 view .LVU167
  95:lib/lufa/LUFA/Drivers/USB/Core/DeviceStandardReq.c **** 					(bmRequestType == (REQDIR_DEVICETOHOST | REQTYPE_STANDARD | REQREC_INTERFACE)))
 523               		.loc 1 95 85 is_stmt 0 view .LVU168
 524 014a 8058      		subi r24,lo8(-(-128))
 525               	.LVL37:
  95:lib/lufa/LUFA/Drivers/USB/Core/DeviceStandardReq.c **** 					(bmRequestType == (REQDIR_DEVICETOHOST | REQTYPE_STANDARD | REQREC_INTERFACE)))
 526               		.loc 1 95 8 view .LVU169
 527 014c 8230      		cpi r24,lo8(2)
 528 014e 00F0      		brlo .+2
 529 0150 00C0      		rjmp .L3
  98:lib/lufa/LUFA/Drivers/USB/Core/DeviceStandardReq.c **** 				}
 530               		.loc 1 98 6 is_stmt 1 view .LVU170
 531               	.LBB235:
 532               	.LBI235:
 239:lib/lufa/LUFA/Drivers/USB/Core/DeviceStandardReq.c **** {
 533               		.loc 1 239 13 view .LVU171
 534               	.LBB236:
 241:lib/lufa/LUFA/Drivers/USB/Core/DeviceStandardReq.c **** 	uint16_t    DescriptorSize;
 535               		.loc 1 241 2 view .LVU172
 242:lib/lufa/LUFA/Drivers/USB/Core/DeviceStandardReq.c **** 
 536               		.loc 1 242 2 view .LVU173
 250:lib/lufa/LUFA/Drivers/USB/Core/DeviceStandardReq.c **** 	{
 537               		.loc 1 250 2 view .LVU174
 250:lib/lufa/LUFA/Drivers/USB/Core/DeviceStandardReq.c **** 	{
 538               		.loc 1 250 24 is_stmt 0 view .LVU175
 539 0152 8091 0000 		lds r24,USB_ControlRequest+2
 540 0156 9091 0000 		lds r25,USB_ControlRequest+2+1
 250:lib/lufa/LUFA/Drivers/USB/Core/DeviceStandardReq.c **** 	{
 541               		.loc 1 250 5 view .LVU176
 542 015a 8C3D      		cpi r24,-36
 543 015c 23E0      		ldi r18,3
 544 015e 9207      		cpc r25,r18
 545 0160 01F4      		brne .L22
 252:lib/lufa/LUFA/Drivers/USB/Core/DeviceStandardReq.c **** 		return;
 546               		.loc 1 252 3 is_stmt 1 view .LVU177
 547               	.LBB237:
 548               	.LBI237:
 219:lib/lufa/LUFA/Drivers/USB/Core/DeviceStandardReq.c **** {
 549               		.loc 1 219 13 view .LVU178
 550               	.LBB238:
 221:lib/lufa/LUFA/Drivers/USB/Core/DeviceStandardReq.c **** 	{
 551               		.loc 1 221 2 view .LVU179
 227:lib/lufa/LUFA/Drivers/USB/Core/DeviceStandardReq.c **** 	SignatureDescriptor.Header.Size = USB_STRING_LEN(INTERNAL_SERIAL_LENGTH_BITS / 4);
 552               		.loc 1 227 2 view .LVU180
 227:lib/lufa/LUFA/Drivers/USB/Core/DeviceStandardReq.c **** 	SignatureDescriptor.Header.Size = USB_STRING_LEN(INTERNAL_SERIAL_LENGTH_BITS / 4);
 553               		.loc 1 227 34 is_stmt 0 view .LVU181
 554 0162 83E0      		ldi r24,lo8(3)
 555 0164 8A83      		std Y+2,r24
 228:lib/lufa/LUFA/Drivers/USB/Core/DeviceStandardReq.c **** 
 556               		.loc 1 228 2 is_stmt 1 view .LVU182
 228:lib/lufa/LUFA/Drivers/USB/Core/DeviceStandardReq.c **** 
 557               		.loc 1 228 34 is_stmt 0 view .LVU183
 558 0166 8AE2      		ldi r24,lo8(42)
 559 0168 8983      		std Y+1,r24
 230:lib/lufa/LUFA/Drivers/USB/Core/DeviceStandardReq.c **** 
 560               		.loc 1 230 2 is_stmt 1 view .LVU184
 561               	.LVL38:
 562               	.LBB239:
 563               	.LBI239:
 225:lib/lufa/LUFA/Drivers/USB/Core/AVR8/../AVR8/Device_AVR8.h **** 			}
 226:lib/lufa/LUFA/Drivers/USB/Core/AVR8/../AVR8/Device_AVR8.h **** 
 227:lib/lufa/LUFA/Drivers/USB/Core/AVR8/../AVR8/Device_AVR8.h **** 			static inline bool USB_Device_IsAddressSet(void) ATTR_ALWAYS_INLINE ATTR_WARN_UNUSED_RESULT;
 228:lib/lufa/LUFA/Drivers/USB/Core/AVR8/../AVR8/Device_AVR8.h **** 			static inline bool USB_Device_IsAddressSet(void)
 229:lib/lufa/LUFA/Drivers/USB/Core/AVR8/../AVR8/Device_AVR8.h **** 			{
 230:lib/lufa/LUFA/Drivers/USB/Core/AVR8/../AVR8/Device_AVR8.h **** 				return (UDADDR & (1 << ADDEN));
 231:lib/lufa/LUFA/Drivers/USB/Core/AVR8/../AVR8/Device_AVR8.h **** 			}
 232:lib/lufa/LUFA/Drivers/USB/Core/AVR8/../AVR8/Device_AVR8.h **** 
 233:lib/lufa/LUFA/Drivers/USB/Core/AVR8/../AVR8/Device_AVR8.h **** 			#if (USE_INTERNAL_SERIAL != NO_DESCRIPTOR)
 234:lib/lufa/LUFA/Drivers/USB/Core/AVR8/../AVR8/Device_AVR8.h **** 			static inline void USB_Device_GetSerialString(uint16_t* const UnicodeString) ATTR_NON_NULL_PTR_A
 235:lib/lufa/LUFA/Drivers/USB/Core/AVR8/../AVR8/Device_AVR8.h **** 			static inline void USB_Device_GetSerialString(uint16_t* const UnicodeString)
 564               		.loc 3 235 23 view .LVU185
 565               	.LBB240:
 236:lib/lufa/LUFA/Drivers/USB/Core/AVR8/../AVR8/Device_AVR8.h **** 			{
 237:lib/lufa/LUFA/Drivers/USB/Core/AVR8/../AVR8/Device_AVR8.h **** 				uint_reg_t CurrentGlobalInt = GetGlobalInterruptMask();
 566               		.loc 3 237 5 view .LVU186
 567               	.LBB241:
 568               	.LBI241:
 569               		.file 4 "lib/lufa/LUFA/Drivers/USB/Core/../../../Common/Common.h"
   1:lib/lufa/LUFA/Drivers/USB/Core/../../../Common/Common.h **** /*
   2:lib/lufa/LUFA/Drivers/USB/Core/../../../Common/Common.h ****              LUFA Library
   3:lib/lufa/LUFA/Drivers/USB/Core/../../../Common/Common.h ****      Copyright (C) Dean Camera, 2019.
   4:lib/lufa/LUFA/Drivers/USB/Core/../../../Common/Common.h **** 
   5:lib/lufa/LUFA/Drivers/USB/Core/../../../Common/Common.h ****   dean [at] fourwalledcubicle [dot] com
   6:lib/lufa/LUFA/Drivers/USB/Core/../../../Common/Common.h ****            www.lufa-lib.org
   7:lib/lufa/LUFA/Drivers/USB/Core/../../../Common/Common.h **** */
   8:lib/lufa/LUFA/Drivers/USB/Core/../../../Common/Common.h **** 
   9:lib/lufa/LUFA/Drivers/USB/Core/../../../Common/Common.h **** /*
  10:lib/lufa/LUFA/Drivers/USB/Core/../../../Common/Common.h ****   Copyright 2019  Dean Camera (dean [at] fourwalledcubicle [dot] com)
  11:lib/lufa/LUFA/Drivers/USB/Core/../../../Common/Common.h **** 
  12:lib/lufa/LUFA/Drivers/USB/Core/../../../Common/Common.h ****   Permission to use, copy, modify, distribute, and sell this
  13:lib/lufa/LUFA/Drivers/USB/Core/../../../Common/Common.h ****   software and its documentation for any purpose is hereby granted
  14:lib/lufa/LUFA/Drivers/USB/Core/../../../Common/Common.h ****   without fee, provided that the above copyright notice appear in
  15:lib/lufa/LUFA/Drivers/USB/Core/../../../Common/Common.h ****   all copies and that both that the copyright notice and this
  16:lib/lufa/LUFA/Drivers/USB/Core/../../../Common/Common.h ****   permission notice and warranty disclaimer appear in supporting
  17:lib/lufa/LUFA/Drivers/USB/Core/../../../Common/Common.h ****   documentation, and that the name of the author not be used in
  18:lib/lufa/LUFA/Drivers/USB/Core/../../../Common/Common.h ****   advertising or publicity pertaining to distribution of the
  19:lib/lufa/LUFA/Drivers/USB/Core/../../../Common/Common.h ****   software without specific, written prior permission.
  20:lib/lufa/LUFA/Drivers/USB/Core/../../../Common/Common.h **** 
  21:lib/lufa/LUFA/Drivers/USB/Core/../../../Common/Common.h ****   The author disclaims all warranties with regard to this
  22:lib/lufa/LUFA/Drivers/USB/Core/../../../Common/Common.h ****   software, including all implied warranties of merchantability
  23:lib/lufa/LUFA/Drivers/USB/Core/../../../Common/Common.h ****   and fitness.  In no event shall the author be liable for any
  24:lib/lufa/LUFA/Drivers/USB/Core/../../../Common/Common.h ****   special, indirect or consequential damages or any damages
  25:lib/lufa/LUFA/Drivers/USB/Core/../../../Common/Common.h ****   whatsoever resulting from loss of use, data or profits, whether
  26:lib/lufa/LUFA/Drivers/USB/Core/../../../Common/Common.h ****   in an action of contract, negligence or other tortious action,
  27:lib/lufa/LUFA/Drivers/USB/Core/../../../Common/Common.h ****   arising out of or in connection with the use or performance of
  28:lib/lufa/LUFA/Drivers/USB/Core/../../../Common/Common.h ****   this software.
  29:lib/lufa/LUFA/Drivers/USB/Core/../../../Common/Common.h **** */
  30:lib/lufa/LUFA/Drivers/USB/Core/../../../Common/Common.h **** 
  31:lib/lufa/LUFA/Drivers/USB/Core/../../../Common/Common.h **** /** \dir
  32:lib/lufa/LUFA/Drivers/USB/Core/../../../Common/Common.h ****  *  \brief Common library header files.
  33:lib/lufa/LUFA/Drivers/USB/Core/../../../Common/Common.h ****  *
  34:lib/lufa/LUFA/Drivers/USB/Core/../../../Common/Common.h ****  *  This folder contains header files which are common to all parts of the LUFA library. They may b
  35:lib/lufa/LUFA/Drivers/USB/Core/../../../Common/Common.h ****  *  user applications.
  36:lib/lufa/LUFA/Drivers/USB/Core/../../../Common/Common.h ****  */
  37:lib/lufa/LUFA/Drivers/USB/Core/../../../Common/Common.h **** 
  38:lib/lufa/LUFA/Drivers/USB/Core/../../../Common/Common.h **** /** \file
  39:lib/lufa/LUFA/Drivers/USB/Core/../../../Common/Common.h ****  *  \brief Common library convenience headers, macros and functions.
  40:lib/lufa/LUFA/Drivers/USB/Core/../../../Common/Common.h ****  *
  41:lib/lufa/LUFA/Drivers/USB/Core/../../../Common/Common.h ****  *  \copydetails Group_Common
  42:lib/lufa/LUFA/Drivers/USB/Core/../../../Common/Common.h ****  */
  43:lib/lufa/LUFA/Drivers/USB/Core/../../../Common/Common.h **** 
  44:lib/lufa/LUFA/Drivers/USB/Core/../../../Common/Common.h **** /** \defgroup Group_Common Common Utility Headers - LUFA/Drivers/Common/Common.h
  45:lib/lufa/LUFA/Drivers/USB/Core/../../../Common/Common.h ****  *  \brief Common library convenience headers, macros and functions.
  46:lib/lufa/LUFA/Drivers/USB/Core/../../../Common/Common.h ****  *
  47:lib/lufa/LUFA/Drivers/USB/Core/../../../Common/Common.h ****  *  Common utility headers containing macros, functions, enums and types which are common to all
  48:lib/lufa/LUFA/Drivers/USB/Core/../../../Common/Common.h ****  *  aspects of the library.
  49:lib/lufa/LUFA/Drivers/USB/Core/../../../Common/Common.h ****  *
  50:lib/lufa/LUFA/Drivers/USB/Core/../../../Common/Common.h ****  *  @{
  51:lib/lufa/LUFA/Drivers/USB/Core/../../../Common/Common.h ****  */
  52:lib/lufa/LUFA/Drivers/USB/Core/../../../Common/Common.h **** 
  53:lib/lufa/LUFA/Drivers/USB/Core/../../../Common/Common.h **** /** \defgroup Group_GlobalInt Global Interrupt Macros
  54:lib/lufa/LUFA/Drivers/USB/Core/../../../Common/Common.h ****  *  \brief Convenience macros for the management of interrupts globally within the device.
  55:lib/lufa/LUFA/Drivers/USB/Core/../../../Common/Common.h ****  *
  56:lib/lufa/LUFA/Drivers/USB/Core/../../../Common/Common.h ****  *  Macros and functions to create and control global interrupts within the device.
  57:lib/lufa/LUFA/Drivers/USB/Core/../../../Common/Common.h ****  */
  58:lib/lufa/LUFA/Drivers/USB/Core/../../../Common/Common.h **** 
  59:lib/lufa/LUFA/Drivers/USB/Core/../../../Common/Common.h **** #ifndef __LUFA_COMMON_H__
  60:lib/lufa/LUFA/Drivers/USB/Core/../../../Common/Common.h **** #define __LUFA_COMMON_H__
  61:lib/lufa/LUFA/Drivers/USB/Core/../../../Common/Common.h **** 
  62:lib/lufa/LUFA/Drivers/USB/Core/../../../Common/Common.h **** 	/* Macros: */
  63:lib/lufa/LUFA/Drivers/USB/Core/../../../Common/Common.h **** 		#define __INCLUDE_FROM_COMMON_H
  64:lib/lufa/LUFA/Drivers/USB/Core/../../../Common/Common.h **** 
  65:lib/lufa/LUFA/Drivers/USB/Core/../../../Common/Common.h **** 	/* Includes: */
  66:lib/lufa/LUFA/Drivers/USB/Core/../../../Common/Common.h **** 		#include <stdint.h>
  67:lib/lufa/LUFA/Drivers/USB/Core/../../../Common/Common.h **** 		#include <stdbool.h>
  68:lib/lufa/LUFA/Drivers/USB/Core/../../../Common/Common.h **** 		#include <string.h>
  69:lib/lufa/LUFA/Drivers/USB/Core/../../../Common/Common.h **** 		#include <stddef.h>
  70:lib/lufa/LUFA/Drivers/USB/Core/../../../Common/Common.h **** 
  71:lib/lufa/LUFA/Drivers/USB/Core/../../../Common/Common.h **** 		#include "Architectures.h"
  72:lib/lufa/LUFA/Drivers/USB/Core/../../../Common/Common.h **** 		#include "BoardTypes.h"
  73:lib/lufa/LUFA/Drivers/USB/Core/../../../Common/Common.h **** 		#include "ArchitectureSpecific.h"
  74:lib/lufa/LUFA/Drivers/USB/Core/../../../Common/Common.h **** 		#include "CompilerSpecific.h"
  75:lib/lufa/LUFA/Drivers/USB/Core/../../../Common/Common.h **** 		#include "Attributes.h"
  76:lib/lufa/LUFA/Drivers/USB/Core/../../../Common/Common.h **** 
  77:lib/lufa/LUFA/Drivers/USB/Core/../../../Common/Common.h **** 		#if defined(USE_LUFA_CONFIG_HEADER)
  78:lib/lufa/LUFA/Drivers/USB/Core/../../../Common/Common.h **** 			#include "LUFAConfig.h"
  79:lib/lufa/LUFA/Drivers/USB/Core/../../../Common/Common.h **** 		#endif
  80:lib/lufa/LUFA/Drivers/USB/Core/../../../Common/Common.h **** 
  81:lib/lufa/LUFA/Drivers/USB/Core/../../../Common/Common.h **** 	/* Enable C linkage for C++ Compilers: */
  82:lib/lufa/LUFA/Drivers/USB/Core/../../../Common/Common.h **** 		#if defined(__cplusplus)
  83:lib/lufa/LUFA/Drivers/USB/Core/../../../Common/Common.h **** 			extern "C" {
  84:lib/lufa/LUFA/Drivers/USB/Core/../../../Common/Common.h **** 		#endif
  85:lib/lufa/LUFA/Drivers/USB/Core/../../../Common/Common.h **** 
  86:lib/lufa/LUFA/Drivers/USB/Core/../../../Common/Common.h **** 	/* Architecture specific utility includes: */
  87:lib/lufa/LUFA/Drivers/USB/Core/../../../Common/Common.h **** 		#if defined(__DOXYGEN__)
  88:lib/lufa/LUFA/Drivers/USB/Core/../../../Common/Common.h **** 			/** Type define for an unsigned integer the same width as the selected architecture's machine re
  89:lib/lufa/LUFA/Drivers/USB/Core/../../../Common/Common.h **** 			 *  This is distinct from the non-specific standard int data type, whose width is machine depend
  90:lib/lufa/LUFA/Drivers/USB/Core/../../../Common/Common.h **** 			 *  which may not reflect the actual machine register width on some targets (e.g. AVR8).
  91:lib/lufa/LUFA/Drivers/USB/Core/../../../Common/Common.h **** 			 */
  92:lib/lufa/LUFA/Drivers/USB/Core/../../../Common/Common.h **** 			typedef MACHINE_REG_t uint_reg_t;
  93:lib/lufa/LUFA/Drivers/USB/Core/../../../Common/Common.h **** 		#elif (ARCH == ARCH_AVR8)
  94:lib/lufa/LUFA/Drivers/USB/Core/../../../Common/Common.h **** 			#include <avr/io.h>
  95:lib/lufa/LUFA/Drivers/USB/Core/../../../Common/Common.h **** 			#include <avr/interrupt.h>
  96:lib/lufa/LUFA/Drivers/USB/Core/../../../Common/Common.h **** 			#include <avr/pgmspace.h>
  97:lib/lufa/LUFA/Drivers/USB/Core/../../../Common/Common.h **** 			#include <avr/eeprom.h>
  98:lib/lufa/LUFA/Drivers/USB/Core/../../../Common/Common.h **** 			#include <avr/boot.h>
  99:lib/lufa/LUFA/Drivers/USB/Core/../../../Common/Common.h **** 			#include <math.h>
 100:lib/lufa/LUFA/Drivers/USB/Core/../../../Common/Common.h **** 			#include <util/delay.h>
 101:lib/lufa/LUFA/Drivers/USB/Core/../../../Common/Common.h **** 
 102:lib/lufa/LUFA/Drivers/USB/Core/../../../Common/Common.h **** 			typedef uint8_t uint_reg_t;
 103:lib/lufa/LUFA/Drivers/USB/Core/../../../Common/Common.h **** 
 104:lib/lufa/LUFA/Drivers/USB/Core/../../../Common/Common.h **** 			#define ARCH_HAS_EEPROM_ADDRESS_SPACE
 105:lib/lufa/LUFA/Drivers/USB/Core/../../../Common/Common.h **** 			#define ARCH_HAS_FLASH_ADDRESS_SPACE
 106:lib/lufa/LUFA/Drivers/USB/Core/../../../Common/Common.h **** 			#define ARCH_HAS_MULTI_ADDRESS_SPACE
 107:lib/lufa/LUFA/Drivers/USB/Core/../../../Common/Common.h **** 			#define ARCH_LITTLE_ENDIAN
 108:lib/lufa/LUFA/Drivers/USB/Core/../../../Common/Common.h **** 
 109:lib/lufa/LUFA/Drivers/USB/Core/../../../Common/Common.h **** 			#include "Endianness.h"
 110:lib/lufa/LUFA/Drivers/USB/Core/../../../Common/Common.h **** 		#elif (ARCH == ARCH_UC3)
 111:lib/lufa/LUFA/Drivers/USB/Core/../../../Common/Common.h **** 			#include <avr32/io.h>
 112:lib/lufa/LUFA/Drivers/USB/Core/../../../Common/Common.h **** 			#include <math.h>
 113:lib/lufa/LUFA/Drivers/USB/Core/../../../Common/Common.h **** 
 114:lib/lufa/LUFA/Drivers/USB/Core/../../../Common/Common.h **** 			// === TODO: Find abstracted way to handle these ===
 115:lib/lufa/LUFA/Drivers/USB/Core/../../../Common/Common.h **** 			#define PROGMEM
 116:lib/lufa/LUFA/Drivers/USB/Core/../../../Common/Common.h **** 			#define pgm_read_byte(x)         *x
 117:lib/lufa/LUFA/Drivers/USB/Core/../../../Common/Common.h **** 			#define memcmp_P(...)            memcmp(__VA_ARGS__)
 118:lib/lufa/LUFA/Drivers/USB/Core/../../../Common/Common.h **** 			#define memcpy_P(...)            memcpy(__VA_ARGS__)
 119:lib/lufa/LUFA/Drivers/USB/Core/../../../Common/Common.h **** 			#define strlen_P(...)            strlen(__VA_ARGS__)
 120:lib/lufa/LUFA/Drivers/USB/Core/../../../Common/Common.h **** 			// =================================================
 121:lib/lufa/LUFA/Drivers/USB/Core/../../../Common/Common.h **** 
 122:lib/lufa/LUFA/Drivers/USB/Core/../../../Common/Common.h **** 			typedef uint32_t uint_reg_t;
 123:lib/lufa/LUFA/Drivers/USB/Core/../../../Common/Common.h **** 
 124:lib/lufa/LUFA/Drivers/USB/Core/../../../Common/Common.h **** 			#define ARCH_BIG_ENDIAN
 125:lib/lufa/LUFA/Drivers/USB/Core/../../../Common/Common.h **** 
 126:lib/lufa/LUFA/Drivers/USB/Core/../../../Common/Common.h **** 			#include "Endianness.h"
 127:lib/lufa/LUFA/Drivers/USB/Core/../../../Common/Common.h **** 		#elif (ARCH == ARCH_XMEGA)
 128:lib/lufa/LUFA/Drivers/USB/Core/../../../Common/Common.h **** 			#include <avr/io.h>
 129:lib/lufa/LUFA/Drivers/USB/Core/../../../Common/Common.h **** 			#include <avr/interrupt.h>
 130:lib/lufa/LUFA/Drivers/USB/Core/../../../Common/Common.h **** 			#include <avr/pgmspace.h>
 131:lib/lufa/LUFA/Drivers/USB/Core/../../../Common/Common.h **** 			#include <avr/eeprom.h>
 132:lib/lufa/LUFA/Drivers/USB/Core/../../../Common/Common.h **** 			#include <math.h>
 133:lib/lufa/LUFA/Drivers/USB/Core/../../../Common/Common.h **** 			#include <util/delay.h>
 134:lib/lufa/LUFA/Drivers/USB/Core/../../../Common/Common.h **** 
 135:lib/lufa/LUFA/Drivers/USB/Core/../../../Common/Common.h **** 			typedef uint8_t uint_reg_t;
 136:lib/lufa/LUFA/Drivers/USB/Core/../../../Common/Common.h **** 
 137:lib/lufa/LUFA/Drivers/USB/Core/../../../Common/Common.h **** 			#define ARCH_HAS_EEPROM_ADDRESS_SPACE
 138:lib/lufa/LUFA/Drivers/USB/Core/../../../Common/Common.h **** 			#define ARCH_HAS_FLASH_ADDRESS_SPACE
 139:lib/lufa/LUFA/Drivers/USB/Core/../../../Common/Common.h **** 			#define ARCH_HAS_MULTI_ADDRESS_SPACE
 140:lib/lufa/LUFA/Drivers/USB/Core/../../../Common/Common.h **** 			#define ARCH_LITTLE_ENDIAN
 141:lib/lufa/LUFA/Drivers/USB/Core/../../../Common/Common.h **** 
 142:lib/lufa/LUFA/Drivers/USB/Core/../../../Common/Common.h **** 			#include "Endianness.h"
 143:lib/lufa/LUFA/Drivers/USB/Core/../../../Common/Common.h **** 		#else
 144:lib/lufa/LUFA/Drivers/USB/Core/../../../Common/Common.h **** 			#error Unknown device architecture specified.
 145:lib/lufa/LUFA/Drivers/USB/Core/../../../Common/Common.h **** 		#endif
 146:lib/lufa/LUFA/Drivers/USB/Core/../../../Common/Common.h **** 
 147:lib/lufa/LUFA/Drivers/USB/Core/../../../Common/Common.h **** 	/* Public Interface - May be used in end-application: */
 148:lib/lufa/LUFA/Drivers/USB/Core/../../../Common/Common.h **** 		/* Macros: */
 149:lib/lufa/LUFA/Drivers/USB/Core/../../../Common/Common.h **** 			#if !defined(__DOXYGEN__)
 150:lib/lufa/LUFA/Drivers/USB/Core/../../../Common/Common.h **** 				// Obsolete, retained for compatibility with user code
 151:lib/lufa/LUFA/Drivers/USB/Core/../../../Common/Common.h **** 				#define MACROS                  do
 152:lib/lufa/LUFA/Drivers/USB/Core/../../../Common/Common.h **** 				#define MACROE                  while (0)
 153:lib/lufa/LUFA/Drivers/USB/Core/../../../Common/Common.h **** 			#endif
 154:lib/lufa/LUFA/Drivers/USB/Core/../../../Common/Common.h **** 
 155:lib/lufa/LUFA/Drivers/USB/Core/../../../Common/Common.h **** 			/** Convenience macro to determine the larger of two values.
 156:lib/lufa/LUFA/Drivers/USB/Core/../../../Common/Common.h **** 			 *
 157:lib/lufa/LUFA/Drivers/USB/Core/../../../Common/Common.h **** 			 *  \attention This macro should only be used with operands that do not have side effects from b
 158:lib/lufa/LUFA/Drivers/USB/Core/../../../Common/Common.h **** 			 *             multiple times.
 159:lib/lufa/LUFA/Drivers/USB/Core/../../../Common/Common.h **** 			 *
 160:lib/lufa/LUFA/Drivers/USB/Core/../../../Common/Common.h **** 			 *  \param[in] x  First value to compare
 161:lib/lufa/LUFA/Drivers/USB/Core/../../../Common/Common.h **** 			 *  \param[in] y  First value to compare
 162:lib/lufa/LUFA/Drivers/USB/Core/../../../Common/Common.h **** 			 *
 163:lib/lufa/LUFA/Drivers/USB/Core/../../../Common/Common.h **** 			 *  \return The larger of the two input parameters
 164:lib/lufa/LUFA/Drivers/USB/Core/../../../Common/Common.h **** 			 */
 165:lib/lufa/LUFA/Drivers/USB/Core/../../../Common/Common.h **** 			#if !defined(MAX) || defined(__DOXYGEN__)
 166:lib/lufa/LUFA/Drivers/USB/Core/../../../Common/Common.h **** 				#define MAX(x, y)               (((x) > (y)) ? (x) : (y))
 167:lib/lufa/LUFA/Drivers/USB/Core/../../../Common/Common.h **** 			#endif
 168:lib/lufa/LUFA/Drivers/USB/Core/../../../Common/Common.h **** 
 169:lib/lufa/LUFA/Drivers/USB/Core/../../../Common/Common.h **** 			/** Convenience macro to determine the smaller of two values.
 170:lib/lufa/LUFA/Drivers/USB/Core/../../../Common/Common.h **** 			 *
 171:lib/lufa/LUFA/Drivers/USB/Core/../../../Common/Common.h **** 			 *  \attention This macro should only be used with operands that do not have side effects from b
 172:lib/lufa/LUFA/Drivers/USB/Core/../../../Common/Common.h **** 			 *             multiple times.
 173:lib/lufa/LUFA/Drivers/USB/Core/../../../Common/Common.h **** 			 *
 174:lib/lufa/LUFA/Drivers/USB/Core/../../../Common/Common.h **** 			 *  \param[in] x  First value to compare.
 175:lib/lufa/LUFA/Drivers/USB/Core/../../../Common/Common.h **** 			 *  \param[in] y  First value to compare.
 176:lib/lufa/LUFA/Drivers/USB/Core/../../../Common/Common.h **** 			 *
 177:lib/lufa/LUFA/Drivers/USB/Core/../../../Common/Common.h **** 			 *  \return The smaller of the two input parameters
 178:lib/lufa/LUFA/Drivers/USB/Core/../../../Common/Common.h **** 			 */
 179:lib/lufa/LUFA/Drivers/USB/Core/../../../Common/Common.h **** 			#if !defined(MIN) || defined(__DOXYGEN__)
 180:lib/lufa/LUFA/Drivers/USB/Core/../../../Common/Common.h **** 				#define MIN(x, y)               (((x) < (y)) ? (x) : (y))
 181:lib/lufa/LUFA/Drivers/USB/Core/../../../Common/Common.h **** 			#endif
 182:lib/lufa/LUFA/Drivers/USB/Core/../../../Common/Common.h **** 
 183:lib/lufa/LUFA/Drivers/USB/Core/../../../Common/Common.h **** 			#if !defined(STRINGIFY) || defined(__DOXYGEN__)
 184:lib/lufa/LUFA/Drivers/USB/Core/../../../Common/Common.h **** 				/** Converts the given input into a string, via the C Preprocessor. This macro puts literal quo
 185:lib/lufa/LUFA/Drivers/USB/Core/../../../Common/Common.h **** 				 *  marks around the input, converting the source into a string literal.
 186:lib/lufa/LUFA/Drivers/USB/Core/../../../Common/Common.h **** 				 *
 187:lib/lufa/LUFA/Drivers/USB/Core/../../../Common/Common.h **** 				 *  \param[in] x  Input to convert into a string literal.
 188:lib/lufa/LUFA/Drivers/USB/Core/../../../Common/Common.h **** 				 *
 189:lib/lufa/LUFA/Drivers/USB/Core/../../../Common/Common.h **** 				 *  \return String version of the input.
 190:lib/lufa/LUFA/Drivers/USB/Core/../../../Common/Common.h **** 				 */
 191:lib/lufa/LUFA/Drivers/USB/Core/../../../Common/Common.h **** 				#define STRINGIFY(x)            #x
 192:lib/lufa/LUFA/Drivers/USB/Core/../../../Common/Common.h **** 
 193:lib/lufa/LUFA/Drivers/USB/Core/../../../Common/Common.h **** 				/** Converts the given input into a string after macro expansion, via the C Preprocessor. This 
 194:lib/lufa/LUFA/Drivers/USB/Core/../../../Common/Common.h **** 				 *  literal quotation marks around the expanded input, converting the source into a string lite
 195:lib/lufa/LUFA/Drivers/USB/Core/../../../Common/Common.h **** 				 *
 196:lib/lufa/LUFA/Drivers/USB/Core/../../../Common/Common.h **** 				 *  \param[in] x  Input to expand and convert into a string literal.
 197:lib/lufa/LUFA/Drivers/USB/Core/../../../Common/Common.h **** 				 *
 198:lib/lufa/LUFA/Drivers/USB/Core/../../../Common/Common.h **** 				 *  \return String version of the expanded input.
 199:lib/lufa/LUFA/Drivers/USB/Core/../../../Common/Common.h **** 				 */
 200:lib/lufa/LUFA/Drivers/USB/Core/../../../Common/Common.h **** 				#define STRINGIFY_EXPANDED(x)   STRINGIFY(x)
 201:lib/lufa/LUFA/Drivers/USB/Core/../../../Common/Common.h **** 			#endif
 202:lib/lufa/LUFA/Drivers/USB/Core/../../../Common/Common.h **** 
 203:lib/lufa/LUFA/Drivers/USB/Core/../../../Common/Common.h **** 			#if !defined(CONCAT) || defined(__DOXYGEN__)
 204:lib/lufa/LUFA/Drivers/USB/Core/../../../Common/Common.h **** 				/** Concatenates the given input into a single token, via the C Preprocessor.
 205:lib/lufa/LUFA/Drivers/USB/Core/../../../Common/Common.h **** 				 *
 206:lib/lufa/LUFA/Drivers/USB/Core/../../../Common/Common.h **** 				 *  \param[in] x  First item to concatenate.
 207:lib/lufa/LUFA/Drivers/USB/Core/../../../Common/Common.h **** 				 *  \param[in] y  Second item to concatenate.
 208:lib/lufa/LUFA/Drivers/USB/Core/../../../Common/Common.h **** 				 *
 209:lib/lufa/LUFA/Drivers/USB/Core/../../../Common/Common.h **** 				 *  \return Concatenated version of the input.
 210:lib/lufa/LUFA/Drivers/USB/Core/../../../Common/Common.h **** 				 */
 211:lib/lufa/LUFA/Drivers/USB/Core/../../../Common/Common.h **** 				#define CONCAT(x, y)            x ## y
 212:lib/lufa/LUFA/Drivers/USB/Core/../../../Common/Common.h **** 
 213:lib/lufa/LUFA/Drivers/USB/Core/../../../Common/Common.h **** 				/** CConcatenates the given input into a single token after macro expansion, via the C Preproce
 214:lib/lufa/LUFA/Drivers/USB/Core/../../../Common/Common.h **** 				 *
 215:lib/lufa/LUFA/Drivers/USB/Core/../../../Common/Common.h **** 				 *  \param[in] x  First item to concatenate.
 216:lib/lufa/LUFA/Drivers/USB/Core/../../../Common/Common.h **** 				 *  \param[in] y  Second item to concatenate.
 217:lib/lufa/LUFA/Drivers/USB/Core/../../../Common/Common.h **** 				 *
 218:lib/lufa/LUFA/Drivers/USB/Core/../../../Common/Common.h **** 				 *  \return Concatenated version of the expanded input.
 219:lib/lufa/LUFA/Drivers/USB/Core/../../../Common/Common.h **** 				 */
 220:lib/lufa/LUFA/Drivers/USB/Core/../../../Common/Common.h **** 				#define CONCAT_EXPANDED(x, y)   CONCAT(x, y)
 221:lib/lufa/LUFA/Drivers/USB/Core/../../../Common/Common.h **** 			#endif
 222:lib/lufa/LUFA/Drivers/USB/Core/../../../Common/Common.h **** 
 223:lib/lufa/LUFA/Drivers/USB/Core/../../../Common/Common.h **** 			#if !defined(ISR) || defined(__DOXYGEN__)
 224:lib/lufa/LUFA/Drivers/USB/Core/../../../Common/Common.h **** 				/** Macro for the definition of interrupt service routines, so that the compiler can insert the
 225:lib/lufa/LUFA/Drivers/USB/Core/../../../Common/Common.h **** 				 *  prologue and epilogue code to properly manage the interrupt routine without affecting the m
 226:lib/lufa/LUFA/Drivers/USB/Core/../../../Common/Common.h **** 				 *  state with unintentional side-effects.
 227:lib/lufa/LUFA/Drivers/USB/Core/../../../Common/Common.h **** 				 *
 228:lib/lufa/LUFA/Drivers/USB/Core/../../../Common/Common.h **** 				 *  Interrupt handlers written using this macro may still need to be registered with the microc
 229:lib/lufa/LUFA/Drivers/USB/Core/../../../Common/Common.h **** 				 *  Interrupt Controller (if present) before they will properly handle incoming interrupt event
 230:lib/lufa/LUFA/Drivers/USB/Core/../../../Common/Common.h **** 				 *
 231:lib/lufa/LUFA/Drivers/USB/Core/../../../Common/Common.h **** 				 *  \note This macro is only supplied on some architectures, where the standard library does no
 232:lib/lufa/LUFA/Drivers/USB/Core/../../../Common/Common.h **** 				 *        definition. If an existing definition exists, the alternative definition here will be
 233:lib/lufa/LUFA/Drivers/USB/Core/../../../Common/Common.h **** 				 *
 234:lib/lufa/LUFA/Drivers/USB/Core/../../../Common/Common.h **** 				 *  \ingroup Group_GlobalInt
 235:lib/lufa/LUFA/Drivers/USB/Core/../../../Common/Common.h **** 				 *
 236:lib/lufa/LUFA/Drivers/USB/Core/../../../Common/Common.h **** 				 *  \param[in] Name  Unique name of the interrupt service routine.
 237:lib/lufa/LUFA/Drivers/USB/Core/../../../Common/Common.h **** 				 */
 238:lib/lufa/LUFA/Drivers/USB/Core/../../../Common/Common.h **** 				#define ISR(Name, ...)          void Name (void) __attribute__((__interrupt__)) __VA_ARGS__; vo
 239:lib/lufa/LUFA/Drivers/USB/Core/../../../Common/Common.h **** 			#endif
 240:lib/lufa/LUFA/Drivers/USB/Core/../../../Common/Common.h **** 
 241:lib/lufa/LUFA/Drivers/USB/Core/../../../Common/Common.h **** 		/* Inline Functions: */
 242:lib/lufa/LUFA/Drivers/USB/Core/../../../Common/Common.h **** 			/** Function to reverse the individual bits in a byte - i.e. bit 7 is moved to bit 0, bit 6 to b
 243:lib/lufa/LUFA/Drivers/USB/Core/../../../Common/Common.h **** 			 *  etc.
 244:lib/lufa/LUFA/Drivers/USB/Core/../../../Common/Common.h **** 			 *
 245:lib/lufa/LUFA/Drivers/USB/Core/../../../Common/Common.h **** 			 *  \param[in] Byte  Byte of data whose bits are to be reversed.
 246:lib/lufa/LUFA/Drivers/USB/Core/../../../Common/Common.h **** 			 *
 247:lib/lufa/LUFA/Drivers/USB/Core/../../../Common/Common.h **** 			 *  \return Input data with the individual bits reversed (mirrored).
 248:lib/lufa/LUFA/Drivers/USB/Core/../../../Common/Common.h **** 			 */
 249:lib/lufa/LUFA/Drivers/USB/Core/../../../Common/Common.h **** 			static inline uint8_t BitReverse(uint8_t Byte) ATTR_WARN_UNUSED_RESULT ATTR_CONST;
 250:lib/lufa/LUFA/Drivers/USB/Core/../../../Common/Common.h **** 			static inline uint8_t BitReverse(uint8_t Byte)
 251:lib/lufa/LUFA/Drivers/USB/Core/../../../Common/Common.h **** 			{
 252:lib/lufa/LUFA/Drivers/USB/Core/../../../Common/Common.h **** 				Byte = (((Byte & 0xF0) >> 4) | ((Byte & 0x0F) << 4));
 253:lib/lufa/LUFA/Drivers/USB/Core/../../../Common/Common.h **** 				Byte = (((Byte & 0xCC) >> 2) | ((Byte & 0x33) << 2));
 254:lib/lufa/LUFA/Drivers/USB/Core/../../../Common/Common.h **** 				Byte = (((Byte & 0xAA) >> 1) | ((Byte & 0x55) << 1));
 255:lib/lufa/LUFA/Drivers/USB/Core/../../../Common/Common.h **** 
 256:lib/lufa/LUFA/Drivers/USB/Core/../../../Common/Common.h **** 				return Byte;
 257:lib/lufa/LUFA/Drivers/USB/Core/../../../Common/Common.h **** 			}
 258:lib/lufa/LUFA/Drivers/USB/Core/../../../Common/Common.h **** 
 259:lib/lufa/LUFA/Drivers/USB/Core/../../../Common/Common.h **** 			/** Function to perform a blocking delay for a specified number of milliseconds. The actual dela
 260:lib/lufa/LUFA/Drivers/USB/Core/../../../Common/Common.h **** 			 *  at a minimum the specified number of milliseconds, however due to loop overhead and internal
 261:lib/lufa/LUFA/Drivers/USB/Core/../../../Common/Common.h **** 			 *  may be slightly higher.
 262:lib/lufa/LUFA/Drivers/USB/Core/../../../Common/Common.h **** 			 *
 263:lib/lufa/LUFA/Drivers/USB/Core/../../../Common/Common.h **** 			 *  \param[in] Milliseconds  Number of milliseconds to delay
 264:lib/lufa/LUFA/Drivers/USB/Core/../../../Common/Common.h **** 			 */
 265:lib/lufa/LUFA/Drivers/USB/Core/../../../Common/Common.h **** 			static inline void Delay_MS(uint16_t Milliseconds) ATTR_ALWAYS_INLINE;
 266:lib/lufa/LUFA/Drivers/USB/Core/../../../Common/Common.h **** 			static inline void Delay_MS(uint16_t Milliseconds)
 267:lib/lufa/LUFA/Drivers/USB/Core/../../../Common/Common.h **** 			{
 268:lib/lufa/LUFA/Drivers/USB/Core/../../../Common/Common.h **** 				#if (ARCH == ARCH_AVR8)
 269:lib/lufa/LUFA/Drivers/USB/Core/../../../Common/Common.h **** 				if (GCC_IS_COMPILE_CONST(Milliseconds))
 270:lib/lufa/LUFA/Drivers/USB/Core/../../../Common/Common.h **** 				{
 271:lib/lufa/LUFA/Drivers/USB/Core/../../../Common/Common.h **** 					_delay_ms(Milliseconds);
 272:lib/lufa/LUFA/Drivers/USB/Core/../../../Common/Common.h **** 				}
 273:lib/lufa/LUFA/Drivers/USB/Core/../../../Common/Common.h **** 				else
 274:lib/lufa/LUFA/Drivers/USB/Core/../../../Common/Common.h **** 				{
 275:lib/lufa/LUFA/Drivers/USB/Core/../../../Common/Common.h **** 					while (Milliseconds--)
 276:lib/lufa/LUFA/Drivers/USB/Core/../../../Common/Common.h **** 					  _delay_ms(1);
 277:lib/lufa/LUFA/Drivers/USB/Core/../../../Common/Common.h **** 				}
 278:lib/lufa/LUFA/Drivers/USB/Core/../../../Common/Common.h **** 				#elif (ARCH == ARCH_UC3)
 279:lib/lufa/LUFA/Drivers/USB/Core/../../../Common/Common.h **** 				while (Milliseconds--)
 280:lib/lufa/LUFA/Drivers/USB/Core/../../../Common/Common.h **** 				{
 281:lib/lufa/LUFA/Drivers/USB/Core/../../../Common/Common.h **** 					__builtin_mtsr(AVR32_COUNT, 0);
 282:lib/lufa/LUFA/Drivers/USB/Core/../../../Common/Common.h **** 					while ((uint32_t)__builtin_mfsr(AVR32_COUNT) < (F_CPU / 1000));
 283:lib/lufa/LUFA/Drivers/USB/Core/../../../Common/Common.h **** 				}
 284:lib/lufa/LUFA/Drivers/USB/Core/../../../Common/Common.h **** 				#elif (ARCH == ARCH_XMEGA)
 285:lib/lufa/LUFA/Drivers/USB/Core/../../../Common/Common.h **** 				if (GCC_IS_COMPILE_CONST(Milliseconds))
 286:lib/lufa/LUFA/Drivers/USB/Core/../../../Common/Common.h **** 				{
 287:lib/lufa/LUFA/Drivers/USB/Core/../../../Common/Common.h **** 					_delay_ms(Milliseconds);
 288:lib/lufa/LUFA/Drivers/USB/Core/../../../Common/Common.h **** 				}
 289:lib/lufa/LUFA/Drivers/USB/Core/../../../Common/Common.h **** 				else
 290:lib/lufa/LUFA/Drivers/USB/Core/../../../Common/Common.h **** 				{
 291:lib/lufa/LUFA/Drivers/USB/Core/../../../Common/Common.h **** 					while (Milliseconds--)
 292:lib/lufa/LUFA/Drivers/USB/Core/../../../Common/Common.h **** 					  _delay_ms(1);
 293:lib/lufa/LUFA/Drivers/USB/Core/../../../Common/Common.h **** 				}
 294:lib/lufa/LUFA/Drivers/USB/Core/../../../Common/Common.h **** 				#endif
 295:lib/lufa/LUFA/Drivers/USB/Core/../../../Common/Common.h **** 			}
 296:lib/lufa/LUFA/Drivers/USB/Core/../../../Common/Common.h **** 
 297:lib/lufa/LUFA/Drivers/USB/Core/../../../Common/Common.h **** 			/** Retrieves a mask which contains the current state of the global interrupts for the device. T
 298:lib/lufa/LUFA/Drivers/USB/Core/../../../Common/Common.h **** 			 *  value can be stored before altering the global interrupt enable state, before restoring the
 299:lib/lufa/LUFA/Drivers/USB/Core/../../../Common/Common.h **** 			 *  flag(s) back to their previous values after a critical section using \ref SetGlobalInterrupt
 300:lib/lufa/LUFA/Drivers/USB/Core/../../../Common/Common.h **** 			 *
 301:lib/lufa/LUFA/Drivers/USB/Core/../../../Common/Common.h **** 			 *  \ingroup Group_GlobalInt
 302:lib/lufa/LUFA/Drivers/USB/Core/../../../Common/Common.h **** 			 *
 303:lib/lufa/LUFA/Drivers/USB/Core/../../../Common/Common.h **** 			 *  \return  Mask containing the current Global Interrupt Enable Mask bit(s).
 304:lib/lufa/LUFA/Drivers/USB/Core/../../../Common/Common.h **** 			 */
 305:lib/lufa/LUFA/Drivers/USB/Core/../../../Common/Common.h **** 			static inline uint_reg_t GetGlobalInterruptMask(void) ATTR_ALWAYS_INLINE ATTR_WARN_UNUSED_RESULT
 306:lib/lufa/LUFA/Drivers/USB/Core/../../../Common/Common.h **** 			static inline uint_reg_t GetGlobalInterruptMask(void)
 570               		.loc 4 306 29 view .LVU187
 571               	.LBB242:
 307:lib/lufa/LUFA/Drivers/USB/Core/../../../Common/Common.h **** 			{
 308:lib/lufa/LUFA/Drivers/USB/Core/../../../Common/Common.h **** 				GCC_MEMORY_BARRIER();
 572               		.loc 4 308 5 view .LVU188
 573               		.loc 4 308 25 view .LVU189
 309:lib/lufa/LUFA/Drivers/USB/Core/../../../Common/Common.h **** 
 310:lib/lufa/LUFA/Drivers/USB/Core/../../../Common/Common.h **** 				#if (ARCH == ARCH_AVR8)
 311:lib/lufa/LUFA/Drivers/USB/Core/../../../Common/Common.h **** 				return SREG;
 574               		.loc 4 311 5 view .LVU190
 575               		.loc 4 311 12 is_stmt 0 view .LVU191
 576 016a 4FB7      		in r20,__SREG__
 577               	.LVL39:
 578               		.loc 4 311 12 view .LVU192
 579               	.LBE242:
 580               	.LBE241:
 238:lib/lufa/LUFA/Drivers/USB/Core/AVR8/../AVR8/Device_AVR8.h **** 				GlobalInterruptDisable();
 581               		.loc 3 238 5 is_stmt 1 view .LVU193
 582               	.LBB243:
 583               	.LBI243:
 312:lib/lufa/LUFA/Drivers/USB/Core/../../../Common/Common.h **** 				#elif (ARCH == ARCH_UC3)
 313:lib/lufa/LUFA/Drivers/USB/Core/../../../Common/Common.h **** 				return __builtin_mfsr(AVR32_SR);
 314:lib/lufa/LUFA/Drivers/USB/Core/../../../Common/Common.h **** 				#elif (ARCH == ARCH_XMEGA)
 315:lib/lufa/LUFA/Drivers/USB/Core/../../../Common/Common.h **** 				return SREG;
 316:lib/lufa/LUFA/Drivers/USB/Core/../../../Common/Common.h **** 				#endif
 317:lib/lufa/LUFA/Drivers/USB/Core/../../../Common/Common.h **** 			}
 318:lib/lufa/LUFA/Drivers/USB/Core/../../../Common/Common.h **** 
 319:lib/lufa/LUFA/Drivers/USB/Core/../../../Common/Common.h **** 			/** Sets the global interrupt enable state of the microcontroller to the mask passed into the fu
 320:lib/lufa/LUFA/Drivers/USB/Core/../../../Common/Common.h **** 			 *  This can be combined with \ref GetGlobalInterruptMask() to save and restore the Global Inter
 321:lib/lufa/LUFA/Drivers/USB/Core/../../../Common/Common.h **** 			 *  Mask bit(s) of the device after a critical section has completed.
 322:lib/lufa/LUFA/Drivers/USB/Core/../../../Common/Common.h **** 			 *
 323:lib/lufa/LUFA/Drivers/USB/Core/../../../Common/Common.h **** 			 *  \ingroup Group_GlobalInt
 324:lib/lufa/LUFA/Drivers/USB/Core/../../../Common/Common.h **** 			 *
 325:lib/lufa/LUFA/Drivers/USB/Core/../../../Common/Common.h **** 			 *  \param[in] GlobalIntState  Global Interrupt Enable Mask value to use
 326:lib/lufa/LUFA/Drivers/USB/Core/../../../Common/Common.h **** 			 */
 327:lib/lufa/LUFA/Drivers/USB/Core/../../../Common/Common.h **** 			static inline void SetGlobalInterruptMask(const uint_reg_t GlobalIntState) ATTR_ALWAYS_INLINE;
 328:lib/lufa/LUFA/Drivers/USB/Core/../../../Common/Common.h **** 			static inline void SetGlobalInterruptMask(const uint_reg_t GlobalIntState)
 329:lib/lufa/LUFA/Drivers/USB/Core/../../../Common/Common.h **** 			{
 330:lib/lufa/LUFA/Drivers/USB/Core/../../../Common/Common.h **** 				GCC_MEMORY_BARRIER();
 331:lib/lufa/LUFA/Drivers/USB/Core/../../../Common/Common.h **** 
 332:lib/lufa/LUFA/Drivers/USB/Core/../../../Common/Common.h **** 				#if (ARCH == ARCH_AVR8)
 333:lib/lufa/LUFA/Drivers/USB/Core/../../../Common/Common.h **** 				SREG = GlobalIntState;
 334:lib/lufa/LUFA/Drivers/USB/Core/../../../Common/Common.h **** 				#elif (ARCH == ARCH_UC3)
 335:lib/lufa/LUFA/Drivers/USB/Core/../../../Common/Common.h **** 				if (GlobalIntState & AVR32_SR_GM)
 336:lib/lufa/LUFA/Drivers/USB/Core/../../../Common/Common.h **** 				  __builtin_ssrf(AVR32_SR_GM_OFFSET);
 337:lib/lufa/LUFA/Drivers/USB/Core/../../../Common/Common.h **** 				else
 338:lib/lufa/LUFA/Drivers/USB/Core/../../../Common/Common.h **** 				  __builtin_csrf(AVR32_SR_GM_OFFSET);
 339:lib/lufa/LUFA/Drivers/USB/Core/../../../Common/Common.h **** 				#elif (ARCH == ARCH_XMEGA)
 340:lib/lufa/LUFA/Drivers/USB/Core/../../../Common/Common.h **** 				SREG = GlobalIntState;
 341:lib/lufa/LUFA/Drivers/USB/Core/../../../Common/Common.h **** 				#endif
 342:lib/lufa/LUFA/Drivers/USB/Core/../../../Common/Common.h **** 
 343:lib/lufa/LUFA/Drivers/USB/Core/../../../Common/Common.h **** 				GCC_MEMORY_BARRIER();
 344:lib/lufa/LUFA/Drivers/USB/Core/../../../Common/Common.h **** 			}
 345:lib/lufa/LUFA/Drivers/USB/Core/../../../Common/Common.h **** 
 346:lib/lufa/LUFA/Drivers/USB/Core/../../../Common/Common.h **** 			/** Enables global interrupt handling for the device, allowing interrupts to be handled.
 347:lib/lufa/LUFA/Drivers/USB/Core/../../../Common/Common.h **** 			 *
 348:lib/lufa/LUFA/Drivers/USB/Core/../../../Common/Common.h **** 			 *  \ingroup Group_GlobalInt
 349:lib/lufa/LUFA/Drivers/USB/Core/../../../Common/Common.h **** 			 */
 350:lib/lufa/LUFA/Drivers/USB/Core/../../../Common/Common.h **** 			static inline void GlobalInterruptEnable(void) ATTR_ALWAYS_INLINE;
 351:lib/lufa/LUFA/Drivers/USB/Core/../../../Common/Common.h **** 			static inline void GlobalInterruptEnable(void)
 352:lib/lufa/LUFA/Drivers/USB/Core/../../../Common/Common.h **** 			{
 353:lib/lufa/LUFA/Drivers/USB/Core/../../../Common/Common.h **** 				GCC_MEMORY_BARRIER();
 354:lib/lufa/LUFA/Drivers/USB/Core/../../../Common/Common.h **** 
 355:lib/lufa/LUFA/Drivers/USB/Core/../../../Common/Common.h **** 				#if (ARCH == ARCH_AVR8)
 356:lib/lufa/LUFA/Drivers/USB/Core/../../../Common/Common.h **** 				sei();
 357:lib/lufa/LUFA/Drivers/USB/Core/../../../Common/Common.h **** 				#elif (ARCH == ARCH_UC3)
 358:lib/lufa/LUFA/Drivers/USB/Core/../../../Common/Common.h **** 				__builtin_csrf(AVR32_SR_GM_OFFSET);
 359:lib/lufa/LUFA/Drivers/USB/Core/../../../Common/Common.h **** 				#elif (ARCH == ARCH_XMEGA)
 360:lib/lufa/LUFA/Drivers/USB/Core/../../../Common/Common.h **** 				sei();
 361:lib/lufa/LUFA/Drivers/USB/Core/../../../Common/Common.h **** 				#endif
 362:lib/lufa/LUFA/Drivers/USB/Core/../../../Common/Common.h **** 
 363:lib/lufa/LUFA/Drivers/USB/Core/../../../Common/Common.h **** 				GCC_MEMORY_BARRIER();
 364:lib/lufa/LUFA/Drivers/USB/Core/../../../Common/Common.h **** 			}
 365:lib/lufa/LUFA/Drivers/USB/Core/../../../Common/Common.h **** 
 366:lib/lufa/LUFA/Drivers/USB/Core/../../../Common/Common.h **** 			/** Disabled global interrupt handling for the device, preventing interrupts from being handled.
 367:lib/lufa/LUFA/Drivers/USB/Core/../../../Common/Common.h **** 			 *
 368:lib/lufa/LUFA/Drivers/USB/Core/../../../Common/Common.h **** 			 *  \ingroup Group_GlobalInt
 369:lib/lufa/LUFA/Drivers/USB/Core/../../../Common/Common.h **** 			 */
 370:lib/lufa/LUFA/Drivers/USB/Core/../../../Common/Common.h **** 			static inline void GlobalInterruptDisable(void) ATTR_ALWAYS_INLINE;
 371:lib/lufa/LUFA/Drivers/USB/Core/../../../Common/Common.h **** 			static inline void GlobalInterruptDisable(void)
 584               		.loc 4 371 23 view .LVU194
 585               	.LBB244:
 372:lib/lufa/LUFA/Drivers/USB/Core/../../../Common/Common.h **** 			{
 373:lib/lufa/LUFA/Drivers/USB/Core/../../../Common/Common.h **** 				GCC_MEMORY_BARRIER();
 586               		.loc 4 373 5 view .LVU195
 587               		.loc 4 373 25 view .LVU196
 374:lib/lufa/LUFA/Drivers/USB/Core/../../../Common/Common.h **** 
 375:lib/lufa/LUFA/Drivers/USB/Core/../../../Common/Common.h **** 				#if (ARCH == ARCH_AVR8)
 376:lib/lufa/LUFA/Drivers/USB/Core/../../../Common/Common.h **** 				cli();
 588               		.loc 4 376 5 view .LVU197
 589               	/* #APP */
 590               	 ;  376 "lib/lufa/LUFA/Drivers/USB/Core/../../../Common/Common.h" 1
 591 016c F894      		cli
 592               	 ;  0 "" 2
 377:lib/lufa/LUFA/Drivers/USB/Core/../../../Common/Common.h **** 				#elif (ARCH == ARCH_UC3)
 378:lib/lufa/LUFA/Drivers/USB/Core/../../../Common/Common.h **** 				__builtin_ssrf(AVR32_SR_GM_OFFSET);
 379:lib/lufa/LUFA/Drivers/USB/Core/../../../Common/Common.h **** 				#elif (ARCH == ARCH_XMEGA)
 380:lib/lufa/LUFA/Drivers/USB/Core/../../../Common/Common.h **** 				cli();
 381:lib/lufa/LUFA/Drivers/USB/Core/../../../Common/Common.h **** 				#endif
 382:lib/lufa/LUFA/Drivers/USB/Core/../../../Common/Common.h **** 
 383:lib/lufa/LUFA/Drivers/USB/Core/../../../Common/Common.h **** 				GCC_MEMORY_BARRIER();
 593               		.loc 4 383 5 view .LVU198
 594               		.loc 4 383 25 view .LVU199
 595               	/* #NOAPP */
 596               	.LBE244:
 597               	.LBE243:
 239:lib/lufa/LUFA/Drivers/USB/Core/AVR8/../AVR8/Device_AVR8.h **** 
 240:lib/lufa/LUFA/Drivers/USB/Core/AVR8/../AVR8/Device_AVR8.h **** 				uint8_t SigReadAddress = INTERNAL_SERIAL_START_ADDRESS;
 598               		.loc 3 240 5 view .LVU200
 599               	.LVL40:
 241:lib/lufa/LUFA/Drivers/USB/Core/AVR8/../AVR8/Device_AVR8.h **** 
 242:lib/lufa/LUFA/Drivers/USB/Core/AVR8/../AVR8/Device_AVR8.h **** 				for (uint8_t SerialCharNum = 0; SerialCharNum < (INTERNAL_SERIAL_LENGTH_BITS / 4); SerialCharNu
 600               		.loc 3 242 5 view .LVU201
 601               	.LBB245:
 602               		.loc 3 242 10 view .LVU202
 603               		.loc 3 242 37 view .LVU203
 604 016e DE01      		movw r26,r28
 605 0170 1396      		adiw r26,3
 606               		.loc 3 242 18 is_stmt 0 view .LVU204
 607 0172 20E0      		ldi r18,0
 608               	.LBE245:
 240:lib/lufa/LUFA/Drivers/USB/Core/AVR8/../AVR8/Device_AVR8.h **** 
 609               		.loc 3 240 13 view .LVU205
 610 0174 3EE0      		ldi r19,lo8(14)
 611               	.LBB250:
 612               	.LBB246:
 613               	.LBB247:
 243:lib/lufa/LUFA/Drivers/USB/Core/AVR8/../AVR8/Device_AVR8.h **** 				{
 244:lib/lufa/LUFA/Drivers/USB/Core/AVR8/../AVR8/Device_AVR8.h **** 					uint8_t SerialByte = boot_signature_byte_get(SigReadAddress);
 614               		.loc 3 244 27 view .LVU206
 615 0176 51E2      		ldi r21,lo8(33)
 616               	.LVL41:
 617               	.L26:
 618               		.loc 3 244 27 view .LVU207
 619               	.LBE247:
 620               		.loc 3 244 6 is_stmt 1 view .LVU208
 621               	.LBB248:
 622               		.loc 3 244 27 view .LVU209
 623               		.loc 3 244 27 view .LVU210
 624 0178 E32F      		mov r30,r19
 625 017a F0E0      		ldi r31,0
 626               	/* #APP */
 627               	 ;  244 "lib/lufa/LUFA/Drivers/USB/Core/AVR8/../AVR8/Device_AVR8.h" 1
 628 017c 5093 5700 		sts 87, r21
 629 0180 E491      		lpm r30, Z
 630               		
 631               	 ;  0 "" 2
 632               	.LVL42:
 633               		.loc 3 244 27 view .LVU211
 634               		.loc 3 244 27 is_stmt 0 view .LVU212
 635               	/* #NOAPP */
 636               	.LBE248:
 245:lib/lufa/LUFA/Drivers/USB/Core/AVR8/../AVR8/Device_AVR8.h **** 
 246:lib/lufa/LUFA/Drivers/USB/Core/AVR8/../AVR8/Device_AVR8.h **** 					if (SerialCharNum & 0x01)
 637               		.loc 3 246 6 is_stmt 1 view .LVU213
 638               		.loc 3 246 9 is_stmt 0 view .LVU214
 639 0182 20FF      		sbrs r18,0
 640 0184 00C0      		rjmp .L23
 247:lib/lufa/LUFA/Drivers/USB/Core/AVR8/../AVR8/Device_AVR8.h **** 					{
 248:lib/lufa/LUFA/Drivers/USB/Core/AVR8/../AVR8/Device_AVR8.h **** 						SerialByte >>= 4;
 641               		.loc 3 248 7 is_stmt 1 view .LVU215
 642               		.loc 3 248 18 is_stmt 0 view .LVU216
 643 0186 E295      		swap r30
 644               	.LVL43:
 645               		.loc 3 248 18 view .LVU217
 646 0188 EF70      		andi r30,lo8(15)
 647               	.LVL44:
 249:lib/lufa/LUFA/Drivers/USB/Core/AVR8/../AVR8/Device_AVR8.h **** 						SigReadAddress++;
 648               		.loc 3 249 7 is_stmt 1 view .LVU218
 649               		.loc 3 249 21 is_stmt 0 view .LVU219
 650 018a 3F5F      		subi r19,lo8(-(1))
 651               	.LVL45:
 652               	.L23:
 250:lib/lufa/LUFA/Drivers/USB/Core/AVR8/../AVR8/Device_AVR8.h **** 					}
 251:lib/lufa/LUFA/Drivers/USB/Core/AVR8/../AVR8/Device_AVR8.h **** 
 252:lib/lufa/LUFA/Drivers/USB/Core/AVR8/../AVR8/Device_AVR8.h **** 					SerialByte &= 0x0F;
 653               		.loc 3 252 6 is_stmt 1 view .LVU220
 654               		.loc 3 252 17 is_stmt 0 view .LVU221
 655 018c EF70      		andi r30,lo8(15)
 656               	.LVL46:
 253:lib/lufa/LUFA/Drivers/USB/Core/AVR8/../AVR8/Device_AVR8.h **** 
 254:lib/lufa/LUFA/Drivers/USB/Core/AVR8/../AVR8/Device_AVR8.h **** 					UnicodeString[SerialCharNum] = cpu_to_le16((SerialByte >= 10) ?
 657               		.loc 3 254 6 is_stmt 1 view .LVU222
 658 018e 8E2F      		mov r24,r30
 659 0190 90E0      		ldi r25,0
 660               		.loc 3 254 37 is_stmt 0 view .LVU223
 661 0192 EA30      		cpi r30,lo8(10)
 662 0194 00F0      		brlo .L24
 663               		.loc 3 254 37 view .LVU224
 664 0196 C796      		adiw r24,55
 665               	.L25:
 666               		.loc 3 254 35 view .LVU225
 667 0198 8D93      		st X+,r24
 668 019a 9D93      		st X+,r25
 669               	.LBE246:
 242:lib/lufa/LUFA/Drivers/USB/Core/AVR8/../AVR8/Device_AVR8.h **** 				{
 670               		.loc 3 242 88 is_stmt 1 view .LVU226
 242:lib/lufa/LUFA/Drivers/USB/Core/AVR8/../AVR8/Device_AVR8.h **** 				{
 671               		.loc 3 242 101 is_stmt 0 view .LVU227
 672 019c 2F5F      		subi r18,lo8(-(1))
 673               	.LVL47:
 242:lib/lufa/LUFA/Drivers/USB/Core/AVR8/../AVR8/Device_AVR8.h **** 				{
 674               		.loc 3 242 37 is_stmt 1 view .LVU228
 242:lib/lufa/LUFA/Drivers/USB/Core/AVR8/../AVR8/Device_AVR8.h **** 				{
 675               		.loc 3 242 5 is_stmt 0 view .LVU229
 676 019e 2431      		cpi r18,lo8(20)
 677 01a0 01F4      		brne .L26
 678               	.LBE250:
 255:lib/lufa/LUFA/Drivers/USB/Core/AVR8/../AVR8/Device_AVR8.h **** 															   (('A' - 10) + SerialByte) : ('0' + SerialByte));
 256:lib/lufa/LUFA/Drivers/USB/Core/AVR8/../AVR8/Device_AVR8.h **** 				}
 257:lib/lufa/LUFA/Drivers/USB/Core/AVR8/../AVR8/Device_AVR8.h **** 
 258:lib/lufa/LUFA/Drivers/USB/Core/AVR8/../AVR8/Device_AVR8.h **** 				SetGlobalInterruptMask(CurrentGlobalInt);
 679               		.loc 3 258 5 is_stmt 1 view .LVU230
 680               	.LVL48:
 681               	.LBB251:
 682               	.LBI251:
 328:lib/lufa/LUFA/Drivers/USB/Core/../../../Common/Common.h **** 			{
 683               		.loc 4 328 23 view .LVU231
 684               	.LBB252:
 330:lib/lufa/LUFA/Drivers/USB/Core/../../../Common/Common.h **** 
 685               		.loc 4 330 5 view .LVU232
 330:lib/lufa/LUFA/Drivers/USB/Core/../../../Common/Common.h **** 
 686               		.loc 4 330 25 view .LVU233
 333:lib/lufa/LUFA/Drivers/USB/Core/../../../Common/Common.h **** 				#elif (ARCH == ARCH_UC3)
 687               		.loc 4 333 5 view .LVU234
 333:lib/lufa/LUFA/Drivers/USB/Core/../../../Common/Common.h **** 				#elif (ARCH == ARCH_UC3)
 688               		.loc 4 333 10 is_stmt 0 view .LVU235
 689 01a2 4FBF      		out __SREG__,r20
 690               	.LVL49:
 343:lib/lufa/LUFA/Drivers/USB/Core/../../../Common/Common.h **** 			}
 691               		.loc 4 343 5 is_stmt 1 view .LVU236
 343:lib/lufa/LUFA/Drivers/USB/Core/../../../Common/Common.h **** 			}
 692               		.loc 4 343 25 view .LVU237
 693               	.LVL50:
 343:lib/lufa/LUFA/Drivers/USB/Core/../../../Common/Common.h **** 			}
 694               		.loc 4 343 25 is_stmt 0 view .LVU238
 695               	.LBE252:
 696               	.LBE251:
 697               	.LBE240:
 698               	.LBE239:
 232:lib/lufa/LUFA/Drivers/USB/Core/DeviceStandardReq.c **** 
 699               		.loc 1 232 2 is_stmt 1 view .LVU239
 700               	.LBB255:
 701               	.LBI255:
 442:lib/lufa/LUFA/Drivers/USB/Core/AVR8/../AVR8/Endpoint_AVR8.h **** 			{
 702               		.loc 2 442 23 view .LVU240
 703               	.LBB256:
 444:lib/lufa/LUFA/Drivers/USB/Core/AVR8/../AVR8/Endpoint_AVR8.h **** 			}
 704               		.loc 2 444 5 view .LVU241
 444:lib/lufa/LUFA/Drivers/USB/Core/AVR8/../AVR8/Endpoint_AVR8.h **** 			}
 705               		.loc 2 444 12 is_stmt 0 view .LVU242
 706 01a4 8091 E800 		lds r24,232
 707 01a8 877F      		andi r24,lo8(-9)
 708 01aa 8093 E800 		sts 232,r24
 709               	.LBE256:
 710               	.LBE255:
 234:lib/lufa/LUFA/Drivers/USB/Core/DeviceStandardReq.c **** 	Endpoint_ClearOUT();
 711               		.loc 1 234 2 is_stmt 1 view .LVU243
 712 01ae 6AE2      		ldi r22,lo8(42)
 713 01b0 70E0      		ldi r23,0
 714 01b2 CE01      		movw r24,r28
 715 01b4 0196      		adiw r24,1
 716 01b6 0E94 0000 		call Endpoint_Write_Control_Stream_LE
 717               	.LVL51:
 235:lib/lufa/LUFA/Drivers/USB/Core/DeviceStandardReq.c **** }
 718               		.loc 1 235 2 view .LVU244
 719               	.LBB257:
 720               	.LBI257:
 468:lib/lufa/LUFA/Drivers/USB/Core/AVR8/../AVR8/Endpoint_AVR8.h **** 			{
 721               		.loc 2 468 23 view .LVU245
 722               	.LBB258:
 471:lib/lufa/LUFA/Drivers/USB/Core/AVR8/../AVR8/Endpoint_AVR8.h **** 				#else
 723               		.loc 2 471 6 view .LVU246
 724               	.L61:
 471:lib/lufa/LUFA/Drivers/USB/Core/AVR8/../AVR8/Endpoint_AVR8.h **** 				#else
 725               		.loc 2 471 6 is_stmt 0 view .LVU247
 726               	.LBE258:
 727               	.LBE257:
 728               	.LBE238:
 729               	.LBE237:
 285:lib/lufa/LUFA/Drivers/USB/Core/DeviceStandardReq.c **** }
 730               		.loc 1 285 2 is_stmt 1 view .LVU248
 731               	.LBB261:
 732               	.LBI261:
 468:lib/lufa/LUFA/Drivers/USB/Core/AVR8/../AVR8/Endpoint_AVR8.h **** 			{
 733               		.loc 2 468 23 view .LVU249
 734               	.LBB262:
 471:lib/lufa/LUFA/Drivers/USB/Core/AVR8/../AVR8/Endpoint_AVR8.h **** 				#else
 735               		.loc 2 471 6 view .LVU250
 471:lib/lufa/LUFA/Drivers/USB/Core/AVR8/../AVR8/Endpoint_AVR8.h **** 				#else
 736               		.loc 2 471 13 is_stmt 0 view .LVU251
 737 01ba 8091 E800 		lds r24,232
 738 01be 8B77      		andi r24,lo8(123)
 739 01c0 8093 E800 		sts 232,r24
 740 01c4 00C0      		rjmp .L3
 741               	.LVL52:
 742               	.L24:
 471:lib/lufa/LUFA/Drivers/USB/Core/AVR8/../AVR8/Endpoint_AVR8.h **** 				#else
 743               		.loc 2 471 13 view .LVU252
 744               	.LBE262:
 745               	.LBE261:
 746               	.LBB263:
 747               	.LBB260:
 748               	.LBB259:
 749               	.LBB254:
 750               	.LBB253:
 751               	.LBB249:
 254:lib/lufa/LUFA/Drivers/USB/Core/AVR8/../AVR8/Device_AVR8.h **** 															   (('A' - 10) + SerialByte) : ('0' + SerialByte));
 752               		.loc 3 254 37 view .LVU253
 753 01c6 C096      		adiw r24,48
 754               	.LVL53:
 254:lib/lufa/LUFA/Drivers/USB/Core/AVR8/../AVR8/Device_AVR8.h **** 															   (('A' - 10) + SerialByte) : ('0' + SerialByte));
 755               		.loc 3 254 37 view .LVU254
 756 01c8 00C0      		rjmp .L25
 757               	.LVL54:
 758               	.L22:
 254:lib/lufa/LUFA/Drivers/USB/Core/AVR8/../AVR8/Device_AVR8.h **** 															   (('A' - 10) + SerialByte) : ('0' + SerialByte));
 759               		.loc 3 254 37 view .LVU255
 760               	.LBE249:
 761               	.LBE253:
 762               	.LBE254:
 763               	.LBE259:
 764               	.LBE260:
 765               	.LBE263:
 257:lib/lufa/LUFA/Drivers/USB/Core/DeviceStandardReq.c **** 	                                                 &DescriptorPointer
 766               		.loc 1 257 2 is_stmt 1 view .LVU256
 257:lib/lufa/LUFA/Drivers/USB/Core/DeviceStandardReq.c **** 	                                                 &DescriptorPointer
 767               		.loc 1 257 24 is_stmt 0 view .LVU257
 768 01ca 6091 0000 		lds r22,USB_ControlRequest+4
 769 01ce 7091 0000 		lds r23,USB_ControlRequest+4+1
 770 01d2 AE01      		movw r20,r28
 771 01d4 4F5F      		subi r20,-1
 772 01d6 5F4F      		sbci r21,-1
 773 01d8 0E94 0000 		call CALLBACK_USB_GetDescriptor
 774               	.LVL55:
 257:lib/lufa/LUFA/Drivers/USB/Core/DeviceStandardReq.c **** 	                                                 &DescriptorPointer
 775               		.loc 1 257 24 view .LVU258
 776 01dc BC01      		movw r22,r24
 777               	.LVL56:
 257:lib/lufa/LUFA/Drivers/USB/Core/DeviceStandardReq.c **** 	                                                 &DescriptorPointer
 778               		.loc 1 257 5 view .LVU259
 779 01de 892B      		or r24,r25
 780 01e0 01F4      		brne .+2
 781 01e2 00C0      		rjmp .L3
 268:lib/lufa/LUFA/Drivers/USB/Core/DeviceStandardReq.c **** 
 782               		.loc 1 268 2 is_stmt 1 view .LVU260
 783               	.LBB264:
 784               	.LBI264:
 442:lib/lufa/LUFA/Drivers/USB/Core/AVR8/../AVR8/Endpoint_AVR8.h **** 			{
 785               		.loc 2 442 23 view .LVU261
 786               	.LBB265:
 444:lib/lufa/LUFA/Drivers/USB/Core/AVR8/../AVR8/Endpoint_AVR8.h **** 			}
 787               		.loc 2 444 5 view .LVU262
 444:lib/lufa/LUFA/Drivers/USB/Core/AVR8/../AVR8/Endpoint_AVR8.h **** 			}
 788               		.loc 2 444 12 is_stmt 0 view .LVU263
 789 01e4 9091 E800 		lds r25,232
 790 01e8 977F      		andi r25,lo8(-9)
 791 01ea 9093 E800 		sts 232,r25
 792               	.LBE265:
 793               	.LBE264:
 275:lib/lufa/LUFA/Drivers/USB/Core/DeviceStandardReq.c **** 	#else
 794               		.loc 1 275 2 is_stmt 1 view .LVU264
 795 01ee 8981      		ldd r24,Y+1
 796 01f0 9A81      		ldd r25,Y+2
 797 01f2 0E94 0000 		call Endpoint_Write_Control_PStream_LE
 798               	.LVL57:
 275:lib/lufa/LUFA/Drivers/USB/Core/DeviceStandardReq.c **** 	#else
 799               		.loc 1 275 2 is_stmt 0 view .LVU265
 800 01f6 00C0      		rjmp .L61
 801               	.LVL58:
 802               	.L6:
 275:lib/lufa/LUFA/Drivers/USB/Core/DeviceStandardReq.c **** 	#else
 803               		.loc 1 275 2 view .LVU266
 804               	.LBE236:
 805               	.LBE235:
 103:lib/lufa/LUFA/Drivers/USB/Core/DeviceStandardReq.c **** 				  USB_Device_GetConfiguration();
 806               		.loc 1 103 5 is_stmt 1 view .LVU267
 103:lib/lufa/LUFA/Drivers/USB/Core/DeviceStandardReq.c **** 				  USB_Device_GetConfiguration();
 807               		.loc 1 103 8 is_stmt 0 view .LVU268
 808 01f8 8038      		cpi r24,lo8(-128)
 809 01fa 01F4      		brne .L3
 104:lib/lufa/LUFA/Drivers/USB/Core/DeviceStandardReq.c **** 
 810               		.loc 1 104 7 is_stmt 1 view .LVU269
 811               	.LBB266:
 812               	.LBI194:
 208:lib/lufa/LUFA/Drivers/USB/Core/DeviceStandardReq.c **** {
 813               		.loc 1 208 13 view .LVU270
 814               	.LBB202:
 210:lib/lufa/LUFA/Drivers/USB/Core/DeviceStandardReq.c **** 
 815               		.loc 1 210 2 view .LVU271
 816               	.LBB198:
 817               	.LBI198:
 442:lib/lufa/LUFA/Drivers/USB/Core/AVR8/../AVR8/Endpoint_AVR8.h **** 			{
 818               		.loc 2 442 23 view .LVU272
 819               	.LBB199:
 444:lib/lufa/LUFA/Drivers/USB/Core/AVR8/../AVR8/Endpoint_AVR8.h **** 			}
 820               		.loc 2 444 5 view .LVU273
 444:lib/lufa/LUFA/Drivers/USB/Core/AVR8/../AVR8/Endpoint_AVR8.h **** 			}
 821               		.loc 2 444 12 is_stmt 0 view .LVU274
 822 01fc 8091 E800 		lds r24,232
 823               	.LVL59:
 444:lib/lufa/LUFA/Drivers/USB/Core/AVR8/../AVR8/Endpoint_AVR8.h **** 			}
 824               		.loc 2 444 12 view .LVU275
 825 0200 877F      		andi r24,lo8(-9)
 826 0202 8093 E800 		sts 232,r24
 827               	.LVL60:
 444:lib/lufa/LUFA/Drivers/USB/Core/AVR8/../AVR8/Endpoint_AVR8.h **** 			}
 828               		.loc 2 444 12 view .LVU276
 829               	.LBE199:
 830               	.LBE198:
 212:lib/lufa/LUFA/Drivers/USB/Core/DeviceStandardReq.c **** 	Endpoint_ClearIN();
 831               		.loc 1 212 2 is_stmt 1 view .LVU277
 832 0206 8091 0000 		lds r24,USB_Device_ConfigurationNumber
 833               	.LVL61:
 834               	.LBB200:
 835               	.LBI200:
 552:lib/lufa/LUFA/Drivers/USB/Core/AVR8/../AVR8/Endpoint_AVR8.h **** 			{
 836               		.loc 2 552 23 view .LVU278
 837               	.LBB201:
 554:lib/lufa/LUFA/Drivers/USB/Core/AVR8/../AVR8/Endpoint_AVR8.h **** 			}
 838               		.loc 2 554 5 view .LVU279
 554:lib/lufa/LUFA/Drivers/USB/Core/AVR8/../AVR8/Endpoint_AVR8.h **** 			}
 839               		.loc 2 554 12 is_stmt 0 view .LVU280
 840 020a 8093 F100 		sts 241,r24
 841 020e 00C0      		rjmp .L62
 842               	.LVL62:
 843               	.L4:
 554:lib/lufa/LUFA/Drivers/USB/Core/AVR8/../AVR8/Endpoint_AVR8.h **** 			}
 844               		.loc 2 554 12 view .LVU281
 845               	.LBE201:
 846               	.LBE200:
 847               	.LBE202:
 848               	.LBE266:
 108:lib/lufa/LUFA/Drivers/USB/Core/DeviceStandardReq.c **** 				  USB_Device_SetConfiguration();
 849               		.loc 1 108 5 is_stmt 1 view .LVU282
 108:lib/lufa/LUFA/Drivers/USB/Core/DeviceStandardReq.c **** 				  USB_Device_SetConfiguration();
 850               		.loc 1 108 8 is_stmt 0 view .LVU283
 851 0210 8111      		cpse r24,__zero_reg__
 852 0212 00C0      		rjmp .L3
 109:lib/lufa/LUFA/Drivers/USB/Core/DeviceStandardReq.c **** 
 853               		.loc 1 109 7 is_stmt 1 view .LVU284
 854               	.LBB267:
 855               	.LBI267:
 142:lib/lufa/LUFA/Drivers/USB/Core/DeviceStandardReq.c **** {
 856               		.loc 1 142 13 view .LVU285
 857               	.LBB268:
 145:lib/lufa/LUFA/Drivers/USB/Core/DeviceStandardReq.c **** 	  return;
 858               		.loc 1 145 2 view .LVU286
 145:lib/lufa/LUFA/Drivers/USB/Core/DeviceStandardReq.c **** 	  return;
 859               		.loc 1 145 5 is_stmt 0 view .LVU287
 860 0214 9091 0000 		lds r25,USB_ControlRequest+2
 861 0218 9230      		cpi r25,lo8(2)
 862 021a 00F4      		brsh .L3
 194:lib/lufa/LUFA/Drivers/USB/Core/DeviceStandardReq.c **** 
 863               		.loc 1 194 2 is_stmt 1 view .LVU288
 864               	.LBB269:
 865               	.LBI269:
 442:lib/lufa/LUFA/Drivers/USB/Core/AVR8/../AVR8/Endpoint_AVR8.h **** 			{
 866               		.loc 2 442 23 view .LVU289
 867               	.LBB270:
 444:lib/lufa/LUFA/Drivers/USB/Core/AVR8/../AVR8/Endpoint_AVR8.h **** 			}
 868               		.loc 2 444 5 view .LVU290
 444:lib/lufa/LUFA/Drivers/USB/Core/AVR8/../AVR8/Endpoint_AVR8.h **** 			}
 869               		.loc 2 444 12 is_stmt 0 view .LVU291
 870 021c 8091 E800 		lds r24,232
 871               	.LVL63:
 444:lib/lufa/LUFA/Drivers/USB/Core/AVR8/../AVR8/Endpoint_AVR8.h **** 			}
 872               		.loc 2 444 12 view .LVU292
 873 0220 877F      		andi r24,lo8(-9)
 874 0222 8093 E800 		sts 232,r24
 875               	.LVL64:
 444:lib/lufa/LUFA/Drivers/USB/Core/AVR8/../AVR8/Endpoint_AVR8.h **** 			}
 876               		.loc 2 444 12 view .LVU293
 877               	.LBE270:
 878               	.LBE269:
 196:lib/lufa/LUFA/Drivers/USB/Core/DeviceStandardReq.c **** 
 879               		.loc 1 196 2 is_stmt 1 view .LVU294
 196:lib/lufa/LUFA/Drivers/USB/Core/DeviceStandardReq.c **** 
 880               		.loc 1 196 35 is_stmt 0 view .LVU295
 881 0226 9093 0000 		sts USB_Device_ConfigurationNumber,r25
 198:lib/lufa/LUFA/Drivers/USB/Core/DeviceStandardReq.c **** 
 882               		.loc 1 198 2 is_stmt 1 view .LVU296
 883 022a 0E94 0000 		call Endpoint_ClearStatusStage
 884               	.LVL65:
 200:lib/lufa/LUFA/Drivers/USB/Core/DeviceStandardReq.c **** 	  USB_DeviceState = DEVICE_STATE_Configured;
 885               		.loc 1 200 2 view .LVU297
 200:lib/lufa/LUFA/Drivers/USB/Core/DeviceStandardReq.c **** 	  USB_DeviceState = DEVICE_STATE_Configured;
 886               		.loc 1 200 5 is_stmt 0 view .LVU298
 887 022e 8091 0000 		lds r24,USB_Device_ConfigurationNumber
 888 0232 8823      		tst r24
 889 0234 01F0      		breq .L28
 890               	.L36:
 203:lib/lufa/LUFA/Drivers/USB/Core/DeviceStandardReq.c **** 
 891               		.loc 1 203 20 view .LVU299
 892 0236 84E0      		ldi r24,lo8(4)
 893 0238 00C0      		rjmp .L30
 894               	.L28:
 203:lib/lufa/LUFA/Drivers/USB/Core/DeviceStandardReq.c **** 
 895               		.loc 1 203 4 is_stmt 1 view .LVU300
 896               	.LBB271:
 897               	.LBI271:
 228:lib/lufa/LUFA/Drivers/USB/Core/AVR8/../AVR8/Device_AVR8.h **** 			{
 898               		.loc 3 228 23 view .LVU301
 899               	.LBB272:
 230:lib/lufa/LUFA/Drivers/USB/Core/AVR8/../AVR8/Device_AVR8.h **** 			}
 900               		.loc 3 230 5 view .LVU302
 230:lib/lufa/LUFA/Drivers/USB/Core/AVR8/../AVR8/Device_AVR8.h **** 			}
 901               		.loc 3 230 13 is_stmt 0 view .LVU303
 902 023a 8091 E300 		lds r24,227
 903               	.LBE272:
 904               	.LBE271:
 203:lib/lufa/LUFA/Drivers/USB/Core/DeviceStandardReq.c **** 
 905               		.loc 1 203 20 view .LVU304
 906 023e 87FD      		sbrc r24,7
 907 0240 00C0      		rjmp .L36
 908 0242 81E0      		ldi r24,lo8(1)
 909               	.L30:
 910 0244 8093 0000 		sts USB_DeviceState,r24
 205:lib/lufa/LUFA/Drivers/USB/Core/DeviceStandardReq.c **** }
 911               		.loc 1 205 2 is_stmt 1 view .LVU305
 912 0248 0E94 0000 		call EVENT_USB_Device_ConfigurationChanged
 913               	.LVL66:
 914 024c 00C0      		rjmp .L3
 915               	.LVL67:
 916               	.L14:
 205:lib/lufa/LUFA/Drivers/USB/Core/DeviceStandardReq.c **** }
 917               		.loc 1 205 2 is_stmt 0 view .LVU306
 918               	.LBE268:
 919               	.LBE267:
  85:lib/lufa/LUFA/Drivers/USB/Core/DeviceStandardReq.c **** 				}
 920               		.loc 1 85 6 is_stmt 1 view .LVU307
 921               	.LBB273:
 336:lib/lufa/LUFA/Drivers/USB/Core/DeviceStandardReq.c **** {
 922               		.loc 1 336 13 view .LVU308
 923               	.LBB224:
 338:lib/lufa/LUFA/Drivers/USB/Core/DeviceStandardReq.c **** 	{
 924               		.loc 1 338 2 view .LVU309
 343:lib/lufa/LUFA/Drivers/USB/Core/DeviceStandardReq.c **** 			  USB_Device_RemoteWakeupEnabled = (USB_ControlRequest.bRequest == REQ_SetFeature);
 925               		.loc 1 343 4 view .LVU310
 343:lib/lufa/LUFA/Drivers/USB/Core/DeviceStandardReq.c **** 			  USB_Device_RemoteWakeupEnabled = (USB_ControlRequest.bRequest == REQ_SetFeature);
 926               		.loc 1 343 7 is_stmt 0 view .LVU311
 927 024e 8091 0000 		lds r24,USB_ControlRequest+2
 928               	.LVL68:
 343:lib/lufa/LUFA/Drivers/USB/Core/DeviceStandardReq.c **** 			  USB_Device_RemoteWakeupEnabled = (USB_ControlRequest.bRequest == REQ_SetFeature);
 929               		.loc 1 343 7 view .LVU312
 930 0252 8130      		cpi r24,lo8(1)
 931 0254 01F4      		brne .L3
 344:lib/lufa/LUFA/Drivers/USB/Core/DeviceStandardReq.c **** 			else
 932               		.loc 1 344 6 is_stmt 1 view .LVU313
 344:lib/lufa/LUFA/Drivers/USB/Core/DeviceStandardReq.c **** 			else
 933               		.loc 1 344 68 is_stmt 0 view .LVU314
 934 0256 81E0      		ldi r24,lo8(1)
 935 0258 9330      		cpi r25,lo8(3)
 936 025a 01F0      		breq .L16
 937 025c 80E0      		ldi r24,0
 938               	.L16:
 344:lib/lufa/LUFA/Drivers/USB/Core/DeviceStandardReq.c **** 			else
 939               		.loc 1 344 37 view .LVU315
 940 025e 8093 0000 		sts USB_Device_RemoteWakeupEnabled,r24
 348:lib/lufa/LUFA/Drivers/USB/Core/DeviceStandardReq.c **** 		}
 941               		.loc 1 348 4 is_stmt 1 view .LVU316
 942               	.LVL69:
 943               	.L17:
 374:lib/lufa/LUFA/Drivers/USB/Core/DeviceStandardReq.c **** 					}
 375:lib/lufa/LUFA/Drivers/USB/Core/DeviceStandardReq.c **** 				}
 376:lib/lufa/LUFA/Drivers/USB/Core/DeviceStandardReq.c **** 			}
 377:lib/lufa/LUFA/Drivers/USB/Core/DeviceStandardReq.c **** 
 378:lib/lufa/LUFA/Drivers/USB/Core/DeviceStandardReq.c **** 			break;
 379:lib/lufa/LUFA/Drivers/USB/Core/DeviceStandardReq.c **** 		}
 380:lib/lufa/LUFA/Drivers/USB/Core/DeviceStandardReq.c **** 		#endif
 381:lib/lufa/LUFA/Drivers/USB/Core/DeviceStandardReq.c **** 		default:
 382:lib/lufa/LUFA/Drivers/USB/Core/DeviceStandardReq.c **** 			return;
 383:lib/lufa/LUFA/Drivers/USB/Core/DeviceStandardReq.c **** 	}
 384:lib/lufa/LUFA/Drivers/USB/Core/DeviceStandardReq.c **** 
 385:lib/lufa/LUFA/Drivers/USB/Core/DeviceStandardReq.c **** 	Endpoint_SelectEndpoint(ENDPOINT_CONTROLEP);
 944               		.loc 1 385 2 view .LVU317
 945               	.LBB220:
 946               	.LBI220:
 267:lib/lufa/LUFA/Drivers/USB/Core/AVR8/../AVR8/Endpoint_AVR8.h **** 			{
 947               		.loc 2 267 23 view .LVU318
 948               	.LBB221:
 270:lib/lufa/LUFA/Drivers/USB/Core/AVR8/../AVR8/Endpoint_AVR8.h **** 				#endif
 949               		.loc 2 270 6 view .LVU319
 270:lib/lufa/LUFA/Drivers/USB/Core/AVR8/../AVR8/Endpoint_AVR8.h **** 				#endif
 950               		.loc 2 270 12 is_stmt 0 view .LVU320
 951 0262 1092 E900 		sts 233,__zero_reg__
 952               	.LVL70:
 270:lib/lufa/LUFA/Drivers/USB/Core/AVR8/../AVR8/Endpoint_AVR8.h **** 				#endif
 953               		.loc 2 270 12 view .LVU321
 954               	.LBE221:
 955               	.LBE220:
 386:lib/lufa/LUFA/Drivers/USB/Core/DeviceStandardReq.c **** 
 387:lib/lufa/LUFA/Drivers/USB/Core/DeviceStandardReq.c **** 	Endpoint_ClearSETUP();
 956               		.loc 1 387 2 is_stmt 1 view .LVU322
 957               	.LBB222:
 958               	.LBI222:
 442:lib/lufa/LUFA/Drivers/USB/Core/AVR8/../AVR8/Endpoint_AVR8.h **** 			{
 959               		.loc 2 442 23 view .LVU323
 960               	.LBB223:
 444:lib/lufa/LUFA/Drivers/USB/Core/AVR8/../AVR8/Endpoint_AVR8.h **** 			}
 961               		.loc 2 444 5 view .LVU324
 444:lib/lufa/LUFA/Drivers/USB/Core/AVR8/../AVR8/Endpoint_AVR8.h **** 			}
 962               		.loc 2 444 12 is_stmt 0 view .LVU325
 963 0266 8091 E800 		lds r24,232
 964 026a 877F      		andi r24,lo8(-9)
 965               	.L60:
 966 026c 8093 E800 		sts 232,r24
 967               	.LBE223:
 968               	.LBE222:
 388:lib/lufa/LUFA/Drivers/USB/Core/DeviceStandardReq.c **** 
 389:lib/lufa/LUFA/Drivers/USB/Core/DeviceStandardReq.c **** 	Endpoint_ClearStatusStage();
 969               		.loc 1 389 2 is_stmt 1 view .LVU326
 970 0270 0E94 0000 		call Endpoint_ClearStatusStage
 971               	.LVL71:
 972               	.L3:
 973               		.loc 1 389 2 is_stmt 0 view .LVU327
 974               	.LBE224:
 975               	.LBE273:
 976               	.LBE178:
 118:lib/lufa/LUFA/Drivers/USB/Core/DeviceStandardReq.c **** 	{
 977               		.loc 1 118 2 is_stmt 1 view .LVU328
 978               	.LBB274:
 979               	.LBI274:
 429:lib/lufa/LUFA/Drivers/USB/Core/AVR8/../AVR8/Endpoint_AVR8.h **** 			{
 980               		.loc 2 429 23 view .LVU329
 981               	.LBB275:
 431:lib/lufa/LUFA/Drivers/USB/Core/AVR8/../AVR8/Endpoint_AVR8.h **** 			}
 982               		.loc 2 431 5 view .LVU330
 431:lib/lufa/LUFA/Drivers/USB/Core/AVR8/../AVR8/Endpoint_AVR8.h **** 			}
 983               		.loc 2 431 14 is_stmt 0 view .LVU331
 984 0274 8091 E800 		lds r24,232
 985               	.LBE275:
 986               	.LBE274:
 118:lib/lufa/LUFA/Drivers/USB/Core/DeviceStandardReq.c **** 	{
 987               		.loc 1 118 5 view .LVU332
 988 0278 83FF      		sbrs r24,3
 989 027a 00C0      		rjmp .L1
 120:lib/lufa/LUFA/Drivers/USB/Core/DeviceStandardReq.c **** 		Endpoint_StallTransaction();
 990               		.loc 1 120 3 is_stmt 1 view .LVU333
 991               	.LBB276:
 992               	.LBI276:
 442:lib/lufa/LUFA/Drivers/USB/Core/AVR8/../AVR8/Endpoint_AVR8.h **** 			{
 993               		.loc 2 442 23 view .LVU334
 994               	.LBB277:
 444:lib/lufa/LUFA/Drivers/USB/Core/AVR8/../AVR8/Endpoint_AVR8.h **** 			}
 995               		.loc 2 444 5 view .LVU335
 444:lib/lufa/LUFA/Drivers/USB/Core/AVR8/../AVR8/Endpoint_AVR8.h **** 			}
 996               		.loc 2 444 12 is_stmt 0 view .LVU336
 997 027c 8091 E800 		lds r24,232
 998 0280 877F      		andi r24,lo8(-9)
 999 0282 8093 E800 		sts 232,r24
 1000               	.LBE277:
 1001               	.LBE276:
 121:lib/lufa/LUFA/Drivers/USB/Core/DeviceStandardReq.c **** 	}
 1002               		.loc 1 121 3 is_stmt 1 view .LVU337
 1003               	.LBB278:
 1004               	.LBI278:
 489:lib/lufa/LUFA/Drivers/USB/Core/AVR8/../AVR8/Endpoint_AVR8.h **** 			{
 1005               		.loc 2 489 23 view .LVU338
 1006               	.LBB279:
 491:lib/lufa/LUFA/Drivers/USB/Core/AVR8/../AVR8/Endpoint_AVR8.h **** 			}
 1007               		.loc 2 491 5 view .LVU339
 491:lib/lufa/LUFA/Drivers/USB/Core/AVR8/../AVR8/Endpoint_AVR8.h **** 			}
 1008               		.loc 2 491 12 is_stmt 0 view .LVU340
 1009 0286 8091 EB00 		lds r24,235
 1010 028a 8062      		ori r24,lo8(32)
 1011 028c 8093 EB00 		sts 235,r24
 1012               	.L1:
 1013               	/* epilogue start */
 1014               	.LBE279:
 1015               	.LBE278:
 123:lib/lufa/LUFA/Drivers/USB/Core/DeviceStandardReq.c **** 
 1016               		.loc 1 123 1 view .LVU341
 1017 0290 AA96      		adiw r28,42
 1018 0292 0FB6      		in __tmp_reg__,__SREG__
 1019 0294 F894      		cli
 1020 0296 DEBF      		out __SP_H__,r29
 1021 0298 0FBE      		out __SREG__,__tmp_reg__
 1022 029a CDBF      		out __SP_L__,r28
 1023 029c DF91      		pop r29
 1024 029e CF91      		pop r28
 1025 02a0 1F91      		pop r17
 1026 02a2 0895      		ret
 1027               		.cfi_endproc
 1028               	.LFE85:
 1030               		.comm	USB_Device_RemoteWakeupEnabled,1,1
 1031               		.comm	USB_Device_CurrentlySelfPowered,1,1
 1032               		.comm	USB_Device_ConfigurationNumber,1,1
 1033               		.text
 1034               	.Letext0:
 1035               		.file 5 "c:\\program files\\qmk_msys\\mingw64\\avr\\include\\stdint.h"
 1036               		.file 6 "lib/lufa/LUFA/Drivers/USB/Core/StdDescriptors.h"
 1037               		.file 7 "lib/lufa/LUFA/Drivers/USB/Core/StdRequestType.h"
 1038               		.file 8 "lib/lufa/LUFA/Drivers/USB/Core/AVR8/../Device.h"
 1039               		.file 9 "lib/lufa/LUFA/Drivers/USB/Core/USBTask.h"
 1040               		.file 10 "lib/lufa/LUFA/Drivers/USB/Core/DeviceStandardReq.h"
 1041               		.file 11 "lib/lufa/LUFA/Drivers/USB/Core/AVR8/../AVR8/EndpointStream_AVR8.h"
 1042               		.file 12 "lib/lufa/LUFA/Drivers/USB/Core/Events.h"