   1               		.file	"lufa.c"
   2               	__SP_H__ = 0x3e
   3               	__SP_L__ = 0x3d
   4               	__SREG__ = 0x3f
   5               	__tmp_reg__ = 0
   6               	__zero_reg__ = 1
   7               		.text
   8               	.Ltext0:
   9               		.cfi_sections	.debug_frame
  10               		.section	.text.keyboard_leds,"ax",@progbits
  12               	keyboard_leds:
  13               	.LFB130:
  14               		.file 1 "tmk_core/protocol/lufa/lufa.c"
   1:tmk_core/protocol/lufa/lufa.c **** /*
   2:tmk_core/protocol/lufa/lufa.c ****  * Copyright 2012 Jun Wako <wakojun@gmail.com>
   3:tmk_core/protocol/lufa/lufa.c ****  * This file is based on:
   4:tmk_core/protocol/lufa/lufa.c ****  *     LUFA-120219/Demos/Device/Lowlevel/KeyboardMouse
   5:tmk_core/protocol/lufa/lufa.c ****  *     LUFA-120219/Demos/Device/Lowlevel/GenericHID
   6:tmk_core/protocol/lufa/lufa.c ****  */
   7:tmk_core/protocol/lufa/lufa.c **** 
   8:tmk_core/protocol/lufa/lufa.c **** /*
   9:tmk_core/protocol/lufa/lufa.c ****              LUFA Library
  10:tmk_core/protocol/lufa/lufa.c ****      Copyright (C) Dean Camera, 2012.
  11:tmk_core/protocol/lufa/lufa.c **** 
  12:tmk_core/protocol/lufa/lufa.c ****   dean [at] fourwalledcubicle [dot] com
  13:tmk_core/protocol/lufa/lufa.c ****            www.lufa-lib.org
  14:tmk_core/protocol/lufa/lufa.c **** */
  15:tmk_core/protocol/lufa/lufa.c **** 
  16:tmk_core/protocol/lufa/lufa.c **** /*
  17:tmk_core/protocol/lufa/lufa.c ****   Copyright 2012  Dean Camera (dean [at] fourwalledcubicle [dot] com)
  18:tmk_core/protocol/lufa/lufa.c ****   Copyright 2010  Denver Gingerich (denver [at] ossguy [dot] com)
  19:tmk_core/protocol/lufa/lufa.c **** 
  20:tmk_core/protocol/lufa/lufa.c ****   Permission to use, copy, modify, distribute, and sell this
  21:tmk_core/protocol/lufa/lufa.c ****   software and its documentation for any purpose is hereby granted
  22:tmk_core/protocol/lufa/lufa.c ****   without fee, provided that the above copyright notice appear in
  23:tmk_core/protocol/lufa/lufa.c ****   all copies and that both that the copyright notice and this
  24:tmk_core/protocol/lufa/lufa.c ****   permission notice and warranty disclaimer appear in supporting
  25:tmk_core/protocol/lufa/lufa.c ****   documentation, and that the name of the author not be used in
  26:tmk_core/protocol/lufa/lufa.c ****   advertising or publicity pertaining to distribution of the
  27:tmk_core/protocol/lufa/lufa.c ****   software without specific, written prior permission.
  28:tmk_core/protocol/lufa/lufa.c **** 
  29:tmk_core/protocol/lufa/lufa.c ****   The author disclaim all warranties with regard to this
  30:tmk_core/protocol/lufa/lufa.c ****   software, including all implied warranties of merchantability
  31:tmk_core/protocol/lufa/lufa.c ****   and fitness.  In no event shall the author be liable for any
  32:tmk_core/protocol/lufa/lufa.c ****   special, indirect or consequential damages or any damages
  33:tmk_core/protocol/lufa/lufa.c ****   whatsoever resulting from loss of use, data or profits, whether
  34:tmk_core/protocol/lufa/lufa.c ****   in an action of contract, negligence or other tortious action,
  35:tmk_core/protocol/lufa/lufa.c ****   arising out of or in connection with the use or performance of
  36:tmk_core/protocol/lufa/lufa.c ****   this software.
  37:tmk_core/protocol/lufa/lufa.c **** */
  38:tmk_core/protocol/lufa/lufa.c **** 
  39:tmk_core/protocol/lufa/lufa.c **** #include "report.h"
  40:tmk_core/protocol/lufa/lufa.c **** #include "host.h"
  41:tmk_core/protocol/lufa/lufa.c **** #include "host_driver.h"
  42:tmk_core/protocol/lufa/lufa.c **** #include "keyboard.h"
  43:tmk_core/protocol/lufa/lufa.c **** #include "action.h"
  44:tmk_core/protocol/lufa/lufa.c **** #include "led.h"
  45:tmk_core/protocol/lufa/lufa.c **** #include "sendchar.h"
  46:tmk_core/protocol/lufa/lufa.c **** #include "debug.h"
  47:tmk_core/protocol/lufa/lufa.c **** #ifdef SLEEP_LED_ENABLE
  48:tmk_core/protocol/lufa/lufa.c **** #    include "sleep_led.h"
  49:tmk_core/protocol/lufa/lufa.c **** #endif
  50:tmk_core/protocol/lufa/lufa.c **** #include "suspend.h"
  51:tmk_core/protocol/lufa/lufa.c **** 
  52:tmk_core/protocol/lufa/lufa.c **** #include "usb_descriptor.h"
  53:tmk_core/protocol/lufa/lufa.c **** #include "lufa.h"
  54:tmk_core/protocol/lufa/lufa.c **** #include "quantum.h"
  55:tmk_core/protocol/lufa/lufa.c **** #include <util/atomic.h>
  56:tmk_core/protocol/lufa/lufa.c **** 
  57:tmk_core/protocol/lufa/lufa.c **** #ifdef NKRO_ENABLE
  58:tmk_core/protocol/lufa/lufa.c **** #    include "keycode_config.h"
  59:tmk_core/protocol/lufa/lufa.c **** 
  60:tmk_core/protocol/lufa/lufa.c **** extern keymap_config_t keymap_config;
  61:tmk_core/protocol/lufa/lufa.c **** #endif
  62:tmk_core/protocol/lufa/lufa.c **** 
  63:tmk_core/protocol/lufa/lufa.c **** #ifdef AUDIO_ENABLE
  64:tmk_core/protocol/lufa/lufa.c **** #    include "audio.h"
  65:tmk_core/protocol/lufa/lufa.c **** #endif
  66:tmk_core/protocol/lufa/lufa.c **** 
  67:tmk_core/protocol/lufa/lufa.c **** #ifdef BLUETOOTH_ENABLE
  68:tmk_core/protocol/lufa/lufa.c **** #    include "outputselect.h"
  69:tmk_core/protocol/lufa/lufa.c **** #    ifdef MODULE_ADAFRUIT_BLE
  70:tmk_core/protocol/lufa/lufa.c **** #        include "adafruit_ble.h"
  71:tmk_core/protocol/lufa/lufa.c **** #    else
  72:tmk_core/protocol/lufa/lufa.c **** #        include "../serial.h"
  73:tmk_core/protocol/lufa/lufa.c **** #    endif
  74:tmk_core/protocol/lufa/lufa.c **** #endif
  75:tmk_core/protocol/lufa/lufa.c **** 
  76:tmk_core/protocol/lufa/lufa.c **** #ifdef VIRTSER_ENABLE
  77:tmk_core/protocol/lufa/lufa.c **** #    include "virtser.h"
  78:tmk_core/protocol/lufa/lufa.c **** #endif
  79:tmk_core/protocol/lufa/lufa.c **** 
  80:tmk_core/protocol/lufa/lufa.c **** #ifdef MIDI_ENABLE
  81:tmk_core/protocol/lufa/lufa.c **** #    include "qmk_midi.h"
  82:tmk_core/protocol/lufa/lufa.c **** #endif
  83:tmk_core/protocol/lufa/lufa.c **** 
  84:tmk_core/protocol/lufa/lufa.c **** #ifdef RAW_ENABLE
  85:tmk_core/protocol/lufa/lufa.c **** #    include "raw_hid.h"
  86:tmk_core/protocol/lufa/lufa.c **** #endif
  87:tmk_core/protocol/lufa/lufa.c **** 
  88:tmk_core/protocol/lufa/lufa.c **** #ifdef JOYSTICK_ENABLE
  89:tmk_core/protocol/lufa/lufa.c **** #    include "joystick.h"
  90:tmk_core/protocol/lufa/lufa.c **** #endif
  91:tmk_core/protocol/lufa/lufa.c **** 
  92:tmk_core/protocol/lufa/lufa.c **** // https://cdn.sparkfun.com/datasheets/Wireless/Bluetooth/bluetooth_cr_UG-v1.0r.pdf#G7.663734
  93:tmk_core/protocol/lufa/lufa.c **** static inline uint16_t CONSUMER2RN42(uint16_t usage) {
  94:tmk_core/protocol/lufa/lufa.c ****     switch (usage) {
  95:tmk_core/protocol/lufa/lufa.c ****         case AC_HOME:
  96:tmk_core/protocol/lufa/lufa.c ****             return 0x0001;
  97:tmk_core/protocol/lufa/lufa.c ****         case AL_EMAIL:
  98:tmk_core/protocol/lufa/lufa.c ****             return 0x0002;
  99:tmk_core/protocol/lufa/lufa.c ****         case AC_SEARCH:
 100:tmk_core/protocol/lufa/lufa.c ****             return 0x0004;
 101:tmk_core/protocol/lufa/lufa.c ****         case AL_KEYBOARD_LAYOUT:
 102:tmk_core/protocol/lufa/lufa.c ****             return 0x0008;
 103:tmk_core/protocol/lufa/lufa.c ****         case AUDIO_VOL_UP:
 104:tmk_core/protocol/lufa/lufa.c ****             return 0x0010;
 105:tmk_core/protocol/lufa/lufa.c ****         case AUDIO_VOL_DOWN:
 106:tmk_core/protocol/lufa/lufa.c ****             return 0x0020;
 107:tmk_core/protocol/lufa/lufa.c ****         case AUDIO_MUTE:
 108:tmk_core/protocol/lufa/lufa.c ****             return 0x0040;
 109:tmk_core/protocol/lufa/lufa.c ****         case TRANSPORT_PLAY_PAUSE:
 110:tmk_core/protocol/lufa/lufa.c ****             return 0x0080;
 111:tmk_core/protocol/lufa/lufa.c ****         case TRANSPORT_NEXT_TRACK:
 112:tmk_core/protocol/lufa/lufa.c ****             return 0x0100;
 113:tmk_core/protocol/lufa/lufa.c ****         case TRANSPORT_PREV_TRACK:
 114:tmk_core/protocol/lufa/lufa.c ****             return 0x0200;
 115:tmk_core/protocol/lufa/lufa.c ****         case TRANSPORT_STOP:
 116:tmk_core/protocol/lufa/lufa.c ****             return 0x0400;
 117:tmk_core/protocol/lufa/lufa.c ****         case TRANSPORT_EJECT:
 118:tmk_core/protocol/lufa/lufa.c ****             return 0x0800;
 119:tmk_core/protocol/lufa/lufa.c ****         case TRANSPORT_FAST_FORWARD:
 120:tmk_core/protocol/lufa/lufa.c ****             return 0x1000;
 121:tmk_core/protocol/lufa/lufa.c ****         case TRANSPORT_REWIND:
 122:tmk_core/protocol/lufa/lufa.c ****             return 0x2000;
 123:tmk_core/protocol/lufa/lufa.c ****         case TRANSPORT_STOP_EJECT:
 124:tmk_core/protocol/lufa/lufa.c ****             return 0x4000;
 125:tmk_core/protocol/lufa/lufa.c ****         case AL_LOCAL_BROWSER:
 126:tmk_core/protocol/lufa/lufa.c ****             return 0x8000;
 127:tmk_core/protocol/lufa/lufa.c ****         default:
 128:tmk_core/protocol/lufa/lufa.c ****             return 0;
 129:tmk_core/protocol/lufa/lufa.c ****     }
 130:tmk_core/protocol/lufa/lufa.c **** }
 131:tmk_core/protocol/lufa/lufa.c **** 
 132:tmk_core/protocol/lufa/lufa.c **** uint8_t keyboard_idle = 0;
 133:tmk_core/protocol/lufa/lufa.c **** /* 0: Boot Protocol, 1: Report Protocol(default) */
 134:tmk_core/protocol/lufa/lufa.c **** uint8_t        keyboard_protocol  = 1;
 135:tmk_core/protocol/lufa/lufa.c **** static uint8_t keyboard_led_state = 0;
 136:tmk_core/protocol/lufa/lufa.c **** 
 137:tmk_core/protocol/lufa/lufa.c **** static report_keyboard_t keyboard_report_sent;
 138:tmk_core/protocol/lufa/lufa.c **** 
 139:tmk_core/protocol/lufa/lufa.c **** /* Host driver */
 140:tmk_core/protocol/lufa/lufa.c **** static uint8_t keyboard_leds(void);
 141:tmk_core/protocol/lufa/lufa.c **** static void    send_keyboard(report_keyboard_t *report);
 142:tmk_core/protocol/lufa/lufa.c **** static void    send_mouse(report_mouse_t *report);
 143:tmk_core/protocol/lufa/lufa.c **** static void    send_system(uint16_t data);
 144:tmk_core/protocol/lufa/lufa.c **** static void    send_consumer(uint16_t data);
 145:tmk_core/protocol/lufa/lufa.c **** host_driver_t  lufa_driver = {
 146:tmk_core/protocol/lufa/lufa.c ****     keyboard_leds, send_keyboard, send_mouse, send_system, send_consumer,
 147:tmk_core/protocol/lufa/lufa.c **** };
 148:tmk_core/protocol/lufa/lufa.c **** 
 149:tmk_core/protocol/lufa/lufa.c **** #ifdef VIRTSER_ENABLE
 150:tmk_core/protocol/lufa/lufa.c **** // clang-format off
 151:tmk_core/protocol/lufa/lufa.c **** 
 152:tmk_core/protocol/lufa/lufa.c **** USB_ClassInfo_CDC_Device_t cdc_device = {
 153:tmk_core/protocol/lufa/lufa.c ****     .Config = {
 154:tmk_core/protocol/lufa/lufa.c ****         .ControlInterfaceNumber = CCI_INTERFACE,
 155:tmk_core/protocol/lufa/lufa.c ****         .DataINEndpoint = {
 156:tmk_core/protocol/lufa/lufa.c ****             .Address            = (CDC_IN_EPNUM | ENDPOINT_DIR_IN),
 157:tmk_core/protocol/lufa/lufa.c ****             .Size               = CDC_EPSIZE,
 158:tmk_core/protocol/lufa/lufa.c ****             .Banks              = 1
 159:tmk_core/protocol/lufa/lufa.c ****         },
 160:tmk_core/protocol/lufa/lufa.c ****         .DataOUTEndpoint = {
 161:tmk_core/protocol/lufa/lufa.c ****             .Address            = (CDC_OUT_EPNUM | ENDPOINT_DIR_OUT),
 162:tmk_core/protocol/lufa/lufa.c ****             .Size               = CDC_EPSIZE,
 163:tmk_core/protocol/lufa/lufa.c ****             .Banks              = 1
 164:tmk_core/protocol/lufa/lufa.c ****         },
 165:tmk_core/protocol/lufa/lufa.c ****         .NotificationEndpoint = {
 166:tmk_core/protocol/lufa/lufa.c ****             .Address            = (CDC_NOTIFICATION_EPNUM | ENDPOINT_DIR_IN),
 167:tmk_core/protocol/lufa/lufa.c ****             .Size               = CDC_NOTIFICATION_EPSIZE,
 168:tmk_core/protocol/lufa/lufa.c ****             .Banks              = 1
 169:tmk_core/protocol/lufa/lufa.c ****         }
 170:tmk_core/protocol/lufa/lufa.c ****     }
 171:tmk_core/protocol/lufa/lufa.c **** };
 172:tmk_core/protocol/lufa/lufa.c **** 
 173:tmk_core/protocol/lufa/lufa.c **** // clang-format on
 174:tmk_core/protocol/lufa/lufa.c **** #endif
 175:tmk_core/protocol/lufa/lufa.c **** 
 176:tmk_core/protocol/lufa/lufa.c **** #ifdef RAW_ENABLE
 177:tmk_core/protocol/lufa/lufa.c **** 
 178:tmk_core/protocol/lufa/lufa.c **** /** \brief Raw HID Send
 179:tmk_core/protocol/lufa/lufa.c ****  *
 180:tmk_core/protocol/lufa/lufa.c ****  * FIXME: Needs doc
 181:tmk_core/protocol/lufa/lufa.c ****  */
 182:tmk_core/protocol/lufa/lufa.c **** void raw_hid_send(uint8_t *data, uint8_t length) {
 183:tmk_core/protocol/lufa/lufa.c ****     // TODO: implement variable size packet
 184:tmk_core/protocol/lufa/lufa.c ****     if (length != RAW_EPSIZE) {
 185:tmk_core/protocol/lufa/lufa.c ****         return;
 186:tmk_core/protocol/lufa/lufa.c ****     }
 187:tmk_core/protocol/lufa/lufa.c **** 
 188:tmk_core/protocol/lufa/lufa.c ****     if (USB_DeviceState != DEVICE_STATE_Configured) {
 189:tmk_core/protocol/lufa/lufa.c ****         return;
 190:tmk_core/protocol/lufa/lufa.c ****     }
 191:tmk_core/protocol/lufa/lufa.c **** 
 192:tmk_core/protocol/lufa/lufa.c ****     // TODO: decide if we allow calls to raw_hid_send() in the middle
 193:tmk_core/protocol/lufa/lufa.c ****     // of other endpoint usage.
 194:tmk_core/protocol/lufa/lufa.c ****     uint8_t ep = Endpoint_GetCurrentEndpoint();
 195:tmk_core/protocol/lufa/lufa.c **** 
 196:tmk_core/protocol/lufa/lufa.c ****     Endpoint_SelectEndpoint(RAW_IN_EPNUM);
 197:tmk_core/protocol/lufa/lufa.c **** 
 198:tmk_core/protocol/lufa/lufa.c ****     // Check to see if the host is ready to accept another packet
 199:tmk_core/protocol/lufa/lufa.c ****     if (Endpoint_IsINReady()) {
 200:tmk_core/protocol/lufa/lufa.c ****         // Write data
 201:tmk_core/protocol/lufa/lufa.c ****         Endpoint_Write_Stream_LE(data, RAW_EPSIZE, NULL);
 202:tmk_core/protocol/lufa/lufa.c ****         // Finalize the stream transfer to send the last packet
 203:tmk_core/protocol/lufa/lufa.c ****         Endpoint_ClearIN();
 204:tmk_core/protocol/lufa/lufa.c ****     }
 205:tmk_core/protocol/lufa/lufa.c **** 
 206:tmk_core/protocol/lufa/lufa.c ****     Endpoint_SelectEndpoint(ep);
 207:tmk_core/protocol/lufa/lufa.c **** }
 208:tmk_core/protocol/lufa/lufa.c **** 
 209:tmk_core/protocol/lufa/lufa.c **** /** \brief Raw HID Receive
 210:tmk_core/protocol/lufa/lufa.c ****  *
 211:tmk_core/protocol/lufa/lufa.c ****  * FIXME: Needs doc
 212:tmk_core/protocol/lufa/lufa.c ****  */
 213:tmk_core/protocol/lufa/lufa.c **** __attribute__((weak)) void raw_hid_receive(uint8_t *data, uint8_t length) {
 214:tmk_core/protocol/lufa/lufa.c ****     // Users should #include "raw_hid.h" in their own code
 215:tmk_core/protocol/lufa/lufa.c ****     // and implement this function there. Leave this as weak linkage
 216:tmk_core/protocol/lufa/lufa.c ****     // so users can opt to not handle data coming in.
 217:tmk_core/protocol/lufa/lufa.c **** }
 218:tmk_core/protocol/lufa/lufa.c **** 
 219:tmk_core/protocol/lufa/lufa.c **** /** \brief Raw HID Task
 220:tmk_core/protocol/lufa/lufa.c ****  *
 221:tmk_core/protocol/lufa/lufa.c ****  * FIXME: Needs doc
 222:tmk_core/protocol/lufa/lufa.c ****  */
 223:tmk_core/protocol/lufa/lufa.c **** static void raw_hid_task(void) {
 224:tmk_core/protocol/lufa/lufa.c ****     // Create a temporary buffer to hold the read in data from the host
 225:tmk_core/protocol/lufa/lufa.c ****     uint8_t data[RAW_EPSIZE];
 226:tmk_core/protocol/lufa/lufa.c ****     bool    data_read = false;
 227:tmk_core/protocol/lufa/lufa.c **** 
 228:tmk_core/protocol/lufa/lufa.c ****     // Device must be connected and configured for the task to run
 229:tmk_core/protocol/lufa/lufa.c ****     if (USB_DeviceState != DEVICE_STATE_Configured) return;
 230:tmk_core/protocol/lufa/lufa.c **** 
 231:tmk_core/protocol/lufa/lufa.c ****     Endpoint_SelectEndpoint(RAW_OUT_EPNUM);
 232:tmk_core/protocol/lufa/lufa.c **** 
 233:tmk_core/protocol/lufa/lufa.c ****     // Check to see if a packet has been sent from the host
 234:tmk_core/protocol/lufa/lufa.c ****     if (Endpoint_IsOUTReceived()) {
 235:tmk_core/protocol/lufa/lufa.c ****         // Check to see if the packet contains data
 236:tmk_core/protocol/lufa/lufa.c ****         if (Endpoint_IsReadWriteAllowed()) {
 237:tmk_core/protocol/lufa/lufa.c ****             /* Read data */
 238:tmk_core/protocol/lufa/lufa.c ****             Endpoint_Read_Stream_LE(data, sizeof(data), NULL);
 239:tmk_core/protocol/lufa/lufa.c ****             data_read = true;
 240:tmk_core/protocol/lufa/lufa.c ****         }
 241:tmk_core/protocol/lufa/lufa.c **** 
 242:tmk_core/protocol/lufa/lufa.c ****         // Finalize the stream transfer to receive the last packet
 243:tmk_core/protocol/lufa/lufa.c ****         Endpoint_ClearOUT();
 244:tmk_core/protocol/lufa/lufa.c **** 
 245:tmk_core/protocol/lufa/lufa.c ****         if (data_read) {
 246:tmk_core/protocol/lufa/lufa.c ****             raw_hid_receive(data, sizeof(data));
 247:tmk_core/protocol/lufa/lufa.c ****         }
 248:tmk_core/protocol/lufa/lufa.c ****     }
 249:tmk_core/protocol/lufa/lufa.c **** }
 250:tmk_core/protocol/lufa/lufa.c **** #endif
 251:tmk_core/protocol/lufa/lufa.c **** 
 252:tmk_core/protocol/lufa/lufa.c **** /*******************************************************************************
 253:tmk_core/protocol/lufa/lufa.c ****  * Console
 254:tmk_core/protocol/lufa/lufa.c ****  ******************************************************************************/
 255:tmk_core/protocol/lufa/lufa.c **** #ifdef CONSOLE_ENABLE
 256:tmk_core/protocol/lufa/lufa.c **** /** \brief Console Task
 257:tmk_core/protocol/lufa/lufa.c ****  *
 258:tmk_core/protocol/lufa/lufa.c ****  * FIXME: Needs doc
 259:tmk_core/protocol/lufa/lufa.c ****  */
 260:tmk_core/protocol/lufa/lufa.c **** static void Console_Task(void) {
 261:tmk_core/protocol/lufa/lufa.c ****     /* Device must be connected and configured for the task to run */
 262:tmk_core/protocol/lufa/lufa.c ****     if (USB_DeviceState != DEVICE_STATE_Configured) return;
 263:tmk_core/protocol/lufa/lufa.c **** 
 264:tmk_core/protocol/lufa/lufa.c ****     uint8_t ep = Endpoint_GetCurrentEndpoint();
 265:tmk_core/protocol/lufa/lufa.c **** 
 266:tmk_core/protocol/lufa/lufa.c **** #    if 0
 267:tmk_core/protocol/lufa/lufa.c ****     // TODO: impl receivechar()/recvchar()
 268:tmk_core/protocol/lufa/lufa.c ****     Endpoint_SelectEndpoint(CONSOLE_OUT_EPNUM);
 269:tmk_core/protocol/lufa/lufa.c **** 
 270:tmk_core/protocol/lufa/lufa.c ****     /* Check to see if a packet has been sent from the host */
 271:tmk_core/protocol/lufa/lufa.c ****     if (Endpoint_IsOUTReceived())
 272:tmk_core/protocol/lufa/lufa.c ****     {
 273:tmk_core/protocol/lufa/lufa.c ****         /* Check to see if the packet contains data */
 274:tmk_core/protocol/lufa/lufa.c ****         if (Endpoint_IsReadWriteAllowed())
 275:tmk_core/protocol/lufa/lufa.c ****         {
 276:tmk_core/protocol/lufa/lufa.c ****             /* Create a temporary buffer to hold the read in report from the host */
 277:tmk_core/protocol/lufa/lufa.c ****             uint8_t ConsoleData[CONSOLE_EPSIZE];
 278:tmk_core/protocol/lufa/lufa.c **** 
 279:tmk_core/protocol/lufa/lufa.c ****             /* Read Console Report Data */
 280:tmk_core/protocol/lufa/lufa.c ****             Endpoint_Read_Stream_LE(&ConsoleData, sizeof(ConsoleData), NULL);
 281:tmk_core/protocol/lufa/lufa.c **** 
 282:tmk_core/protocol/lufa/lufa.c ****             /* Process Console Report Data */
 283:tmk_core/protocol/lufa/lufa.c ****             //ProcessConsoleHIDReport(ConsoleData);
 284:tmk_core/protocol/lufa/lufa.c ****         }
 285:tmk_core/protocol/lufa/lufa.c **** 
 286:tmk_core/protocol/lufa/lufa.c ****         /* Finalize the stream transfer to send the last packet */
 287:tmk_core/protocol/lufa/lufa.c ****         Endpoint_ClearOUT();
 288:tmk_core/protocol/lufa/lufa.c ****     }
 289:tmk_core/protocol/lufa/lufa.c **** #    endif
 290:tmk_core/protocol/lufa/lufa.c **** 
 291:tmk_core/protocol/lufa/lufa.c ****     /* IN packet */
 292:tmk_core/protocol/lufa/lufa.c ****     Endpoint_SelectEndpoint(CONSOLE_IN_EPNUM);
 293:tmk_core/protocol/lufa/lufa.c ****     if (!Endpoint_IsEnabled() || !Endpoint_IsConfigured()) {
 294:tmk_core/protocol/lufa/lufa.c ****         Endpoint_SelectEndpoint(ep);
 295:tmk_core/protocol/lufa/lufa.c ****         return;
 296:tmk_core/protocol/lufa/lufa.c ****     }
 297:tmk_core/protocol/lufa/lufa.c **** 
 298:tmk_core/protocol/lufa/lufa.c ****     // fill empty bank
 299:tmk_core/protocol/lufa/lufa.c ****     while (Endpoint_IsReadWriteAllowed()) Endpoint_Write_8(0);
 300:tmk_core/protocol/lufa/lufa.c **** 
 301:tmk_core/protocol/lufa/lufa.c ****     // flush sendchar packet
 302:tmk_core/protocol/lufa/lufa.c ****     if (Endpoint_IsINReady()) {
 303:tmk_core/protocol/lufa/lufa.c ****         Endpoint_ClearIN();
 304:tmk_core/protocol/lufa/lufa.c ****     }
 305:tmk_core/protocol/lufa/lufa.c **** 
 306:tmk_core/protocol/lufa/lufa.c ****     Endpoint_SelectEndpoint(ep);
 307:tmk_core/protocol/lufa/lufa.c **** }
 308:tmk_core/protocol/lufa/lufa.c **** #endif
 309:tmk_core/protocol/lufa/lufa.c **** 
 310:tmk_core/protocol/lufa/lufa.c **** /*******************************************************************************
 311:tmk_core/protocol/lufa/lufa.c ****  * Joystick
 312:tmk_core/protocol/lufa/lufa.c ****  ******************************************************************************/
 313:tmk_core/protocol/lufa/lufa.c **** #ifdef JOYSTICK_ENABLE
 314:tmk_core/protocol/lufa/lufa.c **** void send_joystick_packet(joystick_t *joystick) {
 315:tmk_core/protocol/lufa/lufa.c ****     uint8_t timeout = 255;
 316:tmk_core/protocol/lufa/lufa.c **** 
 317:tmk_core/protocol/lufa/lufa.c ****     joystick_report_t r = {
 318:tmk_core/protocol/lufa/lufa.c **** #    if JOYSTICK_AXES_COUNT > 0
 319:tmk_core/protocol/lufa/lufa.c ****         .axes =
 320:tmk_core/protocol/lufa/lufa.c ****             {
 321:tmk_core/protocol/lufa/lufa.c ****                 joystick->axes[0],
 322:tmk_core/protocol/lufa/lufa.c **** 
 323:tmk_core/protocol/lufa/lufa.c **** #        if JOYSTICK_AXES_COUNT >= 2
 324:tmk_core/protocol/lufa/lufa.c ****                 joystick->axes[1],
 325:tmk_core/protocol/lufa/lufa.c **** #        endif
 326:tmk_core/protocol/lufa/lufa.c **** #        if JOYSTICK_AXES_COUNT >= 3
 327:tmk_core/protocol/lufa/lufa.c ****                 joystick->axes[2],
 328:tmk_core/protocol/lufa/lufa.c **** #        endif
 329:tmk_core/protocol/lufa/lufa.c **** #        if JOYSTICK_AXES_COUNT >= 4
 330:tmk_core/protocol/lufa/lufa.c ****                 joystick->axes[3],
 331:tmk_core/protocol/lufa/lufa.c **** #        endif
 332:tmk_core/protocol/lufa/lufa.c **** #        if JOYSTICK_AXES_COUNT >= 5
 333:tmk_core/protocol/lufa/lufa.c ****                 joystick->axes[4],
 334:tmk_core/protocol/lufa/lufa.c **** #        endif
 335:tmk_core/protocol/lufa/lufa.c **** #        if JOYSTICK_AXES_COUNT >= 6
 336:tmk_core/protocol/lufa/lufa.c ****                 joystick->axes[5],
 337:tmk_core/protocol/lufa/lufa.c **** #        endif
 338:tmk_core/protocol/lufa/lufa.c ****             },
 339:tmk_core/protocol/lufa/lufa.c **** #    endif  // JOYSTICK_AXES_COUNT>0
 340:tmk_core/protocol/lufa/lufa.c **** 
 341:tmk_core/protocol/lufa/lufa.c **** #    if JOYSTICK_BUTTON_COUNT > 0
 342:tmk_core/protocol/lufa/lufa.c ****         .buttons =
 343:tmk_core/protocol/lufa/lufa.c ****             {
 344:tmk_core/protocol/lufa/lufa.c ****                 joystick->buttons[0],
 345:tmk_core/protocol/lufa/lufa.c **** 
 346:tmk_core/protocol/lufa/lufa.c **** #        if JOYSTICK_BUTTON_COUNT > 8
 347:tmk_core/protocol/lufa/lufa.c ****                 joystick->buttons[1],
 348:tmk_core/protocol/lufa/lufa.c **** #        endif
 349:tmk_core/protocol/lufa/lufa.c **** #        if JOYSTICK_BUTTON_COUNT > 16
 350:tmk_core/protocol/lufa/lufa.c ****                 joystick->buttons[2],
 351:tmk_core/protocol/lufa/lufa.c **** #        endif
 352:tmk_core/protocol/lufa/lufa.c **** #        if JOYSTICK_BUTTON_COUNT > 24
 353:tmk_core/protocol/lufa/lufa.c ****                 joystick->buttons[3],
 354:tmk_core/protocol/lufa/lufa.c **** #        endif
 355:tmk_core/protocol/lufa/lufa.c ****             }
 356:tmk_core/protocol/lufa/lufa.c **** #    endif  // JOYSTICK_BUTTON_COUNT>0
 357:tmk_core/protocol/lufa/lufa.c ****     };
 358:tmk_core/protocol/lufa/lufa.c **** 
 359:tmk_core/protocol/lufa/lufa.c ****     /* Select the Joystick Report Endpoint */
 360:tmk_core/protocol/lufa/lufa.c ****     Endpoint_SelectEndpoint(JOYSTICK_IN_EPNUM);
 361:tmk_core/protocol/lufa/lufa.c **** 
 362:tmk_core/protocol/lufa/lufa.c ****     /* Check if write ready for a polling interval around 10ms */
 363:tmk_core/protocol/lufa/lufa.c ****     while (timeout-- && !Endpoint_IsReadWriteAllowed()) _delay_us(40);
 364:tmk_core/protocol/lufa/lufa.c ****     if (!Endpoint_IsReadWriteAllowed()) return;
 365:tmk_core/protocol/lufa/lufa.c **** 
 366:tmk_core/protocol/lufa/lufa.c ****     /* Write Joystick Report Data */
 367:tmk_core/protocol/lufa/lufa.c ****     Endpoint_Write_Stream_LE(&r, sizeof(joystick_report_t), NULL);
 368:tmk_core/protocol/lufa/lufa.c **** 
 369:tmk_core/protocol/lufa/lufa.c ****     /* Finalize the stream transfer to send the last packet */
 370:tmk_core/protocol/lufa/lufa.c ****     Endpoint_ClearIN();
 371:tmk_core/protocol/lufa/lufa.c **** }
 372:tmk_core/protocol/lufa/lufa.c **** #endif
 373:tmk_core/protocol/lufa/lufa.c **** 
 374:tmk_core/protocol/lufa/lufa.c **** /*******************************************************************************
 375:tmk_core/protocol/lufa/lufa.c ****  * USB Events
 376:tmk_core/protocol/lufa/lufa.c ****  ******************************************************************************/
 377:tmk_core/protocol/lufa/lufa.c **** /*
 378:tmk_core/protocol/lufa/lufa.c ****  * Event Order of Plug in:
 379:tmk_core/protocol/lufa/lufa.c ****  * 0) EVENT_USB_Device_Connect
 380:tmk_core/protocol/lufa/lufa.c ****  * 1) EVENT_USB_Device_Suspend
 381:tmk_core/protocol/lufa/lufa.c ****  * 2) EVENT_USB_Device_Reset
 382:tmk_core/protocol/lufa/lufa.c ****  * 3) EVENT_USB_Device_Wake
 383:tmk_core/protocol/lufa/lufa.c ****  */
 384:tmk_core/protocol/lufa/lufa.c **** /** \brief Event USB Device Connect
 385:tmk_core/protocol/lufa/lufa.c ****  *
 386:tmk_core/protocol/lufa/lufa.c ****  * FIXME: Needs doc
 387:tmk_core/protocol/lufa/lufa.c ****  */
 388:tmk_core/protocol/lufa/lufa.c **** void EVENT_USB_Device_Connect(void) {
 389:tmk_core/protocol/lufa/lufa.c ****     print("[C]");
 390:tmk_core/protocol/lufa/lufa.c ****     /* For battery powered device */
 391:tmk_core/protocol/lufa/lufa.c ****     if (!USB_IsInitialized) {
 392:tmk_core/protocol/lufa/lufa.c ****         USB_Disable();
 393:tmk_core/protocol/lufa/lufa.c ****         USB_Init();
 394:tmk_core/protocol/lufa/lufa.c ****         USB_Device_EnableSOFEvents();
 395:tmk_core/protocol/lufa/lufa.c ****     }
 396:tmk_core/protocol/lufa/lufa.c **** }
 397:tmk_core/protocol/lufa/lufa.c **** 
 398:tmk_core/protocol/lufa/lufa.c **** /** \brief Event USB Device Connect
 399:tmk_core/protocol/lufa/lufa.c ****  *
 400:tmk_core/protocol/lufa/lufa.c ****  * FIXME: Needs doc
 401:tmk_core/protocol/lufa/lufa.c ****  */
 402:tmk_core/protocol/lufa/lufa.c **** void EVENT_USB_Device_Disconnect(void) {
 403:tmk_core/protocol/lufa/lufa.c ****     print("[D]");
 404:tmk_core/protocol/lufa/lufa.c ****     /* For battery powered device */
 405:tmk_core/protocol/lufa/lufa.c ****     USB_IsInitialized = false;
 406:tmk_core/protocol/lufa/lufa.c ****     /* TODO: This doesn't work. After several plug in/outs can not be enumerated.
 407:tmk_core/protocol/lufa/lufa.c ****         if (USB_IsInitialized) {
 408:tmk_core/protocol/lufa/lufa.c ****             USB_Disable();  // Disable all interrupts
 409:tmk_core/protocol/lufa/lufa.c ****         USB_Controller_Enable();
 410:tmk_core/protocol/lufa/lufa.c ****             USB_INT_Enable(USB_INT_VBUSTI);
 411:tmk_core/protocol/lufa/lufa.c ****         }
 412:tmk_core/protocol/lufa/lufa.c ****     */
 413:tmk_core/protocol/lufa/lufa.c **** }
 414:tmk_core/protocol/lufa/lufa.c **** 
 415:tmk_core/protocol/lufa/lufa.c **** /** \brief Event USB Device Connect
 416:tmk_core/protocol/lufa/lufa.c ****  *
 417:tmk_core/protocol/lufa/lufa.c ****  * FIXME: Needs doc
 418:tmk_core/protocol/lufa/lufa.c ****  */
 419:tmk_core/protocol/lufa/lufa.c **** void EVENT_USB_Device_Reset(void) { print("[R]"); }
 420:tmk_core/protocol/lufa/lufa.c **** 
 421:tmk_core/protocol/lufa/lufa.c **** /** \brief Event USB Device Connect
 422:tmk_core/protocol/lufa/lufa.c ****  *
 423:tmk_core/protocol/lufa/lufa.c ****  * FIXME: Needs doc
 424:tmk_core/protocol/lufa/lufa.c ****  */
 425:tmk_core/protocol/lufa/lufa.c **** void EVENT_USB_Device_Suspend() {
 426:tmk_core/protocol/lufa/lufa.c ****     print("[S]");
 427:tmk_core/protocol/lufa/lufa.c **** #ifdef SLEEP_LED_ENABLE
 428:tmk_core/protocol/lufa/lufa.c ****     sleep_led_enable();
 429:tmk_core/protocol/lufa/lufa.c **** #endif
 430:tmk_core/protocol/lufa/lufa.c **** }
 431:tmk_core/protocol/lufa/lufa.c **** 
 432:tmk_core/protocol/lufa/lufa.c **** /** \brief Event USB Device Connect
 433:tmk_core/protocol/lufa/lufa.c ****  *
 434:tmk_core/protocol/lufa/lufa.c ****  * FIXME: Needs doc
 435:tmk_core/protocol/lufa/lufa.c ****  */
 436:tmk_core/protocol/lufa/lufa.c **** void EVENT_USB_Device_WakeUp() {
 437:tmk_core/protocol/lufa/lufa.c ****     print("[W]");
 438:tmk_core/protocol/lufa/lufa.c ****     suspend_wakeup_init();
 439:tmk_core/protocol/lufa/lufa.c **** 
 440:tmk_core/protocol/lufa/lufa.c **** #ifdef SLEEP_LED_ENABLE
 441:tmk_core/protocol/lufa/lufa.c ****     sleep_led_disable();
 442:tmk_core/protocol/lufa/lufa.c ****     // NOTE: converters may not accept this
 443:tmk_core/protocol/lufa/lufa.c ****     led_set(host_keyboard_leds());
 444:tmk_core/protocol/lufa/lufa.c **** #endif
 445:tmk_core/protocol/lufa/lufa.c **** }
 446:tmk_core/protocol/lufa/lufa.c **** 
 447:tmk_core/protocol/lufa/lufa.c **** #ifdef CONSOLE_ENABLE
 448:tmk_core/protocol/lufa/lufa.c **** static bool console_flush = false;
 449:tmk_core/protocol/lufa/lufa.c **** #    define CONSOLE_FLUSH_SET(b)                                     \
 450:tmk_core/protocol/lufa/lufa.c ****         do {                                                         \
 451:tmk_core/protocol/lufa/lufa.c ****             ATOMIC_BLOCK(ATOMIC_RESTORESTATE) { console_flush = b; } \
 452:tmk_core/protocol/lufa/lufa.c ****         } while (0)
 453:tmk_core/protocol/lufa/lufa.c **** 
 454:tmk_core/protocol/lufa/lufa.c **** /** \brief Event USB Device Start Of Frame
 455:tmk_core/protocol/lufa/lufa.c ****  *
 456:tmk_core/protocol/lufa/lufa.c ****  * FIXME: Needs doc
 457:tmk_core/protocol/lufa/lufa.c ****  * called every 1ms
 458:tmk_core/protocol/lufa/lufa.c ****  */
 459:tmk_core/protocol/lufa/lufa.c **** void EVENT_USB_Device_StartOfFrame(void) {
 460:tmk_core/protocol/lufa/lufa.c ****     static uint8_t count;
 461:tmk_core/protocol/lufa/lufa.c ****     if (++count % 50) return;
 462:tmk_core/protocol/lufa/lufa.c ****     count = 0;
 463:tmk_core/protocol/lufa/lufa.c **** 
 464:tmk_core/protocol/lufa/lufa.c ****     if (!console_flush) return;
 465:tmk_core/protocol/lufa/lufa.c ****     Console_Task();
 466:tmk_core/protocol/lufa/lufa.c ****     console_flush = false;
 467:tmk_core/protocol/lufa/lufa.c **** }
 468:tmk_core/protocol/lufa/lufa.c **** 
 469:tmk_core/protocol/lufa/lufa.c **** #endif
 470:tmk_core/protocol/lufa/lufa.c **** 
 471:tmk_core/protocol/lufa/lufa.c **** /** \brief Event handler for the USB_ConfigurationChanged event.
 472:tmk_core/protocol/lufa/lufa.c ****  *
 473:tmk_core/protocol/lufa/lufa.c ****  * This is fired when the host sets the current configuration of the USB device after enumeration.
 474:tmk_core/protocol/lufa/lufa.c ****  *
 475:tmk_core/protocol/lufa/lufa.c ****  * ATMega32u2 supports dual bank(ping-pong mode) only on endpoint 3 and 4,
 476:tmk_core/protocol/lufa/lufa.c ****  * it is safe to use single bank for all endpoints.
 477:tmk_core/protocol/lufa/lufa.c ****  */
 478:tmk_core/protocol/lufa/lufa.c **** void EVENT_USB_Device_ConfigurationChanged(void) {
 479:tmk_core/protocol/lufa/lufa.c ****     bool ConfigSuccess = true;
 480:tmk_core/protocol/lufa/lufa.c **** 
 481:tmk_core/protocol/lufa/lufa.c **** #ifndef KEYBOARD_SHARED_EP
 482:tmk_core/protocol/lufa/lufa.c ****     /* Setup keyboard report endpoint */
 483:tmk_core/protocol/lufa/lufa.c ****     ConfigSuccess &= Endpoint_ConfigureEndpoint((KEYBOARD_IN_EPNUM | ENDPOINT_DIR_IN), EP_TYPE_INTE
 484:tmk_core/protocol/lufa/lufa.c **** #endif
 485:tmk_core/protocol/lufa/lufa.c **** 
 486:tmk_core/protocol/lufa/lufa.c **** #if defined(MOUSE_ENABLE) && !defined(MOUSE_SHARED_EP)
 487:tmk_core/protocol/lufa/lufa.c ****     /* Setup mouse report endpoint */
 488:tmk_core/protocol/lufa/lufa.c ****     ConfigSuccess &= Endpoint_ConfigureEndpoint((MOUSE_IN_EPNUM | ENDPOINT_DIR_IN), EP_TYPE_INTERRU
 489:tmk_core/protocol/lufa/lufa.c **** #endif
 490:tmk_core/protocol/lufa/lufa.c **** 
 491:tmk_core/protocol/lufa/lufa.c **** #ifdef SHARED_EP_ENABLE
 492:tmk_core/protocol/lufa/lufa.c ****     /* Setup shared report endpoint */
 493:tmk_core/protocol/lufa/lufa.c ****     ConfigSuccess &= Endpoint_ConfigureEndpoint((SHARED_IN_EPNUM | ENDPOINT_DIR_IN), EP_TYPE_INTERR
 494:tmk_core/protocol/lufa/lufa.c **** #endif
 495:tmk_core/protocol/lufa/lufa.c **** 
 496:tmk_core/protocol/lufa/lufa.c **** #ifdef RAW_ENABLE
 497:tmk_core/protocol/lufa/lufa.c ****     /* Setup raw HID endpoints */
 498:tmk_core/protocol/lufa/lufa.c ****     ConfigSuccess &= Endpoint_ConfigureEndpoint((RAW_IN_EPNUM | ENDPOINT_DIR_IN), EP_TYPE_INTERRUPT
 499:tmk_core/protocol/lufa/lufa.c ****     ConfigSuccess &= Endpoint_ConfigureEndpoint((RAW_OUT_EPNUM | ENDPOINT_DIR_OUT), EP_TYPE_INTERRU
 500:tmk_core/protocol/lufa/lufa.c **** #endif
 501:tmk_core/protocol/lufa/lufa.c **** 
 502:tmk_core/protocol/lufa/lufa.c **** #ifdef CONSOLE_ENABLE
 503:tmk_core/protocol/lufa/lufa.c ****     /* Setup console endpoint */
 504:tmk_core/protocol/lufa/lufa.c ****     ConfigSuccess &= Endpoint_ConfigureEndpoint((CONSOLE_IN_EPNUM | ENDPOINT_DIR_IN), EP_TYPE_INTER
 505:tmk_core/protocol/lufa/lufa.c **** #    if 0
 506:tmk_core/protocol/lufa/lufa.c ****     ConfigSuccess &= Endpoint_ConfigureEndpoint((CONSOLE_OUT_EPNUM | ENDPOINT_DIR_OUT), EP_TYPE_INT
 507:tmk_core/protocol/lufa/lufa.c **** #    endif
 508:tmk_core/protocol/lufa/lufa.c **** #endif
 509:tmk_core/protocol/lufa/lufa.c **** 
 510:tmk_core/protocol/lufa/lufa.c **** #ifdef MIDI_ENABLE
 511:tmk_core/protocol/lufa/lufa.c ****     /* Setup MIDI stream endpoints */
 512:tmk_core/protocol/lufa/lufa.c ****     ConfigSuccess &= Endpoint_ConfigureEndpoint((MIDI_STREAM_IN_EPNUM | ENDPOINT_DIR_IN), EP_TYPE_B
 513:tmk_core/protocol/lufa/lufa.c ****     ConfigSuccess &= Endpoint_ConfigureEndpoint((MIDI_STREAM_OUT_EPNUM | ENDPOINT_DIR_IN), EP_TYPE_
 514:tmk_core/protocol/lufa/lufa.c **** #endif
 515:tmk_core/protocol/lufa/lufa.c **** 
 516:tmk_core/protocol/lufa/lufa.c **** #ifdef VIRTSER_ENABLE
 517:tmk_core/protocol/lufa/lufa.c ****     /* Setup virtual serial endpoints */
 518:tmk_core/protocol/lufa/lufa.c ****     ConfigSuccess &= Endpoint_ConfigureEndpoint((CDC_NOTIFICATION_EPNUM | ENDPOINT_DIR_IN), EP_TYPE
 519:tmk_core/protocol/lufa/lufa.c ****     ConfigSuccess &= Endpoint_ConfigureEndpoint((CDC_OUT_EPNUM | ENDPOINT_DIR_OUT), EP_TYPE_BULK, C
 520:tmk_core/protocol/lufa/lufa.c ****     ConfigSuccess &= Endpoint_ConfigureEndpoint((CDC_IN_EPNUM | ENDPOINT_DIR_IN), EP_TYPE_BULK, CDC
 521:tmk_core/protocol/lufa/lufa.c **** #endif
 522:tmk_core/protocol/lufa/lufa.c **** 
 523:tmk_core/protocol/lufa/lufa.c **** #ifdef JOYSTICK_ENABLE
 524:tmk_core/protocol/lufa/lufa.c ****     /* Setup joystick endpoint */
 525:tmk_core/protocol/lufa/lufa.c ****     ConfigSuccess &= Endpoint_ConfigureEndpoint((JOYSTICK_IN_EPNUM | ENDPOINT_DIR_IN), EP_TYPE_INTE
 526:tmk_core/protocol/lufa/lufa.c **** #endif
 527:tmk_core/protocol/lufa/lufa.c **** }
 528:tmk_core/protocol/lufa/lufa.c **** 
 529:tmk_core/protocol/lufa/lufa.c **** /* FIXME: Expose this table in the docs somehow
 530:tmk_core/protocol/lufa/lufa.c **** Appendix G: HID Request Support Requirements
 531:tmk_core/protocol/lufa/lufa.c **** 
 532:tmk_core/protocol/lufa/lufa.c **** The following table enumerates the requests that need to be supported by various types of HID class
 533:tmk_core/protocol/lufa/lufa.c **** 
 534:tmk_core/protocol/lufa/lufa.c **** Device type     GetReport   SetReport   GetIdle     SetIdle     GetProtocol SetProtocol
 535:tmk_core/protocol/lufa/lufa.c **** ------------------------------------------------------------------------------------------
 536:tmk_core/protocol/lufa/lufa.c **** Boot Mouse      Required    Optional    Optional    Optional    Required    Required
 537:tmk_core/protocol/lufa/lufa.c **** Non-Boot Mouse  Required    Optional    Optional    Optional    Optional    Optional
 538:tmk_core/protocol/lufa/lufa.c **** Boot Keyboard   Required    Optional    Required    Required    Required    Required
 539:tmk_core/protocol/lufa/lufa.c **** Non-Boot Keybrd Required    Optional    Required    Required    Optional    Optional
 540:tmk_core/protocol/lufa/lufa.c **** Other Device    Required    Optional    Optional    Optional    Optional    Optional
 541:tmk_core/protocol/lufa/lufa.c **** */
 542:tmk_core/protocol/lufa/lufa.c **** /** \brief Event handler for the USB_ControlRequest event.
 543:tmk_core/protocol/lufa/lufa.c ****  *
 544:tmk_core/protocol/lufa/lufa.c ****  *  This is fired before passing along unhandled control requests to the library for processing int
 545:tmk_core/protocol/lufa/lufa.c ****  */
 546:tmk_core/protocol/lufa/lufa.c **** void EVENT_USB_Device_ControlRequest(void) {
 547:tmk_core/protocol/lufa/lufa.c ****     uint8_t *ReportData = NULL;
 548:tmk_core/protocol/lufa/lufa.c ****     uint8_t  ReportSize = 0;
 549:tmk_core/protocol/lufa/lufa.c **** 
 550:tmk_core/protocol/lufa/lufa.c ****     /* Handle HID Class specific requests */
 551:tmk_core/protocol/lufa/lufa.c ****     switch (USB_ControlRequest.bRequest) {
 552:tmk_core/protocol/lufa/lufa.c ****         case HID_REQ_GetReport:
 553:tmk_core/protocol/lufa/lufa.c ****             if (USB_ControlRequest.bmRequestType == (REQDIR_DEVICETOHOST | REQTYPE_CLASS | REQREC_I
 554:tmk_core/protocol/lufa/lufa.c ****                 Endpoint_ClearSETUP();
 555:tmk_core/protocol/lufa/lufa.c **** 
 556:tmk_core/protocol/lufa/lufa.c ****                 // Interface
 557:tmk_core/protocol/lufa/lufa.c ****                 switch (USB_ControlRequest.wIndex) {
 558:tmk_core/protocol/lufa/lufa.c ****                     case KEYBOARD_INTERFACE:
 559:tmk_core/protocol/lufa/lufa.c ****                         // TODO: test/check
 560:tmk_core/protocol/lufa/lufa.c ****                         ReportData = (uint8_t *)&keyboard_report_sent;
 561:tmk_core/protocol/lufa/lufa.c ****                         ReportSize = sizeof(keyboard_report_sent);
 562:tmk_core/protocol/lufa/lufa.c ****                         break;
 563:tmk_core/protocol/lufa/lufa.c ****                 }
 564:tmk_core/protocol/lufa/lufa.c **** 
 565:tmk_core/protocol/lufa/lufa.c ****                 /* Write the report data to the control endpoint */
 566:tmk_core/protocol/lufa/lufa.c ****                 Endpoint_Write_Control_Stream_LE(ReportData, ReportSize);
 567:tmk_core/protocol/lufa/lufa.c ****                 Endpoint_ClearOUT();
 568:tmk_core/protocol/lufa/lufa.c ****             }
 569:tmk_core/protocol/lufa/lufa.c **** 
 570:tmk_core/protocol/lufa/lufa.c ****             break;
 571:tmk_core/protocol/lufa/lufa.c ****         case HID_REQ_SetReport:
 572:tmk_core/protocol/lufa/lufa.c ****             if (USB_ControlRequest.bmRequestType == (REQDIR_HOSTTODEVICE | REQTYPE_CLASS | REQREC_I
 573:tmk_core/protocol/lufa/lufa.c ****                 // Interface
 574:tmk_core/protocol/lufa/lufa.c ****                 switch (USB_ControlRequest.wIndex) {
 575:tmk_core/protocol/lufa/lufa.c ****                     case KEYBOARD_INTERFACE:
 576:tmk_core/protocol/lufa/lufa.c **** #if defined(SHARED_EP_ENABLE) && !defined(KEYBOARD_SHARED_EP)
 577:tmk_core/protocol/lufa/lufa.c ****                     case SHARED_INTERFACE:
 578:tmk_core/protocol/lufa/lufa.c **** #endif
 579:tmk_core/protocol/lufa/lufa.c ****                         Endpoint_ClearSETUP();
 580:tmk_core/protocol/lufa/lufa.c **** 
 581:tmk_core/protocol/lufa/lufa.c ****                         while (!(Endpoint_IsOUTReceived())) {
 582:tmk_core/protocol/lufa/lufa.c ****                             if (USB_DeviceState == DEVICE_STATE_Unattached) return;
 583:tmk_core/protocol/lufa/lufa.c ****                         }
 584:tmk_core/protocol/lufa/lufa.c **** 
 585:tmk_core/protocol/lufa/lufa.c ****                         if (Endpoint_BytesInEndpoint() == 2) {
 586:tmk_core/protocol/lufa/lufa.c ****                             uint8_t report_id = Endpoint_Read_8();
 587:tmk_core/protocol/lufa/lufa.c **** 
 588:tmk_core/protocol/lufa/lufa.c ****                             if (report_id == REPORT_ID_KEYBOARD || report_id == REPORT_ID_NKRO) {
 589:tmk_core/protocol/lufa/lufa.c ****                                 keyboard_led_state = Endpoint_Read_8();
 590:tmk_core/protocol/lufa/lufa.c ****                             }
 591:tmk_core/protocol/lufa/lufa.c ****                         } else {
 592:tmk_core/protocol/lufa/lufa.c ****                             keyboard_led_state = Endpoint_Read_8();
 593:tmk_core/protocol/lufa/lufa.c ****                         }
 594:tmk_core/protocol/lufa/lufa.c **** 
 595:tmk_core/protocol/lufa/lufa.c ****                         Endpoint_ClearOUT();
 596:tmk_core/protocol/lufa/lufa.c ****                         Endpoint_ClearStatusStage();
 597:tmk_core/protocol/lufa/lufa.c ****                         break;
 598:tmk_core/protocol/lufa/lufa.c ****                 }
 599:tmk_core/protocol/lufa/lufa.c ****             }
 600:tmk_core/protocol/lufa/lufa.c **** 
 601:tmk_core/protocol/lufa/lufa.c ****             break;
 602:tmk_core/protocol/lufa/lufa.c **** 
 603:tmk_core/protocol/lufa/lufa.c ****         case HID_REQ_GetProtocol:
 604:tmk_core/protocol/lufa/lufa.c ****             if (USB_ControlRequest.bmRequestType == (REQDIR_DEVICETOHOST | REQTYPE_CLASS | REQREC_I
 605:tmk_core/protocol/lufa/lufa.c ****                 if (USB_ControlRequest.wIndex == KEYBOARD_INTERFACE) {
 606:tmk_core/protocol/lufa/lufa.c ****                     Endpoint_ClearSETUP();
 607:tmk_core/protocol/lufa/lufa.c ****                     while (!(Endpoint_IsINReady()))
 608:tmk_core/protocol/lufa/lufa.c ****                         ;
 609:tmk_core/protocol/lufa/lufa.c ****                     Endpoint_Write_8(keyboard_protocol);
 610:tmk_core/protocol/lufa/lufa.c ****                     Endpoint_ClearIN();
 611:tmk_core/protocol/lufa/lufa.c ****                     Endpoint_ClearStatusStage();
 612:tmk_core/protocol/lufa/lufa.c ****                 }
 613:tmk_core/protocol/lufa/lufa.c ****             }
 614:tmk_core/protocol/lufa/lufa.c **** 
 615:tmk_core/protocol/lufa/lufa.c ****             break;
 616:tmk_core/protocol/lufa/lufa.c ****         case HID_REQ_SetProtocol:
 617:tmk_core/protocol/lufa/lufa.c ****             if (USB_ControlRequest.bmRequestType == (REQDIR_HOSTTODEVICE | REQTYPE_CLASS | REQREC_I
 618:tmk_core/protocol/lufa/lufa.c ****                 if (USB_ControlRequest.wIndex == KEYBOARD_INTERFACE) {
 619:tmk_core/protocol/lufa/lufa.c ****                     Endpoint_ClearSETUP();
 620:tmk_core/protocol/lufa/lufa.c ****                     Endpoint_ClearStatusStage();
 621:tmk_core/protocol/lufa/lufa.c **** 
 622:tmk_core/protocol/lufa/lufa.c ****                     keyboard_protocol = (USB_ControlRequest.wValue & 0xFF);
 623:tmk_core/protocol/lufa/lufa.c ****                     clear_keyboard();
 624:tmk_core/protocol/lufa/lufa.c ****                 }
 625:tmk_core/protocol/lufa/lufa.c ****             }
 626:tmk_core/protocol/lufa/lufa.c **** 
 627:tmk_core/protocol/lufa/lufa.c ****             break;
 628:tmk_core/protocol/lufa/lufa.c ****         case HID_REQ_SetIdle:
 629:tmk_core/protocol/lufa/lufa.c ****             if (USB_ControlRequest.bmRequestType == (REQDIR_HOSTTODEVICE | REQTYPE_CLASS | REQREC_I
 630:tmk_core/protocol/lufa/lufa.c ****                 Endpoint_ClearSETUP();
 631:tmk_core/protocol/lufa/lufa.c ****                 Endpoint_ClearStatusStage();
 632:tmk_core/protocol/lufa/lufa.c **** 
 633:tmk_core/protocol/lufa/lufa.c ****                 keyboard_idle = ((USB_ControlRequest.wValue & 0xFF00) >> 8);
 634:tmk_core/protocol/lufa/lufa.c ****             }
 635:tmk_core/protocol/lufa/lufa.c **** 
 636:tmk_core/protocol/lufa/lufa.c ****             break;
 637:tmk_core/protocol/lufa/lufa.c ****         case HID_REQ_GetIdle:
 638:tmk_core/protocol/lufa/lufa.c ****             if (USB_ControlRequest.bmRequestType == (REQDIR_DEVICETOHOST | REQTYPE_CLASS | REQREC_I
 639:tmk_core/protocol/lufa/lufa.c ****                 Endpoint_ClearSETUP();
 640:tmk_core/protocol/lufa/lufa.c ****                 while (!(Endpoint_IsINReady()))
 641:tmk_core/protocol/lufa/lufa.c ****                     ;
 642:tmk_core/protocol/lufa/lufa.c ****                 Endpoint_Write_8(keyboard_idle);
 643:tmk_core/protocol/lufa/lufa.c ****                 Endpoint_ClearIN();
 644:tmk_core/protocol/lufa/lufa.c ****                 Endpoint_ClearStatusStage();
 645:tmk_core/protocol/lufa/lufa.c ****             }
 646:tmk_core/protocol/lufa/lufa.c **** 
 647:tmk_core/protocol/lufa/lufa.c ****             break;
 648:tmk_core/protocol/lufa/lufa.c ****     }
 649:tmk_core/protocol/lufa/lufa.c **** 
 650:tmk_core/protocol/lufa/lufa.c **** #ifdef VIRTSER_ENABLE
 651:tmk_core/protocol/lufa/lufa.c ****     CDC_Device_ProcessControlRequest(&cdc_device);
 652:tmk_core/protocol/lufa/lufa.c **** #endif
 653:tmk_core/protocol/lufa/lufa.c **** }
 654:tmk_core/protocol/lufa/lufa.c **** 
 655:tmk_core/protocol/lufa/lufa.c **** /*******************************************************************************
 656:tmk_core/protocol/lufa/lufa.c ****  * Host driver
 657:tmk_core/protocol/lufa/lufa.c ****  ******************************************************************************/
 658:tmk_core/protocol/lufa/lufa.c **** /** \brief Keyboard LEDs
 659:tmk_core/protocol/lufa/lufa.c ****  *
 660:tmk_core/protocol/lufa/lufa.c ****  * FIXME: Needs doc
 661:tmk_core/protocol/lufa/lufa.c ****  */
 662:tmk_core/protocol/lufa/lufa.c **** static uint8_t keyboard_leds(void) { return keyboard_led_state; }
  15               		.loc 1 662 36 view -0
  16               		.cfi_startproc
  17               	/* prologue: function */
  18               	/* frame size = 0 */
  19               	/* stack size = 0 */
  20               	.L__stack_usage = 0
  21               		.loc 1 662 38 view .LVU1
  22               		.loc 1 662 1 is_stmt 0 view .LVU2
  23 0000 8091 0000 		lds r24,keyboard_led_state
  24               	/* epilogue start */
  25 0004 0895      		ret
  26               		.cfi_endproc
  27               	.LFE130:
  29               		.section	.text.send_mouse,"ax",@progbits
  31               	send_mouse:
  32               	.LVL0:
  33               	.LFB132:
 663:tmk_core/protocol/lufa/lufa.c **** 
 664:tmk_core/protocol/lufa/lufa.c **** /** \brief Send Keyboard
 665:tmk_core/protocol/lufa/lufa.c ****  *
 666:tmk_core/protocol/lufa/lufa.c ****  * FIXME: Needs doc
 667:tmk_core/protocol/lufa/lufa.c ****  */
 668:tmk_core/protocol/lufa/lufa.c **** static void send_keyboard(report_keyboard_t *report) {
 669:tmk_core/protocol/lufa/lufa.c ****     uint8_t timeout = 255;
 670:tmk_core/protocol/lufa/lufa.c **** 
 671:tmk_core/protocol/lufa/lufa.c **** #ifdef BLUETOOTH_ENABLE
 672:tmk_core/protocol/lufa/lufa.c ****     uint8_t where = where_to_send();
 673:tmk_core/protocol/lufa/lufa.c **** 
 674:tmk_core/protocol/lufa/lufa.c ****     if (where == OUTPUT_BLUETOOTH || where == OUTPUT_USB_AND_BT) {
 675:tmk_core/protocol/lufa/lufa.c **** #    ifdef MODULE_ADAFRUIT_BLE
 676:tmk_core/protocol/lufa/lufa.c ****         adafruit_ble_send_keys(report->mods, report->keys, sizeof(report->keys));
 677:tmk_core/protocol/lufa/lufa.c **** #    elif MODULE_RN42
 678:tmk_core/protocol/lufa/lufa.c ****         serial_send(0xFD);
 679:tmk_core/protocol/lufa/lufa.c ****         serial_send(0x09);
 680:tmk_core/protocol/lufa/lufa.c ****         serial_send(0x01);
 681:tmk_core/protocol/lufa/lufa.c ****         serial_send(report->mods);
 682:tmk_core/protocol/lufa/lufa.c ****         serial_send(report->reserved);
 683:tmk_core/protocol/lufa/lufa.c ****         for (uint8_t i = 0; i < KEYBOARD_REPORT_KEYS; i++) {
 684:tmk_core/protocol/lufa/lufa.c ****             serial_send(report->keys[i]);
 685:tmk_core/protocol/lufa/lufa.c ****         }
 686:tmk_core/protocol/lufa/lufa.c **** #    endif
 687:tmk_core/protocol/lufa/lufa.c ****     }
 688:tmk_core/protocol/lufa/lufa.c **** 
 689:tmk_core/protocol/lufa/lufa.c ****     if (where != OUTPUT_USB && where != OUTPUT_USB_AND_BT) {
 690:tmk_core/protocol/lufa/lufa.c ****         return;
 691:tmk_core/protocol/lufa/lufa.c ****     }
 692:tmk_core/protocol/lufa/lufa.c **** #endif
 693:tmk_core/protocol/lufa/lufa.c **** 
 694:tmk_core/protocol/lufa/lufa.c ****     /* Select the Keyboard Report Endpoint */
 695:tmk_core/protocol/lufa/lufa.c ****     uint8_t ep   = KEYBOARD_IN_EPNUM;
 696:tmk_core/protocol/lufa/lufa.c ****     uint8_t size = KEYBOARD_REPORT_SIZE;
 697:tmk_core/protocol/lufa/lufa.c **** #ifdef NKRO_ENABLE
 698:tmk_core/protocol/lufa/lufa.c ****     if (keyboard_protocol && keymap_config.nkro) {
 699:tmk_core/protocol/lufa/lufa.c ****         ep   = SHARED_IN_EPNUM;
 700:tmk_core/protocol/lufa/lufa.c ****         size = sizeof(struct nkro_report);
 701:tmk_core/protocol/lufa/lufa.c ****     }
 702:tmk_core/protocol/lufa/lufa.c **** #endif
 703:tmk_core/protocol/lufa/lufa.c ****     Endpoint_SelectEndpoint(ep);
 704:tmk_core/protocol/lufa/lufa.c ****     /* Check if write ready for a polling interval around 10ms */
 705:tmk_core/protocol/lufa/lufa.c ****     while (timeout-- && !Endpoint_IsReadWriteAllowed()) _delay_us(40);
 706:tmk_core/protocol/lufa/lufa.c ****     if (!Endpoint_IsReadWriteAllowed()) return;
 707:tmk_core/protocol/lufa/lufa.c **** 
 708:tmk_core/protocol/lufa/lufa.c ****     /* If we're in Boot Protocol, don't send any report ID or other funky fields */
 709:tmk_core/protocol/lufa/lufa.c ****     if (!keyboard_protocol) {
 710:tmk_core/protocol/lufa/lufa.c ****         Endpoint_Write_Stream_LE(&report->mods, 8, NULL);
 711:tmk_core/protocol/lufa/lufa.c ****     } else {
 712:tmk_core/protocol/lufa/lufa.c ****         Endpoint_Write_Stream_LE(report, size, NULL);
 713:tmk_core/protocol/lufa/lufa.c ****     }
 714:tmk_core/protocol/lufa/lufa.c **** 
 715:tmk_core/protocol/lufa/lufa.c ****     /* Finalize the stream transfer to send the last packet */
 716:tmk_core/protocol/lufa/lufa.c ****     Endpoint_ClearIN();
 717:tmk_core/protocol/lufa/lufa.c **** 
 718:tmk_core/protocol/lufa/lufa.c ****     keyboard_report_sent = *report;
 719:tmk_core/protocol/lufa/lufa.c **** }
 720:tmk_core/protocol/lufa/lufa.c **** 
 721:tmk_core/protocol/lufa/lufa.c **** /** \brief Send Mouse
 722:tmk_core/protocol/lufa/lufa.c ****  *
 723:tmk_core/protocol/lufa/lufa.c ****  * FIXME: Needs doc
 724:tmk_core/protocol/lufa/lufa.c ****  */
 725:tmk_core/protocol/lufa/lufa.c **** static void send_mouse(report_mouse_t *report) {
  34               		.loc 1 725 48 is_stmt 1 view -0
  35               		.cfi_startproc
  36               	/* prologue: function */
  37               	/* frame size = 0 */
  38               	/* stack size = 0 */
  39               	.L__stack_usage = 0
 726:tmk_core/protocol/lufa/lufa.c **** #ifdef MOUSE_ENABLE
 727:tmk_core/protocol/lufa/lufa.c ****     uint8_t timeout = 255;
 728:tmk_core/protocol/lufa/lufa.c **** 
 729:tmk_core/protocol/lufa/lufa.c **** #    ifdef BLUETOOTH_ENABLE
 730:tmk_core/protocol/lufa/lufa.c ****     uint8_t where = where_to_send();
 731:tmk_core/protocol/lufa/lufa.c **** 
 732:tmk_core/protocol/lufa/lufa.c ****     if (where == OUTPUT_BLUETOOTH || where == OUTPUT_USB_AND_BT) {
 733:tmk_core/protocol/lufa/lufa.c **** #        ifdef MODULE_ADAFRUIT_BLE
 734:tmk_core/protocol/lufa/lufa.c ****         // FIXME: mouse buttons
 735:tmk_core/protocol/lufa/lufa.c ****         adafruit_ble_send_mouse_move(report->x, report->y, report->v, report->h, report->buttons);
 736:tmk_core/protocol/lufa/lufa.c **** #        else
 737:tmk_core/protocol/lufa/lufa.c ****         serial_send(0xFD);
 738:tmk_core/protocol/lufa/lufa.c ****         serial_send(0x00);
 739:tmk_core/protocol/lufa/lufa.c ****         serial_send(0x03);
 740:tmk_core/protocol/lufa/lufa.c ****         serial_send(report->buttons);
 741:tmk_core/protocol/lufa/lufa.c ****         serial_send(report->x);
 742:tmk_core/protocol/lufa/lufa.c ****         serial_send(report->y);
 743:tmk_core/protocol/lufa/lufa.c ****         serial_send(report->v);  // should try sending the wheel v here
 744:tmk_core/protocol/lufa/lufa.c ****         serial_send(report->h);  // should try sending the wheel h here
 745:tmk_core/protocol/lufa/lufa.c ****         serial_send(0x00);
 746:tmk_core/protocol/lufa/lufa.c **** #        endif
 747:tmk_core/protocol/lufa/lufa.c ****     }
 748:tmk_core/protocol/lufa/lufa.c **** 
 749:tmk_core/protocol/lufa/lufa.c ****     if (where != OUTPUT_USB && where != OUTPUT_USB_AND_BT) {
 750:tmk_core/protocol/lufa/lufa.c ****         return;
 751:tmk_core/protocol/lufa/lufa.c ****     }
 752:tmk_core/protocol/lufa/lufa.c **** #    endif
 753:tmk_core/protocol/lufa/lufa.c **** 
 754:tmk_core/protocol/lufa/lufa.c ****     /* Select the Mouse Report Endpoint */
 755:tmk_core/protocol/lufa/lufa.c ****     Endpoint_SelectEndpoint(MOUSE_IN_EPNUM);
 756:tmk_core/protocol/lufa/lufa.c **** 
 757:tmk_core/protocol/lufa/lufa.c ****     /* Check if write ready for a polling interval around 10ms */
 758:tmk_core/protocol/lufa/lufa.c ****     while (timeout-- && !Endpoint_IsReadWriteAllowed()) _delay_us(40);
 759:tmk_core/protocol/lufa/lufa.c ****     if (!Endpoint_IsReadWriteAllowed()) return;
 760:tmk_core/protocol/lufa/lufa.c **** 
 761:tmk_core/protocol/lufa/lufa.c ****     /* Write Mouse Report Data */
 762:tmk_core/protocol/lufa/lufa.c ****     Endpoint_Write_Stream_LE(report, sizeof(report_mouse_t), NULL);
 763:tmk_core/protocol/lufa/lufa.c **** 
 764:tmk_core/protocol/lufa/lufa.c ****     /* Finalize the stream transfer to send the last packet */
 765:tmk_core/protocol/lufa/lufa.c ****     Endpoint_ClearIN();
 766:tmk_core/protocol/lufa/lufa.c **** #endif
 767:tmk_core/protocol/lufa/lufa.c **** }
  40               		.loc 1 767 1 view .LVU4
  41               	/* epilogue start */
  42 0000 0895      		ret
  43               		.cfi_endproc
  44               	.LFE132:
  46               		.section	.text.send_extra,"ax",@progbits
  48               	send_extra:
  49               	.LVL1:
  50               	.LFB133:
 768:tmk_core/protocol/lufa/lufa.c **** 
 769:tmk_core/protocol/lufa/lufa.c **** /** \brief Send Extra
 770:tmk_core/protocol/lufa/lufa.c ****  *
 771:tmk_core/protocol/lufa/lufa.c ****  * FIXME: Needs doc
 772:tmk_core/protocol/lufa/lufa.c ****  */
 773:tmk_core/protocol/lufa/lufa.c **** #ifdef EXTRAKEY_ENABLE
 774:tmk_core/protocol/lufa/lufa.c **** static void send_extra(uint8_t report_id, uint16_t data) {
  51               		.loc 1 774 58 view -0
  52               		.cfi_startproc
  53               		.loc 1 774 58 is_stmt 0 view .LVU6
  54 0000 CF93      		push r28
  55               	.LCFI0:
  56               		.cfi_def_cfa_offset 3
  57               		.cfi_offset 28, -2
  58 0002 DF93      		push r29
  59               	.LCFI1:
  60               		.cfi_def_cfa_offset 4
  61               		.cfi_offset 29, -3
  62 0004 00D0      		rcall .
  63 0006 0F92      		push __tmp_reg__
  64               	.LCFI2:
  65               		.cfi_def_cfa_offset 7
  66 0008 CDB7      		in r28,__SP_L__
  67 000a DEB7      		in r29,__SP_H__
  68               	.LCFI3:
  69               		.cfi_def_cfa_register 28
  70               	/* prologue: function */
  71               	/* frame size = 3 */
  72               	/* stack size = 5 */
  73               	.L__stack_usage = 5
 775:tmk_core/protocol/lufa/lufa.c ****     uint8_t timeout = 255;
  74               		.loc 1 775 5 is_stmt 1 view .LVU7
  75               	.LVL2:
 776:tmk_core/protocol/lufa/lufa.c **** 
 777:tmk_core/protocol/lufa/lufa.c ****     if (USB_DeviceState != DEVICE_STATE_Configured) return;
  76               		.loc 1 777 5 view .LVU8
  77               		.loc 1 777 25 is_stmt 0 view .LVU9
  78 000c 9091 0000 		lds r25,USB_DeviceState
  79               		.loc 1 777 8 view .LVU10
  80 0010 9430      		cpi r25,lo8(4)
  81 0012 01F4      		brne .L3
 778:tmk_core/protocol/lufa/lufa.c **** 
 779:tmk_core/protocol/lufa/lufa.c ****     report_extra_t r = {.report_id = report_id, .usage = data};
  82               		.loc 1 779 5 is_stmt 1 view .LVU11
  83               		.loc 1 779 20 is_stmt 0 view .LVU12
  84 0014 8983      		std Y+1,r24
  85 0016 7B83      		std Y+3,r23
  86 0018 6A83      		std Y+2,r22
 780:tmk_core/protocol/lufa/lufa.c ****     Endpoint_SelectEndpoint(SHARED_IN_EPNUM);
  87               		.loc 1 780 5 is_stmt 1 view .LVU13
  88               	.LVL3:
  89               	.LBB86:
  90               	.LBI86:
  91               		.file 2 "lib/lufa/LUFA/Drivers/USB/Core/AVR8/../AVR8/Endpoint_AVR8.h"
   1:lib/lufa/LUFA/Drivers/USB/Core/AVR8/../AVR8/Endpoint_AVR8.h **** /*
   2:lib/lufa/LUFA/Drivers/USB/Core/AVR8/../AVR8/Endpoint_AVR8.h ****              LUFA Library
   3:lib/lufa/LUFA/Drivers/USB/Core/AVR8/../AVR8/Endpoint_AVR8.h ****      Copyright (C) Dean Camera, 2019.
   4:lib/lufa/LUFA/Drivers/USB/Core/AVR8/../AVR8/Endpoint_AVR8.h **** 
   5:lib/lufa/LUFA/Drivers/USB/Core/AVR8/../AVR8/Endpoint_AVR8.h ****   dean [at] fourwalledcubicle [dot] com
   6:lib/lufa/LUFA/Drivers/USB/Core/AVR8/../AVR8/Endpoint_AVR8.h ****            www.lufa-lib.org
   7:lib/lufa/LUFA/Drivers/USB/Core/AVR8/../AVR8/Endpoint_AVR8.h **** */
   8:lib/lufa/LUFA/Drivers/USB/Core/AVR8/../AVR8/Endpoint_AVR8.h **** 
   9:lib/lufa/LUFA/Drivers/USB/Core/AVR8/../AVR8/Endpoint_AVR8.h **** /*
  10:lib/lufa/LUFA/Drivers/USB/Core/AVR8/../AVR8/Endpoint_AVR8.h ****   Copyright 2019  Dean Camera (dean [at] fourwalledcubicle [dot] com)
  11:lib/lufa/LUFA/Drivers/USB/Core/AVR8/../AVR8/Endpoint_AVR8.h **** 
  12:lib/lufa/LUFA/Drivers/USB/Core/AVR8/../AVR8/Endpoint_AVR8.h ****   Permission to use, copy, modify, distribute, and sell this
  13:lib/lufa/LUFA/Drivers/USB/Core/AVR8/../AVR8/Endpoint_AVR8.h ****   software and its documentation for any purpose is hereby granted
  14:lib/lufa/LUFA/Drivers/USB/Core/AVR8/../AVR8/Endpoint_AVR8.h ****   without fee, provided that the above copyright notice appear in
  15:lib/lufa/LUFA/Drivers/USB/Core/AVR8/../AVR8/Endpoint_AVR8.h ****   all copies and that both that the copyright notice and this
  16:lib/lufa/LUFA/Drivers/USB/Core/AVR8/../AVR8/Endpoint_AVR8.h ****   permission notice and warranty disclaimer appear in supporting
  17:lib/lufa/LUFA/Drivers/USB/Core/AVR8/../AVR8/Endpoint_AVR8.h ****   documentation, and that the name of the author not be used in
  18:lib/lufa/LUFA/Drivers/USB/Core/AVR8/../AVR8/Endpoint_AVR8.h ****   advertising or publicity pertaining to distribution of the
  19:lib/lufa/LUFA/Drivers/USB/Core/AVR8/../AVR8/Endpoint_AVR8.h ****   software without specific, written prior permission.
  20:lib/lufa/LUFA/Drivers/USB/Core/AVR8/../AVR8/Endpoint_AVR8.h **** 
  21:lib/lufa/LUFA/Drivers/USB/Core/AVR8/../AVR8/Endpoint_AVR8.h ****   The author disclaims all warranties with regard to this
  22:lib/lufa/LUFA/Drivers/USB/Core/AVR8/../AVR8/Endpoint_AVR8.h ****   software, including all implied warranties of merchantability
  23:lib/lufa/LUFA/Drivers/USB/Core/AVR8/../AVR8/Endpoint_AVR8.h ****   and fitness.  In no event shall the author be liable for any
  24:lib/lufa/LUFA/Drivers/USB/Core/AVR8/../AVR8/Endpoint_AVR8.h ****   special, indirect or consequential damages or any damages
  25:lib/lufa/LUFA/Drivers/USB/Core/AVR8/../AVR8/Endpoint_AVR8.h ****   whatsoever resulting from loss of use, data or profits, whether
  26:lib/lufa/LUFA/Drivers/USB/Core/AVR8/../AVR8/Endpoint_AVR8.h ****   in an action of contract, negligence or other tortious action,
  27:lib/lufa/LUFA/Drivers/USB/Core/AVR8/../AVR8/Endpoint_AVR8.h ****   arising out of or in connection with the use or performance of
  28:lib/lufa/LUFA/Drivers/USB/Core/AVR8/../AVR8/Endpoint_AVR8.h ****   this software.
  29:lib/lufa/LUFA/Drivers/USB/Core/AVR8/../AVR8/Endpoint_AVR8.h **** */
  30:lib/lufa/LUFA/Drivers/USB/Core/AVR8/../AVR8/Endpoint_AVR8.h **** 
  31:lib/lufa/LUFA/Drivers/USB/Core/AVR8/../AVR8/Endpoint_AVR8.h **** /** \file
  32:lib/lufa/LUFA/Drivers/USB/Core/AVR8/../AVR8/Endpoint_AVR8.h ****  *  \brief USB Endpoint definitions for the AVR8 microcontrollers.
  33:lib/lufa/LUFA/Drivers/USB/Core/AVR8/../AVR8/Endpoint_AVR8.h ****  *  \copydetails Group_EndpointManagement_AVR8
  34:lib/lufa/LUFA/Drivers/USB/Core/AVR8/../AVR8/Endpoint_AVR8.h ****  *
  35:lib/lufa/LUFA/Drivers/USB/Core/AVR8/../AVR8/Endpoint_AVR8.h ****  *  \note This file should not be included directly. It is automatically included as needed by the 
  36:lib/lufa/LUFA/Drivers/USB/Core/AVR8/../AVR8/Endpoint_AVR8.h ****  *        dispatch header located in LUFA/Drivers/USB/USB.h.
  37:lib/lufa/LUFA/Drivers/USB/Core/AVR8/../AVR8/Endpoint_AVR8.h ****  */
  38:lib/lufa/LUFA/Drivers/USB/Core/AVR8/../AVR8/Endpoint_AVR8.h **** 
  39:lib/lufa/LUFA/Drivers/USB/Core/AVR8/../AVR8/Endpoint_AVR8.h **** /** \ingroup Group_EndpointRW
  40:lib/lufa/LUFA/Drivers/USB/Core/AVR8/../AVR8/Endpoint_AVR8.h ****  *  \defgroup Group_EndpointRW_AVR8 Endpoint Data Reading and Writing (AVR8)
  41:lib/lufa/LUFA/Drivers/USB/Core/AVR8/../AVR8/Endpoint_AVR8.h ****  *  \brief Endpoint data read/write definitions for the Atmel AVR8 architecture.
  42:lib/lufa/LUFA/Drivers/USB/Core/AVR8/../AVR8/Endpoint_AVR8.h ****  *
  43:lib/lufa/LUFA/Drivers/USB/Core/AVR8/../AVR8/Endpoint_AVR8.h ****  *  Functions, macros, variables, enums and types related to data reading and writing from and to e
  44:lib/lufa/LUFA/Drivers/USB/Core/AVR8/../AVR8/Endpoint_AVR8.h ****  */
  45:lib/lufa/LUFA/Drivers/USB/Core/AVR8/../AVR8/Endpoint_AVR8.h **** 
  46:lib/lufa/LUFA/Drivers/USB/Core/AVR8/../AVR8/Endpoint_AVR8.h **** /** \ingroup Group_EndpointPrimitiveRW
  47:lib/lufa/LUFA/Drivers/USB/Core/AVR8/../AVR8/Endpoint_AVR8.h ****  *  \defgroup Group_EndpointPrimitiveRW_AVR8 Read/Write of Primitive Data Types (AVR8)
  48:lib/lufa/LUFA/Drivers/USB/Core/AVR8/../AVR8/Endpoint_AVR8.h ****  *  \brief Endpoint primitive read/write definitions for the Atmel AVR8 architecture.
  49:lib/lufa/LUFA/Drivers/USB/Core/AVR8/../AVR8/Endpoint_AVR8.h ****  *
  50:lib/lufa/LUFA/Drivers/USB/Core/AVR8/../AVR8/Endpoint_AVR8.h ****  *  Functions, macros, variables, enums and types related to data reading and writing of primitive 
  51:lib/lufa/LUFA/Drivers/USB/Core/AVR8/../AVR8/Endpoint_AVR8.h ****  *  from and to endpoints.
  52:lib/lufa/LUFA/Drivers/USB/Core/AVR8/../AVR8/Endpoint_AVR8.h ****  */
  53:lib/lufa/LUFA/Drivers/USB/Core/AVR8/../AVR8/Endpoint_AVR8.h **** 
  54:lib/lufa/LUFA/Drivers/USB/Core/AVR8/../AVR8/Endpoint_AVR8.h **** /** \ingroup Group_EndpointPacketManagement
  55:lib/lufa/LUFA/Drivers/USB/Core/AVR8/../AVR8/Endpoint_AVR8.h ****  *  \defgroup Group_EndpointPacketManagement_AVR8 Endpoint Packet Management (AVR8)
  56:lib/lufa/LUFA/Drivers/USB/Core/AVR8/../AVR8/Endpoint_AVR8.h ****  *  \brief Endpoint packet management definitions for the Atmel AVR8 architecture.
  57:lib/lufa/LUFA/Drivers/USB/Core/AVR8/../AVR8/Endpoint_AVR8.h ****  *
  58:lib/lufa/LUFA/Drivers/USB/Core/AVR8/../AVR8/Endpoint_AVR8.h ****  *  Functions, macros, variables, enums and types related to packet management of endpoints.
  59:lib/lufa/LUFA/Drivers/USB/Core/AVR8/../AVR8/Endpoint_AVR8.h ****  */
  60:lib/lufa/LUFA/Drivers/USB/Core/AVR8/../AVR8/Endpoint_AVR8.h **** 
  61:lib/lufa/LUFA/Drivers/USB/Core/AVR8/../AVR8/Endpoint_AVR8.h **** /** \ingroup Group_EndpointManagement
  62:lib/lufa/LUFA/Drivers/USB/Core/AVR8/../AVR8/Endpoint_AVR8.h ****  *  \defgroup Group_EndpointManagement_AVR8 Endpoint Management (AVR8)
  63:lib/lufa/LUFA/Drivers/USB/Core/AVR8/../AVR8/Endpoint_AVR8.h ****  *  \brief Endpoint management definitions for the Atmel AVR8 architecture.
  64:lib/lufa/LUFA/Drivers/USB/Core/AVR8/../AVR8/Endpoint_AVR8.h ****  *
  65:lib/lufa/LUFA/Drivers/USB/Core/AVR8/../AVR8/Endpoint_AVR8.h ****  *  Functions, macros and enums related to endpoint management when in USB Device mode. This
  66:lib/lufa/LUFA/Drivers/USB/Core/AVR8/../AVR8/Endpoint_AVR8.h ****  *  module contains the endpoint management macros, as well as endpoint interrupt and data
  67:lib/lufa/LUFA/Drivers/USB/Core/AVR8/../AVR8/Endpoint_AVR8.h ****  *  send/receive functions for various data types.
  68:lib/lufa/LUFA/Drivers/USB/Core/AVR8/../AVR8/Endpoint_AVR8.h ****  *
  69:lib/lufa/LUFA/Drivers/USB/Core/AVR8/../AVR8/Endpoint_AVR8.h ****  *  @{
  70:lib/lufa/LUFA/Drivers/USB/Core/AVR8/../AVR8/Endpoint_AVR8.h ****  */
  71:lib/lufa/LUFA/Drivers/USB/Core/AVR8/../AVR8/Endpoint_AVR8.h **** 
  72:lib/lufa/LUFA/Drivers/USB/Core/AVR8/../AVR8/Endpoint_AVR8.h **** #ifndef __ENDPOINT_AVR8_H__
  73:lib/lufa/LUFA/Drivers/USB/Core/AVR8/../AVR8/Endpoint_AVR8.h **** #define __ENDPOINT_AVR8_H__
  74:lib/lufa/LUFA/Drivers/USB/Core/AVR8/../AVR8/Endpoint_AVR8.h **** 
  75:lib/lufa/LUFA/Drivers/USB/Core/AVR8/../AVR8/Endpoint_AVR8.h **** 	/* Includes: */
  76:lib/lufa/LUFA/Drivers/USB/Core/AVR8/../AVR8/Endpoint_AVR8.h **** 		#include "../../../../Common/Common.h"
  77:lib/lufa/LUFA/Drivers/USB/Core/AVR8/../AVR8/Endpoint_AVR8.h **** 		#include "../USBTask.h"
  78:lib/lufa/LUFA/Drivers/USB/Core/AVR8/../AVR8/Endpoint_AVR8.h **** 		#include "../USBInterrupt.h"
  79:lib/lufa/LUFA/Drivers/USB/Core/AVR8/../AVR8/Endpoint_AVR8.h **** 
  80:lib/lufa/LUFA/Drivers/USB/Core/AVR8/../AVR8/Endpoint_AVR8.h **** 	/* Enable C linkage for C++ Compilers: */
  81:lib/lufa/LUFA/Drivers/USB/Core/AVR8/../AVR8/Endpoint_AVR8.h **** 		#if defined(__cplusplus)
  82:lib/lufa/LUFA/Drivers/USB/Core/AVR8/../AVR8/Endpoint_AVR8.h **** 			extern "C" {
  83:lib/lufa/LUFA/Drivers/USB/Core/AVR8/../AVR8/Endpoint_AVR8.h **** 		#endif
  84:lib/lufa/LUFA/Drivers/USB/Core/AVR8/../AVR8/Endpoint_AVR8.h **** 
  85:lib/lufa/LUFA/Drivers/USB/Core/AVR8/../AVR8/Endpoint_AVR8.h **** 	/* Preprocessor Checks: */
  86:lib/lufa/LUFA/Drivers/USB/Core/AVR8/../AVR8/Endpoint_AVR8.h **** 		#if !defined(__INCLUDE_FROM_USB_DRIVER)
  87:lib/lufa/LUFA/Drivers/USB/Core/AVR8/../AVR8/Endpoint_AVR8.h **** 			#error Do not include this file directly. Include LUFA/Drivers/USB/USB.h instead.
  88:lib/lufa/LUFA/Drivers/USB/Core/AVR8/../AVR8/Endpoint_AVR8.h **** 		#endif
  89:lib/lufa/LUFA/Drivers/USB/Core/AVR8/../AVR8/Endpoint_AVR8.h **** 
  90:lib/lufa/LUFA/Drivers/USB/Core/AVR8/../AVR8/Endpoint_AVR8.h **** 	/* Private Interface - For use in library only: */
  91:lib/lufa/LUFA/Drivers/USB/Core/AVR8/../AVR8/Endpoint_AVR8.h **** 	#if !defined(__DOXYGEN__)
  92:lib/lufa/LUFA/Drivers/USB/Core/AVR8/../AVR8/Endpoint_AVR8.h **** 		/* Inline Functions: */
  93:lib/lufa/LUFA/Drivers/USB/Core/AVR8/../AVR8/Endpoint_AVR8.h **** 			static inline uint8_t Endpoint_BytesToEPSizeMask(const uint16_t Bytes) ATTR_WARN_UNUSED_RESULT A
  94:lib/lufa/LUFA/Drivers/USB/Core/AVR8/../AVR8/Endpoint_AVR8.h **** 			                                                                       ATTR_ALWAYS_INLINE;
  95:lib/lufa/LUFA/Drivers/USB/Core/AVR8/../AVR8/Endpoint_AVR8.h **** 			static inline uint8_t Endpoint_BytesToEPSizeMask(const uint16_t Bytes)
  96:lib/lufa/LUFA/Drivers/USB/Core/AVR8/../AVR8/Endpoint_AVR8.h **** 			{
  97:lib/lufa/LUFA/Drivers/USB/Core/AVR8/../AVR8/Endpoint_AVR8.h **** 				uint8_t  MaskVal    = 0;
  98:lib/lufa/LUFA/Drivers/USB/Core/AVR8/../AVR8/Endpoint_AVR8.h **** 				uint16_t CheckBytes = 8;
  99:lib/lufa/LUFA/Drivers/USB/Core/AVR8/../AVR8/Endpoint_AVR8.h **** 
 100:lib/lufa/LUFA/Drivers/USB/Core/AVR8/../AVR8/Endpoint_AVR8.h **** 				while (CheckBytes < Bytes)
 101:lib/lufa/LUFA/Drivers/USB/Core/AVR8/../AVR8/Endpoint_AVR8.h **** 				{
 102:lib/lufa/LUFA/Drivers/USB/Core/AVR8/../AVR8/Endpoint_AVR8.h **** 					MaskVal++;
 103:lib/lufa/LUFA/Drivers/USB/Core/AVR8/../AVR8/Endpoint_AVR8.h **** 					CheckBytes <<= 1;
 104:lib/lufa/LUFA/Drivers/USB/Core/AVR8/../AVR8/Endpoint_AVR8.h **** 				}
 105:lib/lufa/LUFA/Drivers/USB/Core/AVR8/../AVR8/Endpoint_AVR8.h **** 
 106:lib/lufa/LUFA/Drivers/USB/Core/AVR8/../AVR8/Endpoint_AVR8.h **** 				return (MaskVal << EPSIZE0);
 107:lib/lufa/LUFA/Drivers/USB/Core/AVR8/../AVR8/Endpoint_AVR8.h **** 			}
 108:lib/lufa/LUFA/Drivers/USB/Core/AVR8/../AVR8/Endpoint_AVR8.h **** 
 109:lib/lufa/LUFA/Drivers/USB/Core/AVR8/../AVR8/Endpoint_AVR8.h **** 		/* Function Prototypes: */
 110:lib/lufa/LUFA/Drivers/USB/Core/AVR8/../AVR8/Endpoint_AVR8.h **** 			void Endpoint_ClearEndpoints(void);
 111:lib/lufa/LUFA/Drivers/USB/Core/AVR8/../AVR8/Endpoint_AVR8.h **** 			bool Endpoint_ConfigureEndpoint_Prv(const uint8_t Number,
 112:lib/lufa/LUFA/Drivers/USB/Core/AVR8/../AVR8/Endpoint_AVR8.h **** 			                                    const uint8_t UECFG0XData,
 113:lib/lufa/LUFA/Drivers/USB/Core/AVR8/../AVR8/Endpoint_AVR8.h **** 			                                    const uint8_t UECFG1XData);
 114:lib/lufa/LUFA/Drivers/USB/Core/AVR8/../AVR8/Endpoint_AVR8.h **** 
 115:lib/lufa/LUFA/Drivers/USB/Core/AVR8/../AVR8/Endpoint_AVR8.h **** 	#endif
 116:lib/lufa/LUFA/Drivers/USB/Core/AVR8/../AVR8/Endpoint_AVR8.h **** 
 117:lib/lufa/LUFA/Drivers/USB/Core/AVR8/../AVR8/Endpoint_AVR8.h **** 	/* Public Interface - May be used in end-application: */
 118:lib/lufa/LUFA/Drivers/USB/Core/AVR8/../AVR8/Endpoint_AVR8.h **** 		/* Macros: */
 119:lib/lufa/LUFA/Drivers/USB/Core/AVR8/../AVR8/Endpoint_AVR8.h **** 			#if (!defined(FIXED_CONTROL_ENDPOINT_SIZE) || defined(__DOXYGEN__))
 120:lib/lufa/LUFA/Drivers/USB/Core/AVR8/../AVR8/Endpoint_AVR8.h **** 				/** Default size of the default control endpoint's bank, until altered by the control endpoint 
 121:lib/lufa/LUFA/Drivers/USB/Core/AVR8/../AVR8/Endpoint_AVR8.h **** 				 *  value in the device descriptor. Not available if the \c FIXED_CONTROL_ENDPOINT_SIZE token i
 122:lib/lufa/LUFA/Drivers/USB/Core/AVR8/../AVR8/Endpoint_AVR8.h **** 				 */
 123:lib/lufa/LUFA/Drivers/USB/Core/AVR8/../AVR8/Endpoint_AVR8.h **** 				#define ENDPOINT_CONTROLEP_DEFAULT_SIZE     8
 124:lib/lufa/LUFA/Drivers/USB/Core/AVR8/../AVR8/Endpoint_AVR8.h **** 			#endif
 125:lib/lufa/LUFA/Drivers/USB/Core/AVR8/../AVR8/Endpoint_AVR8.h **** 
 126:lib/lufa/LUFA/Drivers/USB/Core/AVR8/../AVR8/Endpoint_AVR8.h **** 			#if !defined(CONTROL_ONLY_DEVICE) || defined(__DOXYGEN__)
 127:lib/lufa/LUFA/Drivers/USB/Core/AVR8/../AVR8/Endpoint_AVR8.h **** 				#if defined(USB_SERIES_4_AVR) || defined(USB_SERIES_6_AVR) || defined(USB_SERIES_7_AVR) || defi
 128:lib/lufa/LUFA/Drivers/USB/Core/AVR8/../AVR8/Endpoint_AVR8.h **** 					/** Total number of endpoints (including the default control endpoint at address 0) which may
 129:lib/lufa/LUFA/Drivers/USB/Core/AVR8/../AVR8/Endpoint_AVR8.h **** 					 *  be used in the device. Different USB AVR models support different amounts of endpoints,
 130:lib/lufa/LUFA/Drivers/USB/Core/AVR8/../AVR8/Endpoint_AVR8.h **** 					 *  this value reflects the maximum number of endpoints for the currently selected AVR model.
 131:lib/lufa/LUFA/Drivers/USB/Core/AVR8/../AVR8/Endpoint_AVR8.h **** 					 */
 132:lib/lufa/LUFA/Drivers/USB/Core/AVR8/../AVR8/Endpoint_AVR8.h **** 					#define ENDPOINT_TOTAL_ENDPOINTS        7
 133:lib/lufa/LUFA/Drivers/USB/Core/AVR8/../AVR8/Endpoint_AVR8.h **** 				#else
 134:lib/lufa/LUFA/Drivers/USB/Core/AVR8/../AVR8/Endpoint_AVR8.h **** 					#define ENDPOINT_TOTAL_ENDPOINTS        5
 135:lib/lufa/LUFA/Drivers/USB/Core/AVR8/../AVR8/Endpoint_AVR8.h **** 				#endif
 136:lib/lufa/LUFA/Drivers/USB/Core/AVR8/../AVR8/Endpoint_AVR8.h **** 			#else
 137:lib/lufa/LUFA/Drivers/USB/Core/AVR8/../AVR8/Endpoint_AVR8.h **** 				#define ENDPOINT_TOTAL_ENDPOINTS            1
 138:lib/lufa/LUFA/Drivers/USB/Core/AVR8/../AVR8/Endpoint_AVR8.h **** 			#endif
 139:lib/lufa/LUFA/Drivers/USB/Core/AVR8/../AVR8/Endpoint_AVR8.h **** 
 140:lib/lufa/LUFA/Drivers/USB/Core/AVR8/../AVR8/Endpoint_AVR8.h **** 		/* Enums: */
 141:lib/lufa/LUFA/Drivers/USB/Core/AVR8/../AVR8/Endpoint_AVR8.h **** 			/** Enum for the possible error return codes of the \ref Endpoint_WaitUntilReady() function.
 142:lib/lufa/LUFA/Drivers/USB/Core/AVR8/../AVR8/Endpoint_AVR8.h **** 			 *
 143:lib/lufa/LUFA/Drivers/USB/Core/AVR8/../AVR8/Endpoint_AVR8.h **** 			 *  \ingroup Group_EndpointRW_AVR8
 144:lib/lufa/LUFA/Drivers/USB/Core/AVR8/../AVR8/Endpoint_AVR8.h **** 			 */
 145:lib/lufa/LUFA/Drivers/USB/Core/AVR8/../AVR8/Endpoint_AVR8.h **** 			enum Endpoint_WaitUntilReady_ErrorCodes_t
 146:lib/lufa/LUFA/Drivers/USB/Core/AVR8/../AVR8/Endpoint_AVR8.h **** 			{
 147:lib/lufa/LUFA/Drivers/USB/Core/AVR8/../AVR8/Endpoint_AVR8.h **** 				ENDPOINT_READYWAIT_NoError                 = 0, /**< Endpoint is ready for next packet, no erro
 148:lib/lufa/LUFA/Drivers/USB/Core/AVR8/../AVR8/Endpoint_AVR8.h **** 				ENDPOINT_READYWAIT_EndpointStalled         = 1, /**< The endpoint was stalled during the stream
 149:lib/lufa/LUFA/Drivers/USB/Core/AVR8/../AVR8/Endpoint_AVR8.h **** 				                                                 *   transfer by the host or device.
 150:lib/lufa/LUFA/Drivers/USB/Core/AVR8/../AVR8/Endpoint_AVR8.h **** 				                                                 */
 151:lib/lufa/LUFA/Drivers/USB/Core/AVR8/../AVR8/Endpoint_AVR8.h **** 				ENDPOINT_READYWAIT_DeviceDisconnected      = 2,	/**< Device was disconnected from the host whil
 152:lib/lufa/LUFA/Drivers/USB/Core/AVR8/../AVR8/Endpoint_AVR8.h **** 				                                                 *   waiting for the endpoint to become ready.
 153:lib/lufa/LUFA/Drivers/USB/Core/AVR8/../AVR8/Endpoint_AVR8.h **** 				                                                 */
 154:lib/lufa/LUFA/Drivers/USB/Core/AVR8/../AVR8/Endpoint_AVR8.h **** 				ENDPOINT_READYWAIT_BusSuspended            = 3, /**< The USB bus has been suspended by the host
 155:lib/lufa/LUFA/Drivers/USB/Core/AVR8/../AVR8/Endpoint_AVR8.h **** 				                                                 *   no USB endpoint traffic can occur until th
 156:lib/lufa/LUFA/Drivers/USB/Core/AVR8/../AVR8/Endpoint_AVR8.h **** 				                                                 *   has resumed.
 157:lib/lufa/LUFA/Drivers/USB/Core/AVR8/../AVR8/Endpoint_AVR8.h **** 				                                                 */
 158:lib/lufa/LUFA/Drivers/USB/Core/AVR8/../AVR8/Endpoint_AVR8.h **** 				ENDPOINT_READYWAIT_Timeout                 = 4, /**< The host failed to accept or send the next
 159:lib/lufa/LUFA/Drivers/USB/Core/AVR8/../AVR8/Endpoint_AVR8.h **** 				                                                 *   within the software timeout period set by 
 160:lib/lufa/LUFA/Drivers/USB/Core/AVR8/../AVR8/Endpoint_AVR8.h **** 				                                                 *   \ref USB_STREAM_TIMEOUT_MS macro.
 161:lib/lufa/LUFA/Drivers/USB/Core/AVR8/../AVR8/Endpoint_AVR8.h **** 				                                                 */
 162:lib/lufa/LUFA/Drivers/USB/Core/AVR8/../AVR8/Endpoint_AVR8.h **** 			};
 163:lib/lufa/LUFA/Drivers/USB/Core/AVR8/../AVR8/Endpoint_AVR8.h **** 
 164:lib/lufa/LUFA/Drivers/USB/Core/AVR8/../AVR8/Endpoint_AVR8.h **** 		/* Inline Functions: */
 165:lib/lufa/LUFA/Drivers/USB/Core/AVR8/../AVR8/Endpoint_AVR8.h **** 			/** Configures the specified endpoint address with the given endpoint type, bank size and number
 166:lib/lufa/LUFA/Drivers/USB/Core/AVR8/../AVR8/Endpoint_AVR8.h **** 			 *  banks. Once configured, the endpoint may be read from or written to, depending on its direct
 167:lib/lufa/LUFA/Drivers/USB/Core/AVR8/../AVR8/Endpoint_AVR8.h **** 			 *
 168:lib/lufa/LUFA/Drivers/USB/Core/AVR8/../AVR8/Endpoint_AVR8.h **** 			 *  \param[in] Address    Endpoint address to configure.
 169:lib/lufa/LUFA/Drivers/USB/Core/AVR8/../AVR8/Endpoint_AVR8.h **** 			 *
 170:lib/lufa/LUFA/Drivers/USB/Core/AVR8/../AVR8/Endpoint_AVR8.h **** 			 *  \param[in] Type       Type of endpoint to configure, a \c EP_TYPE_* mask. Not all endpoint t
 171:lib/lufa/LUFA/Drivers/USB/Core/AVR8/../AVR8/Endpoint_AVR8.h **** 			 *                        are available on Low Speed USB devices - refer to the USB 2.0 specific
 172:lib/lufa/LUFA/Drivers/USB/Core/AVR8/../AVR8/Endpoint_AVR8.h **** 			 *
 173:lib/lufa/LUFA/Drivers/USB/Core/AVR8/../AVR8/Endpoint_AVR8.h **** 			 *  \param[in] Size       Size of the endpoint's bank, where packets are stored before they are 
 174:lib/lufa/LUFA/Drivers/USB/Core/AVR8/../AVR8/Endpoint_AVR8.h **** 			 *                        to the USB host, or after they have been received from the USB host (d
 175:lib/lufa/LUFA/Drivers/USB/Core/AVR8/../AVR8/Endpoint_AVR8.h **** 			 *                        the endpoint's data direction). The bank size must indicate the maximu
 176:lib/lufa/LUFA/Drivers/USB/Core/AVR8/../AVR8/Endpoint_AVR8.h **** 			 *                        that the endpoint can handle.
 177:lib/lufa/LUFA/Drivers/USB/Core/AVR8/../AVR8/Endpoint_AVR8.h **** 			 *
 178:lib/lufa/LUFA/Drivers/USB/Core/AVR8/../AVR8/Endpoint_AVR8.h **** 			 *  \param[in] Banks      Number of banks to use for the endpoint being configured.
 179:lib/lufa/LUFA/Drivers/USB/Core/AVR8/../AVR8/Endpoint_AVR8.h **** 			 *
 180:lib/lufa/LUFA/Drivers/USB/Core/AVR8/../AVR8/Endpoint_AVR8.h **** 			 *  \attention When the \c ORDERED_EP_CONFIG compile time option is used, Endpoints <b>must</b> 
 181:lib/lufa/LUFA/Drivers/USB/Core/AVR8/../AVR8/Endpoint_AVR8.h **** 			 *             ascending order, or bank corruption will occur.
 182:lib/lufa/LUFA/Drivers/USB/Core/AVR8/../AVR8/Endpoint_AVR8.h **** 			 *
 183:lib/lufa/LUFA/Drivers/USB/Core/AVR8/../AVR8/Endpoint_AVR8.h **** 			 *  \note Different endpoints may have different maximum packet sizes based on the endpoint's in
 184:lib/lufa/LUFA/Drivers/USB/Core/AVR8/../AVR8/Endpoint_AVR8.h **** 			 *        refer to the chosen microcontroller model's datasheet to determine the maximum bank si
 185:lib/lufa/LUFA/Drivers/USB/Core/AVR8/../AVR8/Endpoint_AVR8.h **** 			 *        \n\n
 186:lib/lufa/LUFA/Drivers/USB/Core/AVR8/../AVR8/Endpoint_AVR8.h **** 			 *
 187:lib/lufa/LUFA/Drivers/USB/Core/AVR8/../AVR8/Endpoint_AVR8.h **** 			 *  \note The default control endpoint should not be manually configured by the user application
 188:lib/lufa/LUFA/Drivers/USB/Core/AVR8/../AVR8/Endpoint_AVR8.h **** 			 *        it is automatically configured by the library internally.
 189:lib/lufa/LUFA/Drivers/USB/Core/AVR8/../AVR8/Endpoint_AVR8.h **** 			 *        \n\n
 190:lib/lufa/LUFA/Drivers/USB/Core/AVR8/../AVR8/Endpoint_AVR8.h **** 			 *
 191:lib/lufa/LUFA/Drivers/USB/Core/AVR8/../AVR8/Endpoint_AVR8.h **** 			 *  \note This routine will automatically select the specified endpoint upon success. Upon failu
 192:lib/lufa/LUFA/Drivers/USB/Core/AVR8/../AVR8/Endpoint_AVR8.h **** 			 *        which failed to reconfigure correctly will be selected.
 193:lib/lufa/LUFA/Drivers/USB/Core/AVR8/../AVR8/Endpoint_AVR8.h **** 			 *
 194:lib/lufa/LUFA/Drivers/USB/Core/AVR8/../AVR8/Endpoint_AVR8.h **** 			 *  \return Boolean \c true if the configuration succeeded, \c false otherwise.
 195:lib/lufa/LUFA/Drivers/USB/Core/AVR8/../AVR8/Endpoint_AVR8.h **** 			 */
 196:lib/lufa/LUFA/Drivers/USB/Core/AVR8/../AVR8/Endpoint_AVR8.h **** 			static inline bool Endpoint_ConfigureEndpoint(const uint8_t Address,
 197:lib/lufa/LUFA/Drivers/USB/Core/AVR8/../AVR8/Endpoint_AVR8.h **** 			                                              const uint8_t Type,
 198:lib/lufa/LUFA/Drivers/USB/Core/AVR8/../AVR8/Endpoint_AVR8.h **** 			                                              const uint16_t Size,
 199:lib/lufa/LUFA/Drivers/USB/Core/AVR8/../AVR8/Endpoint_AVR8.h **** 			                                              const uint8_t Banks) ATTR_ALWAYS_INLINE;
 200:lib/lufa/LUFA/Drivers/USB/Core/AVR8/../AVR8/Endpoint_AVR8.h **** 			static inline bool Endpoint_ConfigureEndpoint(const uint8_t Address,
 201:lib/lufa/LUFA/Drivers/USB/Core/AVR8/../AVR8/Endpoint_AVR8.h **** 			                                              const uint8_t Type,
 202:lib/lufa/LUFA/Drivers/USB/Core/AVR8/../AVR8/Endpoint_AVR8.h **** 			                                              const uint16_t Size,
 203:lib/lufa/LUFA/Drivers/USB/Core/AVR8/../AVR8/Endpoint_AVR8.h **** 			                                              const uint8_t Banks)
 204:lib/lufa/LUFA/Drivers/USB/Core/AVR8/../AVR8/Endpoint_AVR8.h **** 			{
 205:lib/lufa/LUFA/Drivers/USB/Core/AVR8/../AVR8/Endpoint_AVR8.h **** 				uint8_t Number = (Address & ENDPOINT_EPNUM_MASK);
 206:lib/lufa/LUFA/Drivers/USB/Core/AVR8/../AVR8/Endpoint_AVR8.h **** 
 207:lib/lufa/LUFA/Drivers/USB/Core/AVR8/../AVR8/Endpoint_AVR8.h **** 				if (Number >= ENDPOINT_TOTAL_ENDPOINTS)
 208:lib/lufa/LUFA/Drivers/USB/Core/AVR8/../AVR8/Endpoint_AVR8.h **** 				  return false;
 209:lib/lufa/LUFA/Drivers/USB/Core/AVR8/../AVR8/Endpoint_AVR8.h **** 
 210:lib/lufa/LUFA/Drivers/USB/Core/AVR8/../AVR8/Endpoint_AVR8.h **** 				return Endpoint_ConfigureEndpoint_Prv(Number,
 211:lib/lufa/LUFA/Drivers/USB/Core/AVR8/../AVR8/Endpoint_AVR8.h **** 				                                      ((Type << EPTYPE0) | ((Address & ENDPOINT_DIR_IN) ? (1 <<
 212:lib/lufa/LUFA/Drivers/USB/Core/AVR8/../AVR8/Endpoint_AVR8.h **** 				                                      ((1 << ALLOC) | ((Banks > 1) ? (1 << EPBK0) : 0) | Endpoi
 213:lib/lufa/LUFA/Drivers/USB/Core/AVR8/../AVR8/Endpoint_AVR8.h **** 			}
 214:lib/lufa/LUFA/Drivers/USB/Core/AVR8/../AVR8/Endpoint_AVR8.h **** 
 215:lib/lufa/LUFA/Drivers/USB/Core/AVR8/../AVR8/Endpoint_AVR8.h **** 			/** Indicates the number of bytes currently stored in the current endpoint's selected bank.
 216:lib/lufa/LUFA/Drivers/USB/Core/AVR8/../AVR8/Endpoint_AVR8.h **** 			 *
 217:lib/lufa/LUFA/Drivers/USB/Core/AVR8/../AVR8/Endpoint_AVR8.h **** 			 *  \ingroup Group_EndpointRW_AVR8
 218:lib/lufa/LUFA/Drivers/USB/Core/AVR8/../AVR8/Endpoint_AVR8.h **** 			 *
 219:lib/lufa/LUFA/Drivers/USB/Core/AVR8/../AVR8/Endpoint_AVR8.h **** 			 *  \return Total number of bytes in the currently selected Endpoint's FIFO buffer.
 220:lib/lufa/LUFA/Drivers/USB/Core/AVR8/../AVR8/Endpoint_AVR8.h **** 			 */
 221:lib/lufa/LUFA/Drivers/USB/Core/AVR8/../AVR8/Endpoint_AVR8.h **** 			static inline uint16_t Endpoint_BytesInEndpoint(void) ATTR_WARN_UNUSED_RESULT ATTR_ALWAYS_INLINE
 222:lib/lufa/LUFA/Drivers/USB/Core/AVR8/../AVR8/Endpoint_AVR8.h **** 			static inline uint16_t Endpoint_BytesInEndpoint(void)
 223:lib/lufa/LUFA/Drivers/USB/Core/AVR8/../AVR8/Endpoint_AVR8.h **** 			{
 224:lib/lufa/LUFA/Drivers/USB/Core/AVR8/../AVR8/Endpoint_AVR8.h **** 				#if (defined(USB_SERIES_6_AVR) || defined(USB_SERIES_7_AVR))
 225:lib/lufa/LUFA/Drivers/USB/Core/AVR8/../AVR8/Endpoint_AVR8.h **** 					return UEBCX;
 226:lib/lufa/LUFA/Drivers/USB/Core/AVR8/../AVR8/Endpoint_AVR8.h **** 				#elif defined(USB_SERIES_4_AVR)
 227:lib/lufa/LUFA/Drivers/USB/Core/AVR8/../AVR8/Endpoint_AVR8.h **** 					return (((uint16_t)UEBCHX << 8) | UEBCLX);
 228:lib/lufa/LUFA/Drivers/USB/Core/AVR8/../AVR8/Endpoint_AVR8.h **** 				#elif defined(USB_SERIES_2_AVR)
 229:lib/lufa/LUFA/Drivers/USB/Core/AVR8/../AVR8/Endpoint_AVR8.h **** 					return UEBCLX;
 230:lib/lufa/LUFA/Drivers/USB/Core/AVR8/../AVR8/Endpoint_AVR8.h **** 				#endif
 231:lib/lufa/LUFA/Drivers/USB/Core/AVR8/../AVR8/Endpoint_AVR8.h **** 			}
 232:lib/lufa/LUFA/Drivers/USB/Core/AVR8/../AVR8/Endpoint_AVR8.h **** 
 233:lib/lufa/LUFA/Drivers/USB/Core/AVR8/../AVR8/Endpoint_AVR8.h **** 			/** Determines the currently selected endpoint's direction.
 234:lib/lufa/LUFA/Drivers/USB/Core/AVR8/../AVR8/Endpoint_AVR8.h **** 			 *
 235:lib/lufa/LUFA/Drivers/USB/Core/AVR8/../AVR8/Endpoint_AVR8.h **** 			 *  \return The currently selected endpoint's direction, as a \c ENDPOINT_DIR_* mask.
 236:lib/lufa/LUFA/Drivers/USB/Core/AVR8/../AVR8/Endpoint_AVR8.h **** 			 */
 237:lib/lufa/LUFA/Drivers/USB/Core/AVR8/../AVR8/Endpoint_AVR8.h **** 			static inline uint8_t Endpoint_GetEndpointDirection(void) ATTR_WARN_UNUSED_RESULT ATTR_ALWAYS_IN
 238:lib/lufa/LUFA/Drivers/USB/Core/AVR8/../AVR8/Endpoint_AVR8.h **** 			static inline uint8_t Endpoint_GetEndpointDirection(void)
 239:lib/lufa/LUFA/Drivers/USB/Core/AVR8/../AVR8/Endpoint_AVR8.h **** 			{
 240:lib/lufa/LUFA/Drivers/USB/Core/AVR8/../AVR8/Endpoint_AVR8.h **** 				return (UECFG0X & (1 << EPDIR)) ? ENDPOINT_DIR_IN : ENDPOINT_DIR_OUT;
 241:lib/lufa/LUFA/Drivers/USB/Core/AVR8/../AVR8/Endpoint_AVR8.h **** 			}
 242:lib/lufa/LUFA/Drivers/USB/Core/AVR8/../AVR8/Endpoint_AVR8.h **** 
 243:lib/lufa/LUFA/Drivers/USB/Core/AVR8/../AVR8/Endpoint_AVR8.h **** 			/** Get the endpoint address of the currently selected endpoint. This is typically used to save
 244:lib/lufa/LUFA/Drivers/USB/Core/AVR8/../AVR8/Endpoint_AVR8.h **** 			 *  the currently selected endpoint so that it can be restored after another endpoint has been
 245:lib/lufa/LUFA/Drivers/USB/Core/AVR8/../AVR8/Endpoint_AVR8.h **** 			 *  manipulated.
 246:lib/lufa/LUFA/Drivers/USB/Core/AVR8/../AVR8/Endpoint_AVR8.h **** 			 *
 247:lib/lufa/LUFA/Drivers/USB/Core/AVR8/../AVR8/Endpoint_AVR8.h **** 			 *  \return Index of the currently selected endpoint.
 248:lib/lufa/LUFA/Drivers/USB/Core/AVR8/../AVR8/Endpoint_AVR8.h **** 			 */
 249:lib/lufa/LUFA/Drivers/USB/Core/AVR8/../AVR8/Endpoint_AVR8.h **** 			static inline uint8_t Endpoint_GetCurrentEndpoint(void) ATTR_WARN_UNUSED_RESULT ATTR_ALWAYS_INLI
 250:lib/lufa/LUFA/Drivers/USB/Core/AVR8/../AVR8/Endpoint_AVR8.h **** 			static inline uint8_t Endpoint_GetCurrentEndpoint(void)
 251:lib/lufa/LUFA/Drivers/USB/Core/AVR8/../AVR8/Endpoint_AVR8.h **** 			{
 252:lib/lufa/LUFA/Drivers/USB/Core/AVR8/../AVR8/Endpoint_AVR8.h **** 				#if !defined(CONTROL_ONLY_DEVICE)
 253:lib/lufa/LUFA/Drivers/USB/Core/AVR8/../AVR8/Endpoint_AVR8.h **** 					return ((UENUM & ENDPOINT_EPNUM_MASK) | Endpoint_GetEndpointDirection());
 254:lib/lufa/LUFA/Drivers/USB/Core/AVR8/../AVR8/Endpoint_AVR8.h **** 				#else
 255:lib/lufa/LUFA/Drivers/USB/Core/AVR8/../AVR8/Endpoint_AVR8.h **** 					return ENDPOINT_CONTROLEP;
 256:lib/lufa/LUFA/Drivers/USB/Core/AVR8/../AVR8/Endpoint_AVR8.h **** 				#endif
 257:lib/lufa/LUFA/Drivers/USB/Core/AVR8/../AVR8/Endpoint_AVR8.h **** 			}
 258:lib/lufa/LUFA/Drivers/USB/Core/AVR8/../AVR8/Endpoint_AVR8.h **** 
 259:lib/lufa/LUFA/Drivers/USB/Core/AVR8/../AVR8/Endpoint_AVR8.h **** 			/** Selects the given endpoint address.
 260:lib/lufa/LUFA/Drivers/USB/Core/AVR8/../AVR8/Endpoint_AVR8.h **** 			 *
 261:lib/lufa/LUFA/Drivers/USB/Core/AVR8/../AVR8/Endpoint_AVR8.h **** 			 *  Any endpoint operations which do not require the endpoint address to be indicated will opera
 262:lib/lufa/LUFA/Drivers/USB/Core/AVR8/../AVR8/Endpoint_AVR8.h **** 			 *  the currently selected endpoint.
 263:lib/lufa/LUFA/Drivers/USB/Core/AVR8/../AVR8/Endpoint_AVR8.h **** 			 *
 264:lib/lufa/LUFA/Drivers/USB/Core/AVR8/../AVR8/Endpoint_AVR8.h **** 			 *  \param[in] Address Endpoint address to select.
 265:lib/lufa/LUFA/Drivers/USB/Core/AVR8/../AVR8/Endpoint_AVR8.h **** 			 */
 266:lib/lufa/LUFA/Drivers/USB/Core/AVR8/../AVR8/Endpoint_AVR8.h **** 			static inline void Endpoint_SelectEndpoint(const uint8_t Address) ATTR_ALWAYS_INLINE;
 267:lib/lufa/LUFA/Drivers/USB/Core/AVR8/../AVR8/Endpoint_AVR8.h **** 			static inline void Endpoint_SelectEndpoint(const uint8_t Address)
  92               		.loc 2 267 23 view .LVU14
  93               	.LBB87:
 268:lib/lufa/LUFA/Drivers/USB/Core/AVR8/../AVR8/Endpoint_AVR8.h **** 			{
 269:lib/lufa/LUFA/Drivers/USB/Core/AVR8/../AVR8/Endpoint_AVR8.h **** 				#if !defined(CONTROL_ONLY_DEVICE)
 270:lib/lufa/LUFA/Drivers/USB/Core/AVR8/../AVR8/Endpoint_AVR8.h **** 					UENUM = (Address & ENDPOINT_EPNUM_MASK);
  94               		.loc 2 270 6 view .LVU15
  95               		.loc 2 270 12 is_stmt 0 view .LVU16
  96 001a 82E0      		ldi r24,lo8(2)
  97               	.LVL4:
  98               		.loc 2 270 12 view .LVU17
  99 001c 8093 E900 		sts 233,r24
 100               	.LVL5:
 101               		.loc 2 270 12 view .LVU18
 102               	.LBE87:
 103               	.LBE86:
 781:tmk_core/protocol/lufa/lufa.c **** 
 782:tmk_core/protocol/lufa/lufa.c ****     /* Check if write ready for a polling interval around 10ms */
 783:tmk_core/protocol/lufa/lufa.c ****     while (timeout-- && !Endpoint_IsReadWriteAllowed()) _delay_us(40);
 104               		.loc 1 783 11 is_stmt 1 view .LVU19
 105               	.LBB89:
 106               	.LBB88:
 107               		.loc 2 270 12 is_stmt 0 view .LVU20
 108 0020 8FEF      		ldi r24,lo8(-1)
 109               	.LVL6:
 110               	.L5:
 111               		.loc 2 270 12 view .LVU21
 112               	.LBE88:
 113               	.LBE89:
 114               	.LBB90:
 115               	.LBI90:
 271:lib/lufa/LUFA/Drivers/USB/Core/AVR8/../AVR8/Endpoint_AVR8.h **** 				#endif
 272:lib/lufa/LUFA/Drivers/USB/Core/AVR8/../AVR8/Endpoint_AVR8.h **** 			}
 273:lib/lufa/LUFA/Drivers/USB/Core/AVR8/../AVR8/Endpoint_AVR8.h **** 
 274:lib/lufa/LUFA/Drivers/USB/Core/AVR8/../AVR8/Endpoint_AVR8.h **** 			/** Resets the endpoint bank FIFO. This clears all the endpoint banks and resets the USB control
 275:lib/lufa/LUFA/Drivers/USB/Core/AVR8/../AVR8/Endpoint_AVR8.h **** 			 *  data In and Out pointers to the bank's contents.
 276:lib/lufa/LUFA/Drivers/USB/Core/AVR8/../AVR8/Endpoint_AVR8.h **** 			 *
 277:lib/lufa/LUFA/Drivers/USB/Core/AVR8/../AVR8/Endpoint_AVR8.h **** 			 *  \param[in] Address  Endpoint address whose FIFO buffers are to be reset.
 278:lib/lufa/LUFA/Drivers/USB/Core/AVR8/../AVR8/Endpoint_AVR8.h **** 			 */
 279:lib/lufa/LUFA/Drivers/USB/Core/AVR8/../AVR8/Endpoint_AVR8.h **** 			static inline void Endpoint_ResetEndpoint(const uint8_t Address) ATTR_ALWAYS_INLINE;
 280:lib/lufa/LUFA/Drivers/USB/Core/AVR8/../AVR8/Endpoint_AVR8.h **** 			static inline void Endpoint_ResetEndpoint(const uint8_t Address)
 281:lib/lufa/LUFA/Drivers/USB/Core/AVR8/../AVR8/Endpoint_AVR8.h **** 			{
 282:lib/lufa/LUFA/Drivers/USB/Core/AVR8/../AVR8/Endpoint_AVR8.h **** 				UERST = (1 << (Address & ENDPOINT_EPNUM_MASK));
 283:lib/lufa/LUFA/Drivers/USB/Core/AVR8/../AVR8/Endpoint_AVR8.h **** 				UERST = 0;
 284:lib/lufa/LUFA/Drivers/USB/Core/AVR8/../AVR8/Endpoint_AVR8.h **** 			}
 285:lib/lufa/LUFA/Drivers/USB/Core/AVR8/../AVR8/Endpoint_AVR8.h **** 
 286:lib/lufa/LUFA/Drivers/USB/Core/AVR8/../AVR8/Endpoint_AVR8.h **** 			/** Enables the currently selected endpoint so that data can be sent and received through it to
 287:lib/lufa/LUFA/Drivers/USB/Core/AVR8/../AVR8/Endpoint_AVR8.h **** 			 *  and from a host.
 288:lib/lufa/LUFA/Drivers/USB/Core/AVR8/../AVR8/Endpoint_AVR8.h **** 			 *
 289:lib/lufa/LUFA/Drivers/USB/Core/AVR8/../AVR8/Endpoint_AVR8.h **** 			 *  \note Endpoints must first be configured properly via \ref Endpoint_ConfigureEndpoint().
 290:lib/lufa/LUFA/Drivers/USB/Core/AVR8/../AVR8/Endpoint_AVR8.h **** 			 */
 291:lib/lufa/LUFA/Drivers/USB/Core/AVR8/../AVR8/Endpoint_AVR8.h **** 			static inline void Endpoint_EnableEndpoint(void) ATTR_ALWAYS_INLINE;
 292:lib/lufa/LUFA/Drivers/USB/Core/AVR8/../AVR8/Endpoint_AVR8.h **** 			static inline void Endpoint_EnableEndpoint(void)
 293:lib/lufa/LUFA/Drivers/USB/Core/AVR8/../AVR8/Endpoint_AVR8.h **** 			{
 294:lib/lufa/LUFA/Drivers/USB/Core/AVR8/../AVR8/Endpoint_AVR8.h **** 				UECONX |= (1 << EPEN);
 295:lib/lufa/LUFA/Drivers/USB/Core/AVR8/../AVR8/Endpoint_AVR8.h **** 			}
 296:lib/lufa/LUFA/Drivers/USB/Core/AVR8/../AVR8/Endpoint_AVR8.h **** 
 297:lib/lufa/LUFA/Drivers/USB/Core/AVR8/../AVR8/Endpoint_AVR8.h **** 			/** Disables the currently selected endpoint so that data cannot be sent and received through it
 298:lib/lufa/LUFA/Drivers/USB/Core/AVR8/../AVR8/Endpoint_AVR8.h **** 			 *  to and from a host.
 299:lib/lufa/LUFA/Drivers/USB/Core/AVR8/../AVR8/Endpoint_AVR8.h **** 			 */
 300:lib/lufa/LUFA/Drivers/USB/Core/AVR8/../AVR8/Endpoint_AVR8.h **** 			static inline void Endpoint_DisableEndpoint(void) ATTR_ALWAYS_INLINE;
 301:lib/lufa/LUFA/Drivers/USB/Core/AVR8/../AVR8/Endpoint_AVR8.h **** 			static inline void Endpoint_DisableEndpoint(void)
 302:lib/lufa/LUFA/Drivers/USB/Core/AVR8/../AVR8/Endpoint_AVR8.h **** 			{
 303:lib/lufa/LUFA/Drivers/USB/Core/AVR8/../AVR8/Endpoint_AVR8.h **** 				UECONX &= ~(1 << EPEN);
 304:lib/lufa/LUFA/Drivers/USB/Core/AVR8/../AVR8/Endpoint_AVR8.h **** 			}
 305:lib/lufa/LUFA/Drivers/USB/Core/AVR8/../AVR8/Endpoint_AVR8.h **** 
 306:lib/lufa/LUFA/Drivers/USB/Core/AVR8/../AVR8/Endpoint_AVR8.h **** 			/** Determines if the currently selected endpoint is enabled, but not necessarily configured.
 307:lib/lufa/LUFA/Drivers/USB/Core/AVR8/../AVR8/Endpoint_AVR8.h **** 			 *
 308:lib/lufa/LUFA/Drivers/USB/Core/AVR8/../AVR8/Endpoint_AVR8.h **** 			 * \return Boolean \c true if the currently selected endpoint is enabled, \c false otherwise.
 309:lib/lufa/LUFA/Drivers/USB/Core/AVR8/../AVR8/Endpoint_AVR8.h **** 			 */
 310:lib/lufa/LUFA/Drivers/USB/Core/AVR8/../AVR8/Endpoint_AVR8.h **** 			static inline bool Endpoint_IsEnabled(void) ATTR_WARN_UNUSED_RESULT ATTR_ALWAYS_INLINE;
 311:lib/lufa/LUFA/Drivers/USB/Core/AVR8/../AVR8/Endpoint_AVR8.h **** 			static inline bool Endpoint_IsEnabled(void)
 312:lib/lufa/LUFA/Drivers/USB/Core/AVR8/../AVR8/Endpoint_AVR8.h **** 			{
 313:lib/lufa/LUFA/Drivers/USB/Core/AVR8/../AVR8/Endpoint_AVR8.h **** 				return ((UECONX & (1 << EPEN)) ? true : false);
 314:lib/lufa/LUFA/Drivers/USB/Core/AVR8/../AVR8/Endpoint_AVR8.h **** 			}
 315:lib/lufa/LUFA/Drivers/USB/Core/AVR8/../AVR8/Endpoint_AVR8.h **** 
 316:lib/lufa/LUFA/Drivers/USB/Core/AVR8/../AVR8/Endpoint_AVR8.h **** 			/** Retrieves the number of busy banks in the currently selected endpoint, which have been queue
 317:lib/lufa/LUFA/Drivers/USB/Core/AVR8/../AVR8/Endpoint_AVR8.h **** 			 *  transmission via the \ref Endpoint_ClearIN() command, or are awaiting acknowledgment via the
 318:lib/lufa/LUFA/Drivers/USB/Core/AVR8/../AVR8/Endpoint_AVR8.h **** 			 *  \ref Endpoint_ClearOUT() command.
 319:lib/lufa/LUFA/Drivers/USB/Core/AVR8/../AVR8/Endpoint_AVR8.h **** 			 *
 320:lib/lufa/LUFA/Drivers/USB/Core/AVR8/../AVR8/Endpoint_AVR8.h **** 			 *  \ingroup Group_EndpointPacketManagement_AVR8
 321:lib/lufa/LUFA/Drivers/USB/Core/AVR8/../AVR8/Endpoint_AVR8.h **** 			 *
 322:lib/lufa/LUFA/Drivers/USB/Core/AVR8/../AVR8/Endpoint_AVR8.h **** 			 *  \return Total number of busy banks in the selected endpoint.
 323:lib/lufa/LUFA/Drivers/USB/Core/AVR8/../AVR8/Endpoint_AVR8.h **** 			 */
 324:lib/lufa/LUFA/Drivers/USB/Core/AVR8/../AVR8/Endpoint_AVR8.h **** 			static inline uint8_t Endpoint_GetBusyBanks(void) ATTR_ALWAYS_INLINE ATTR_WARN_UNUSED_RESULT;
 325:lib/lufa/LUFA/Drivers/USB/Core/AVR8/../AVR8/Endpoint_AVR8.h **** 			static inline uint8_t Endpoint_GetBusyBanks(void)
 326:lib/lufa/LUFA/Drivers/USB/Core/AVR8/../AVR8/Endpoint_AVR8.h **** 			{
 327:lib/lufa/LUFA/Drivers/USB/Core/AVR8/../AVR8/Endpoint_AVR8.h **** 				return (UESTA0X & (0x03 << NBUSYBK0));
 328:lib/lufa/LUFA/Drivers/USB/Core/AVR8/../AVR8/Endpoint_AVR8.h **** 			}
 329:lib/lufa/LUFA/Drivers/USB/Core/AVR8/../AVR8/Endpoint_AVR8.h **** 
 330:lib/lufa/LUFA/Drivers/USB/Core/AVR8/../AVR8/Endpoint_AVR8.h **** 			/** Aborts all pending IN transactions on the currently selected endpoint, once the bank
 331:lib/lufa/LUFA/Drivers/USB/Core/AVR8/../AVR8/Endpoint_AVR8.h **** 			 *  has been queued for transmission to the host via \ref Endpoint_ClearIN(). This function
 332:lib/lufa/LUFA/Drivers/USB/Core/AVR8/../AVR8/Endpoint_AVR8.h **** 			 *  will terminate all queued transactions, resetting the endpoint banks ready for a new
 333:lib/lufa/LUFA/Drivers/USB/Core/AVR8/../AVR8/Endpoint_AVR8.h **** 			 *  packet.
 334:lib/lufa/LUFA/Drivers/USB/Core/AVR8/../AVR8/Endpoint_AVR8.h **** 			 *
 335:lib/lufa/LUFA/Drivers/USB/Core/AVR8/../AVR8/Endpoint_AVR8.h **** 			 *  \ingroup Group_EndpointPacketManagement_AVR8
 336:lib/lufa/LUFA/Drivers/USB/Core/AVR8/../AVR8/Endpoint_AVR8.h **** 			 */
 337:lib/lufa/LUFA/Drivers/USB/Core/AVR8/../AVR8/Endpoint_AVR8.h **** 			static inline void Endpoint_AbortPendingIN(void)
 338:lib/lufa/LUFA/Drivers/USB/Core/AVR8/../AVR8/Endpoint_AVR8.h **** 			{
 339:lib/lufa/LUFA/Drivers/USB/Core/AVR8/../AVR8/Endpoint_AVR8.h **** 				while (Endpoint_GetBusyBanks() != 0)
 340:lib/lufa/LUFA/Drivers/USB/Core/AVR8/../AVR8/Endpoint_AVR8.h **** 				{
 341:lib/lufa/LUFA/Drivers/USB/Core/AVR8/../AVR8/Endpoint_AVR8.h **** 					UEINTX |= (1 << RXOUTI);
 342:lib/lufa/LUFA/Drivers/USB/Core/AVR8/../AVR8/Endpoint_AVR8.h **** 					while (UEINTX & (1 << RXOUTI));
 343:lib/lufa/LUFA/Drivers/USB/Core/AVR8/../AVR8/Endpoint_AVR8.h **** 				}
 344:lib/lufa/LUFA/Drivers/USB/Core/AVR8/../AVR8/Endpoint_AVR8.h **** 			}
 345:lib/lufa/LUFA/Drivers/USB/Core/AVR8/../AVR8/Endpoint_AVR8.h **** 
 346:lib/lufa/LUFA/Drivers/USB/Core/AVR8/../AVR8/Endpoint_AVR8.h **** 			/** Determines if the currently selected endpoint may be read from (if data is waiting in the en
 347:lib/lufa/LUFA/Drivers/USB/Core/AVR8/../AVR8/Endpoint_AVR8.h **** 			 *  bank and the endpoint is an OUT direction, or if the bank is not yet full if the endpoint is
 348:lib/lufa/LUFA/Drivers/USB/Core/AVR8/../AVR8/Endpoint_AVR8.h **** 			 *  direction). This function will return false if an error has occurred in the endpoint, if the
 349:lib/lufa/LUFA/Drivers/USB/Core/AVR8/../AVR8/Endpoint_AVR8.h **** 			 *  is an OUT direction and no packet (or an empty packet) has been received, or if the endpoint
 350:lib/lufa/LUFA/Drivers/USB/Core/AVR8/../AVR8/Endpoint_AVR8.h **** 			 *  direction and the endpoint bank is full.
 351:lib/lufa/LUFA/Drivers/USB/Core/AVR8/../AVR8/Endpoint_AVR8.h **** 			 *
 352:lib/lufa/LUFA/Drivers/USB/Core/AVR8/../AVR8/Endpoint_AVR8.h **** 			 *  \ingroup Group_EndpointPacketManagement_AVR8
 353:lib/lufa/LUFA/Drivers/USB/Core/AVR8/../AVR8/Endpoint_AVR8.h **** 			 *
 354:lib/lufa/LUFA/Drivers/USB/Core/AVR8/../AVR8/Endpoint_AVR8.h **** 			 *  \return Boolean \c true if the currently selected endpoint may be read from or written to, d
 355:lib/lufa/LUFA/Drivers/USB/Core/AVR8/../AVR8/Endpoint_AVR8.h **** 			 *          on its direction.
 356:lib/lufa/LUFA/Drivers/USB/Core/AVR8/../AVR8/Endpoint_AVR8.h **** 			 */
 357:lib/lufa/LUFA/Drivers/USB/Core/AVR8/../AVR8/Endpoint_AVR8.h **** 			static inline bool Endpoint_IsReadWriteAllowed(void) ATTR_WARN_UNUSED_RESULT ATTR_ALWAYS_INLINE;
 358:lib/lufa/LUFA/Drivers/USB/Core/AVR8/../AVR8/Endpoint_AVR8.h **** 			static inline bool Endpoint_IsReadWriteAllowed(void)
 116               		.loc 2 358 23 is_stmt 1 view .LVU22
 117               	.LBB91:
 359:lib/lufa/LUFA/Drivers/USB/Core/AVR8/../AVR8/Endpoint_AVR8.h **** 			{
 360:lib/lufa/LUFA/Drivers/USB/Core/AVR8/../AVR8/Endpoint_AVR8.h **** 				return ((UEINTX & (1 << RWAL)) ? true : false);
 118               		.loc 2 360 5 view .LVU23
 119               		.loc 2 360 14 is_stmt 0 view .LVU24
 120 0022 9091 E800 		lds r25,232
 121 0026 8150      		subi r24,lo8(-(-1))
 122               	.LVL7:
 123               		.loc 2 360 14 view .LVU25
 124               	.LBE91:
 125               	.LBE90:
 126               		.loc 1 783 22 view .LVU26
 127 0028 95FD      		sbrc r25,5
 128 002a 00C0      		rjmp .L6
 129               		.loc 1 783 57 is_stmt 1 view .LVU27
 130               	.LVL8:
 131               	.LBB92:
 132               	.LBI92:
 133               		.file 3 "c:\\program files\\qmk_msys\\mingw64\\avr\\include\\util\\delay.h"
   1:c:\program files\qmk_msys\mingw64\avr\include\util\delay.h **** /* Copyright (c) 2002, Marek Michalkiewicz
   2:c:\program files\qmk_msys\mingw64\avr\include\util\delay.h ****    Copyright (c) 2004,2005,2007 Joerg Wunsch
   3:c:\program files\qmk_msys\mingw64\avr\include\util\delay.h ****    Copyright (c) 2007  Florin-Viorel Petrov
   4:c:\program files\qmk_msys\mingw64\avr\include\util\delay.h ****    All rights reserved.
   5:c:\program files\qmk_msys\mingw64\avr\include\util\delay.h **** 
   6:c:\program files\qmk_msys\mingw64\avr\include\util\delay.h ****    Redistribution and use in source and binary forms, with or without
   7:c:\program files\qmk_msys\mingw64\avr\include\util\delay.h ****    modification, are permitted provided that the following conditions are met:
   8:c:\program files\qmk_msys\mingw64\avr\include\util\delay.h **** 
   9:c:\program files\qmk_msys\mingw64\avr\include\util\delay.h ****    * Redistributions of source code must retain the above copyright
  10:c:\program files\qmk_msys\mingw64\avr\include\util\delay.h ****      notice, this list of conditions and the following disclaimer.
  11:c:\program files\qmk_msys\mingw64\avr\include\util\delay.h **** 
  12:c:\program files\qmk_msys\mingw64\avr\include\util\delay.h ****    * Redistributions in binary form must reproduce the above copyright
  13:c:\program files\qmk_msys\mingw64\avr\include\util\delay.h ****      notice, this list of conditions and the following disclaimer in
  14:c:\program files\qmk_msys\mingw64\avr\include\util\delay.h ****      the documentation and/or other materials provided with the
  15:c:\program files\qmk_msys\mingw64\avr\include\util\delay.h ****      distribution.
  16:c:\program files\qmk_msys\mingw64\avr\include\util\delay.h **** 
  17:c:\program files\qmk_msys\mingw64\avr\include\util\delay.h ****    * Neither the name of the copyright holders nor the names of
  18:c:\program files\qmk_msys\mingw64\avr\include\util\delay.h ****      contributors may be used to endorse or promote products derived
  19:c:\program files\qmk_msys\mingw64\avr\include\util\delay.h ****      from this software without specific prior written permission.
  20:c:\program files\qmk_msys\mingw64\avr\include\util\delay.h **** 
  21:c:\program files\qmk_msys\mingw64\avr\include\util\delay.h ****   THIS SOFTWARE IS PROVIDED BY THE COPYRIGHT HOLDERS AND CONTRIBUTORS "AS IS"
  22:c:\program files\qmk_msys\mingw64\avr\include\util\delay.h ****   AND ANY EXPRESS OR IMPLIED WARRANTIES, INCLUDING, BUT NOT LIMITED TO, THE
  23:c:\program files\qmk_msys\mingw64\avr\include\util\delay.h ****   IMPLIED WARRANTIES OF MERCHANTABILITY AND FITNESS FOR A PARTICULAR PURPOSE
  24:c:\program files\qmk_msys\mingw64\avr\include\util\delay.h ****   ARE DISCLAIMED. IN NO EVENT SHALL THE COPYRIGHT OWNER OR CONTRIBUTORS BE
  25:c:\program files\qmk_msys\mingw64\avr\include\util\delay.h ****   LIABLE FOR ANY DIRECT, INDIRECT, INCIDENTAL, SPECIAL, EXEMPLARY, OR
  26:c:\program files\qmk_msys\mingw64\avr\include\util\delay.h ****   CONSEQUENTIAL DAMAGES (INCLUDING, BUT NOT LIMITED TO, PROCUREMENT OF
  27:c:\program files\qmk_msys\mingw64\avr\include\util\delay.h ****   SUBSTITUTE GOODS OR SERVICES; LOSS OF USE, DATA, OR PROFITS; OR BUSINESS
  28:c:\program files\qmk_msys\mingw64\avr\include\util\delay.h ****   INTERRUPTION) HOWEVER CAUSED AND ON ANY THEORY OF LIABILITY, WHETHER IN
  29:c:\program files\qmk_msys\mingw64\avr\include\util\delay.h ****   CONTRACT, STRICT LIABILITY, OR TORT (INCLUDING NEGLIGENCE OR OTHERWISE)
  30:c:\program files\qmk_msys\mingw64\avr\include\util\delay.h ****   ARISING IN ANY WAY OUT OF THE USE OF THIS SOFTWARE, EVEN IF ADVISED OF THE
  31:c:\program files\qmk_msys\mingw64\avr\include\util\delay.h ****   POSSIBILITY OF SUCH DAMAGE. */
  32:c:\program files\qmk_msys\mingw64\avr\include\util\delay.h **** 
  33:c:\program files\qmk_msys\mingw64\avr\include\util\delay.h **** /* $Id: delay.h.in 2506 2016-02-08 10:05:45Z joerg_wunsch $ */
  34:c:\program files\qmk_msys\mingw64\avr\include\util\delay.h **** 
  35:c:\program files\qmk_msys\mingw64\avr\include\util\delay.h **** #ifndef _UTIL_DELAY_H_
  36:c:\program files\qmk_msys\mingw64\avr\include\util\delay.h **** #define _UTIL_DELAY_H_ 1
  37:c:\program files\qmk_msys\mingw64\avr\include\util\delay.h **** 
  38:c:\program files\qmk_msys\mingw64\avr\include\util\delay.h **** #ifndef __DOXYGEN__
  39:c:\program files\qmk_msys\mingw64\avr\include\util\delay.h **** #  ifndef __HAS_DELAY_CYCLES
  40:c:\program files\qmk_msys\mingw64\avr\include\util\delay.h **** #    define __HAS_DELAY_CYCLES 1
  41:c:\program files\qmk_msys\mingw64\avr\include\util\delay.h **** #  endif
  42:c:\program files\qmk_msys\mingw64\avr\include\util\delay.h **** #endif  /* __DOXYGEN__ */
  43:c:\program files\qmk_msys\mingw64\avr\include\util\delay.h **** 
  44:c:\program files\qmk_msys\mingw64\avr\include\util\delay.h **** #include <inttypes.h>
  45:c:\program files\qmk_msys\mingw64\avr\include\util\delay.h **** #include <util/delay_basic.h>
  46:c:\program files\qmk_msys\mingw64\avr\include\util\delay.h **** #include <math.h>
  47:c:\program files\qmk_msys\mingw64\avr\include\util\delay.h **** 
  48:c:\program files\qmk_msys\mingw64\avr\include\util\delay.h **** /** \file */
  49:c:\program files\qmk_msys\mingw64\avr\include\util\delay.h **** /** \defgroup util_delay <util/delay.h>: Convenience functions for busy-wait delay loops
  50:c:\program files\qmk_msys\mingw64\avr\include\util\delay.h ****     \code
  51:c:\program files\qmk_msys\mingw64\avr\include\util\delay.h ****     #define F_CPU 1000000UL  // 1 MHz
  52:c:\program files\qmk_msys\mingw64\avr\include\util\delay.h ****     //#define F_CPU 14.7456E6
  53:c:\program files\qmk_msys\mingw64\avr\include\util\delay.h ****     #include <util/delay.h>
  54:c:\program files\qmk_msys\mingw64\avr\include\util\delay.h ****     \endcode
  55:c:\program files\qmk_msys\mingw64\avr\include\util\delay.h **** 
  56:c:\program files\qmk_msys\mingw64\avr\include\util\delay.h ****     \note As an alternative method, it is possible to pass the
  57:c:\program files\qmk_msys\mingw64\avr\include\util\delay.h ****     F_CPU macro down to the compiler from the Makefile.
  58:c:\program files\qmk_msys\mingw64\avr\include\util\delay.h ****     Obviously, in that case, no \c \#define statement should be
  59:c:\program files\qmk_msys\mingw64\avr\include\util\delay.h ****     used.
  60:c:\program files\qmk_msys\mingw64\avr\include\util\delay.h **** 
  61:c:\program files\qmk_msys\mingw64\avr\include\util\delay.h ****     The functions in this header file are wrappers around the basic
  62:c:\program files\qmk_msys\mingw64\avr\include\util\delay.h ****     busy-wait functions from <util/delay_basic.h>.  They are meant as
  63:c:\program files\qmk_msys\mingw64\avr\include\util\delay.h ****     convenience functions where actual time values can be specified
  64:c:\program files\qmk_msys\mingw64\avr\include\util\delay.h ****     rather than a number of cycles to wait for.  The idea behind is
  65:c:\program files\qmk_msys\mingw64\avr\include\util\delay.h ****     that compile-time constant expressions will be eliminated by
  66:c:\program files\qmk_msys\mingw64\avr\include\util\delay.h ****     compiler optimization so floating-point expressions can be used
  67:c:\program files\qmk_msys\mingw64\avr\include\util\delay.h ****     to calculate the number of delay cycles needed based on the CPU
  68:c:\program files\qmk_msys\mingw64\avr\include\util\delay.h ****     frequency passed by the macro F_CPU.
  69:c:\program files\qmk_msys\mingw64\avr\include\util\delay.h **** 
  70:c:\program files\qmk_msys\mingw64\avr\include\util\delay.h ****     \note In order for these functions to work as intended, compiler
  71:c:\program files\qmk_msys\mingw64\avr\include\util\delay.h ****     optimizations <em>must</em> be enabled, and the delay time
  72:c:\program files\qmk_msys\mingw64\avr\include\util\delay.h ****     <em>must</em> be an expression that is a known constant at
  73:c:\program files\qmk_msys\mingw64\avr\include\util\delay.h ****     compile-time.  If these requirements are not met, the resulting
  74:c:\program files\qmk_msys\mingw64\avr\include\util\delay.h ****     delay will be much longer (and basically unpredictable), and
  75:c:\program files\qmk_msys\mingw64\avr\include\util\delay.h ****     applications that otherwise do not use floating-point calculations
  76:c:\program files\qmk_msys\mingw64\avr\include\util\delay.h ****     will experience severe code bloat by the floating-point library
  77:c:\program files\qmk_msys\mingw64\avr\include\util\delay.h ****     routines linked into the application.
  78:c:\program files\qmk_msys\mingw64\avr\include\util\delay.h **** 
  79:c:\program files\qmk_msys\mingw64\avr\include\util\delay.h ****     The functions available allow the specification of microsecond, and
  80:c:\program files\qmk_msys\mingw64\avr\include\util\delay.h ****     millisecond delays directly, using the application-supplied macro
  81:c:\program files\qmk_msys\mingw64\avr\include\util\delay.h ****     F_CPU as the CPU clock frequency (in Hertz).
  82:c:\program files\qmk_msys\mingw64\avr\include\util\delay.h **** 
  83:c:\program files\qmk_msys\mingw64\avr\include\util\delay.h **** */
  84:c:\program files\qmk_msys\mingw64\avr\include\util\delay.h **** 
  85:c:\program files\qmk_msys\mingw64\avr\include\util\delay.h **** #if !defined(__DOXYGEN__)
  86:c:\program files\qmk_msys\mingw64\avr\include\util\delay.h **** static __inline__ void _delay_us(double __us) __attribute__((__always_inline__));
  87:c:\program files\qmk_msys\mingw64\avr\include\util\delay.h **** static __inline__ void _delay_ms(double __ms) __attribute__((__always_inline__));
  88:c:\program files\qmk_msys\mingw64\avr\include\util\delay.h **** #endif
  89:c:\program files\qmk_msys\mingw64\avr\include\util\delay.h **** 
  90:c:\program files\qmk_msys\mingw64\avr\include\util\delay.h **** #ifndef F_CPU
  91:c:\program files\qmk_msys\mingw64\avr\include\util\delay.h **** /* prevent compiler error by supplying a default */
  92:c:\program files\qmk_msys\mingw64\avr\include\util\delay.h **** # warning "F_CPU not defined for <util/delay.h>"
  93:c:\program files\qmk_msys\mingw64\avr\include\util\delay.h **** /** \ingroup util_delay
  94:c:\program files\qmk_msys\mingw64\avr\include\util\delay.h ****     \def F_CPU
  95:c:\program files\qmk_msys\mingw64\avr\include\util\delay.h ****     \brief CPU frequency in Hz
  96:c:\program files\qmk_msys\mingw64\avr\include\util\delay.h **** 
  97:c:\program files\qmk_msys\mingw64\avr\include\util\delay.h ****     The macro F_CPU specifies the CPU frequency to be considered by
  98:c:\program files\qmk_msys\mingw64\avr\include\util\delay.h ****     the delay macros.  This macro is normally supplied by the
  99:c:\program files\qmk_msys\mingw64\avr\include\util\delay.h ****     environment (e.g. from within a project header, or the project's
 100:c:\program files\qmk_msys\mingw64\avr\include\util\delay.h ****     Makefile).  The value 1 MHz here is only provided as a "vanilla"
 101:c:\program files\qmk_msys\mingw64\avr\include\util\delay.h ****     fallback if no such user-provided definition could be found.
 102:c:\program files\qmk_msys\mingw64\avr\include\util\delay.h **** 
 103:c:\program files\qmk_msys\mingw64\avr\include\util\delay.h ****     In terms of the delay functions, the CPU frequency can be given as
 104:c:\program files\qmk_msys\mingw64\avr\include\util\delay.h ****     a floating-point constant (e.g. 3.6864E6 for 3.6864 MHz).
 105:c:\program files\qmk_msys\mingw64\avr\include\util\delay.h ****     However, the macros in <util/setbaud.h> require it to be an
 106:c:\program files\qmk_msys\mingw64\avr\include\util\delay.h ****     integer value.
 107:c:\program files\qmk_msys\mingw64\avr\include\util\delay.h ****  */
 108:c:\program files\qmk_msys\mingw64\avr\include\util\delay.h **** # define F_CPU 1000000UL
 109:c:\program files\qmk_msys\mingw64\avr\include\util\delay.h **** #endif
 110:c:\program files\qmk_msys\mingw64\avr\include\util\delay.h **** 
 111:c:\program files\qmk_msys\mingw64\avr\include\util\delay.h **** #ifndef __OPTIMIZE__
 112:c:\program files\qmk_msys\mingw64\avr\include\util\delay.h **** # warning "Compiler optimizations disabled; functions from <util/delay.h> won't work as designed"
 113:c:\program files\qmk_msys\mingw64\avr\include\util\delay.h **** #endif
 114:c:\program files\qmk_msys\mingw64\avr\include\util\delay.h **** 
 115:c:\program files\qmk_msys\mingw64\avr\include\util\delay.h **** #if __HAS_DELAY_CYCLES && defined(__OPTIMIZE__) && \
 116:c:\program files\qmk_msys\mingw64\avr\include\util\delay.h ****   !defined(__DELAY_BACKWARD_COMPATIBLE__) &&	   \
 117:c:\program files\qmk_msys\mingw64\avr\include\util\delay.h ****   __STDC_HOSTED__
 118:c:\program files\qmk_msys\mingw64\avr\include\util\delay.h **** #  include <math.h>
 119:c:\program files\qmk_msys\mingw64\avr\include\util\delay.h **** #endif
 120:c:\program files\qmk_msys\mingw64\avr\include\util\delay.h **** 
 121:c:\program files\qmk_msys\mingw64\avr\include\util\delay.h **** /**
 122:c:\program files\qmk_msys\mingw64\avr\include\util\delay.h ****    \ingroup util_delay
 123:c:\program files\qmk_msys\mingw64\avr\include\util\delay.h **** 
 124:c:\program files\qmk_msys\mingw64\avr\include\util\delay.h ****    Perform a delay of \c __ms milliseconds, using _delay_loop_2().
 125:c:\program files\qmk_msys\mingw64\avr\include\util\delay.h **** 
 126:c:\program files\qmk_msys\mingw64\avr\include\util\delay.h ****    The macro F_CPU is supposed to be defined to a
 127:c:\program files\qmk_msys\mingw64\avr\include\util\delay.h ****    constant defining the CPU clock frequency (in Hertz).
 128:c:\program files\qmk_msys\mingw64\avr\include\util\delay.h **** 
 129:c:\program files\qmk_msys\mingw64\avr\include\util\delay.h ****    The maximal possible delay is 262.14 ms / F_CPU in MHz.
 130:c:\program files\qmk_msys\mingw64\avr\include\util\delay.h **** 
 131:c:\program files\qmk_msys\mingw64\avr\include\util\delay.h ****    When the user request delay which exceed the maximum possible one,
 132:c:\program files\qmk_msys\mingw64\avr\include\util\delay.h ****    _delay_ms() provides a decreased resolution functionality. In this
 133:c:\program files\qmk_msys\mingw64\avr\include\util\delay.h ****    mode _delay_ms() will work with a resolution of 1/10 ms, providing
 134:c:\program files\qmk_msys\mingw64\avr\include\util\delay.h ****    delays up to 6.5535 seconds (independent from CPU frequency).  The
 135:c:\program files\qmk_msys\mingw64\avr\include\util\delay.h ****    user will not be informed about decreased resolution.
 136:c:\program files\qmk_msys\mingw64\avr\include\util\delay.h **** 
 137:c:\program files\qmk_msys\mingw64\avr\include\util\delay.h ****    If the avr-gcc toolchain has __builtin_avr_delay_cycles()
 138:c:\program files\qmk_msys\mingw64\avr\include\util\delay.h ****    support, maximal possible delay is 4294967.295 ms/ F_CPU in MHz. For
 139:c:\program files\qmk_msys\mingw64\avr\include\util\delay.h ****    values greater than the maximal possible delay, overflows results in
 140:c:\program files\qmk_msys\mingw64\avr\include\util\delay.h ****    no delay i.e., 0ms.
 141:c:\program files\qmk_msys\mingw64\avr\include\util\delay.h **** 
 142:c:\program files\qmk_msys\mingw64\avr\include\util\delay.h ****    Conversion of \c __ms into clock cycles may not always result in
 143:c:\program files\qmk_msys\mingw64\avr\include\util\delay.h ****    integer.  By default, the clock cycles rounded up to next
 144:c:\program files\qmk_msys\mingw64\avr\include\util\delay.h ****    integer. This ensures that the user gets at least \c __ms
 145:c:\program files\qmk_msys\mingw64\avr\include\util\delay.h ****    microseconds of delay.
 146:c:\program files\qmk_msys\mingw64\avr\include\util\delay.h **** 
 147:c:\program files\qmk_msys\mingw64\avr\include\util\delay.h ****    Alternatively, by defining the macro \c __DELAY_ROUND_DOWN__, or
 148:c:\program files\qmk_msys\mingw64\avr\include\util\delay.h ****    \c __DELAY_ROUND_CLOSEST__, before including this header file, the
 149:c:\program files\qmk_msys\mingw64\avr\include\util\delay.h ****    algorithm can be made to round down, or round to closest integer,
 150:c:\program files\qmk_msys\mingw64\avr\include\util\delay.h ****    respectively.
 151:c:\program files\qmk_msys\mingw64\avr\include\util\delay.h **** 
 152:c:\program files\qmk_msys\mingw64\avr\include\util\delay.h ****    \note
 153:c:\program files\qmk_msys\mingw64\avr\include\util\delay.h **** 
 154:c:\program files\qmk_msys\mingw64\avr\include\util\delay.h ****    The implementation of _delay_ms() based on
 155:c:\program files\qmk_msys\mingw64\avr\include\util\delay.h ****    __builtin_avr_delay_cycles() is not backward compatible with older
 156:c:\program files\qmk_msys\mingw64\avr\include\util\delay.h ****    implementations.  In order to get functionality backward compatible
 157:c:\program files\qmk_msys\mingw64\avr\include\util\delay.h ****    with previous versions, the macro \c "__DELAY_BACKWARD_COMPATIBLE__"
 158:c:\program files\qmk_msys\mingw64\avr\include\util\delay.h ****    must be defined before including this header file. Also, the
 159:c:\program files\qmk_msys\mingw64\avr\include\util\delay.h ****    backward compatible algorithm will be chosen if the code is
 160:c:\program files\qmk_msys\mingw64\avr\include\util\delay.h ****    compiled in a <em>freestanding environment</em> (GCC option
 161:c:\program files\qmk_msys\mingw64\avr\include\util\delay.h ****    \c -ffreestanding), as the math functions required for rounding are
 162:c:\program files\qmk_msys\mingw64\avr\include\util\delay.h ****    not available to the compiler then.
 163:c:\program files\qmk_msys\mingw64\avr\include\util\delay.h **** 
 164:c:\program files\qmk_msys\mingw64\avr\include\util\delay.h ****  */
 165:c:\program files\qmk_msys\mingw64\avr\include\util\delay.h **** void
 166:c:\program files\qmk_msys\mingw64\avr\include\util\delay.h **** _delay_ms(double __ms)
 167:c:\program files\qmk_msys\mingw64\avr\include\util\delay.h **** {
 168:c:\program files\qmk_msys\mingw64\avr\include\util\delay.h **** 	double __tmp ;
 169:c:\program files\qmk_msys\mingw64\avr\include\util\delay.h **** #if __HAS_DELAY_CYCLES && defined(__OPTIMIZE__) && \
 170:c:\program files\qmk_msys\mingw64\avr\include\util\delay.h ****   !defined(__DELAY_BACKWARD_COMPATIBLE__) &&	   \
 171:c:\program files\qmk_msys\mingw64\avr\include\util\delay.h ****   __STDC_HOSTED__
 172:c:\program files\qmk_msys\mingw64\avr\include\util\delay.h **** 	uint32_t __ticks_dc;
 173:c:\program files\qmk_msys\mingw64\avr\include\util\delay.h **** 	extern void __builtin_avr_delay_cycles(unsigned long);
 174:c:\program files\qmk_msys\mingw64\avr\include\util\delay.h **** 	__tmp = ((F_CPU) / 1e3) * __ms;
 175:c:\program files\qmk_msys\mingw64\avr\include\util\delay.h **** 
 176:c:\program files\qmk_msys\mingw64\avr\include\util\delay.h **** 	#if defined(__DELAY_ROUND_DOWN__)
 177:c:\program files\qmk_msys\mingw64\avr\include\util\delay.h **** 		__ticks_dc = (uint32_t)fabs(__tmp);
 178:c:\program files\qmk_msys\mingw64\avr\include\util\delay.h **** 
 179:c:\program files\qmk_msys\mingw64\avr\include\util\delay.h **** 	#elif defined(__DELAY_ROUND_CLOSEST__)
 180:c:\program files\qmk_msys\mingw64\avr\include\util\delay.h **** 		__ticks_dc = (uint32_t)(fabs(__tmp)+0.5);
 181:c:\program files\qmk_msys\mingw64\avr\include\util\delay.h **** 
 182:c:\program files\qmk_msys\mingw64\avr\include\util\delay.h **** 	#else
 183:c:\program files\qmk_msys\mingw64\avr\include\util\delay.h **** 		//round up by default
 184:c:\program files\qmk_msys\mingw64\avr\include\util\delay.h **** 		__ticks_dc = (uint32_t)(ceil(fabs(__tmp)));
 185:c:\program files\qmk_msys\mingw64\avr\include\util\delay.h **** 	#endif
 186:c:\program files\qmk_msys\mingw64\avr\include\util\delay.h **** 
 187:c:\program files\qmk_msys\mingw64\avr\include\util\delay.h **** 	__builtin_avr_delay_cycles(__ticks_dc);
 188:c:\program files\qmk_msys\mingw64\avr\include\util\delay.h **** 
 189:c:\program files\qmk_msys\mingw64\avr\include\util\delay.h **** #else
 190:c:\program files\qmk_msys\mingw64\avr\include\util\delay.h **** 	uint16_t __ticks;
 191:c:\program files\qmk_msys\mingw64\avr\include\util\delay.h **** 	__tmp = ((F_CPU) / 4e3) * __ms;
 192:c:\program files\qmk_msys\mingw64\avr\include\util\delay.h **** 	if (__tmp < 1.0)
 193:c:\program files\qmk_msys\mingw64\avr\include\util\delay.h **** 		__ticks = 1;
 194:c:\program files\qmk_msys\mingw64\avr\include\util\delay.h **** 	else if (__tmp > 65535)
 195:c:\program files\qmk_msys\mingw64\avr\include\util\delay.h **** 	{
 196:c:\program files\qmk_msys\mingw64\avr\include\util\delay.h **** 		//	__ticks = requested delay in 1/10 ms
 197:c:\program files\qmk_msys\mingw64\avr\include\util\delay.h **** 		__ticks = (uint16_t) (__ms * 10.0);
 198:c:\program files\qmk_msys\mingw64\avr\include\util\delay.h **** 		while(__ticks)
 199:c:\program files\qmk_msys\mingw64\avr\include\util\delay.h **** 		{
 200:c:\program files\qmk_msys\mingw64\avr\include\util\delay.h **** 			// wait 1/10 ms
 201:c:\program files\qmk_msys\mingw64\avr\include\util\delay.h **** 			_delay_loop_2(((F_CPU) / 4e3) / 10);
 202:c:\program files\qmk_msys\mingw64\avr\include\util\delay.h **** 			__ticks --;
 203:c:\program files\qmk_msys\mingw64\avr\include\util\delay.h **** 		}
 204:c:\program files\qmk_msys\mingw64\avr\include\util\delay.h **** 		return;
 205:c:\program files\qmk_msys\mingw64\avr\include\util\delay.h **** 	}
 206:c:\program files\qmk_msys\mingw64\avr\include\util\delay.h **** 	else
 207:c:\program files\qmk_msys\mingw64\avr\include\util\delay.h **** 		__ticks = (uint16_t)__tmp;
 208:c:\program files\qmk_msys\mingw64\avr\include\util\delay.h **** 	_delay_loop_2(__ticks);
 209:c:\program files\qmk_msys\mingw64\avr\include\util\delay.h **** #endif
 210:c:\program files\qmk_msys\mingw64\avr\include\util\delay.h **** }
 211:c:\program files\qmk_msys\mingw64\avr\include\util\delay.h **** 
 212:c:\program files\qmk_msys\mingw64\avr\include\util\delay.h **** /**
 213:c:\program files\qmk_msys\mingw64\avr\include\util\delay.h ****    \ingroup util_delay
 214:c:\program files\qmk_msys\mingw64\avr\include\util\delay.h **** 
 215:c:\program files\qmk_msys\mingw64\avr\include\util\delay.h ****    Perform a delay of \c __us microseconds, using _delay_loop_1().
 216:c:\program files\qmk_msys\mingw64\avr\include\util\delay.h **** 
 217:c:\program files\qmk_msys\mingw64\avr\include\util\delay.h ****    The macro F_CPU is supposed to be defined to a
 218:c:\program files\qmk_msys\mingw64\avr\include\util\delay.h ****    constant defining the CPU clock frequency (in Hertz).
 219:c:\program files\qmk_msys\mingw64\avr\include\util\delay.h **** 
 220:c:\program files\qmk_msys\mingw64\avr\include\util\delay.h ****    The maximal possible delay is 768 us / F_CPU in MHz.
 221:c:\program files\qmk_msys\mingw64\avr\include\util\delay.h **** 
 222:c:\program files\qmk_msys\mingw64\avr\include\util\delay.h ****    If the user requests a delay greater than the maximal possible one,
 223:c:\program files\qmk_msys\mingw64\avr\include\util\delay.h ****    _delay_us() will automatically call _delay_ms() instead.  The user
 224:c:\program files\qmk_msys\mingw64\avr\include\util\delay.h ****    will not be informed about this case.
 225:c:\program files\qmk_msys\mingw64\avr\include\util\delay.h **** 
 226:c:\program files\qmk_msys\mingw64\avr\include\util\delay.h ****    If the avr-gcc toolchain has __builtin_avr_delay_cycles()
 227:c:\program files\qmk_msys\mingw64\avr\include\util\delay.h ****    support, maximal possible delay is 4294967.295 us/ F_CPU in MHz. For
 228:c:\program files\qmk_msys\mingw64\avr\include\util\delay.h ****    values greater than the maximal possible delay, overflow results in
 229:c:\program files\qmk_msys\mingw64\avr\include\util\delay.h ****    no delay i.e., 0us.
 230:c:\program files\qmk_msys\mingw64\avr\include\util\delay.h **** 
 231:c:\program files\qmk_msys\mingw64\avr\include\util\delay.h ****    Conversion of \c __us into clock cycles may not always result in
 232:c:\program files\qmk_msys\mingw64\avr\include\util\delay.h ****    integer.  By default, the clock cycles rounded up to next
 233:c:\program files\qmk_msys\mingw64\avr\include\util\delay.h ****    integer. This ensures that the user gets at least \c __us
 234:c:\program files\qmk_msys\mingw64\avr\include\util\delay.h ****    microseconds of delay.
 235:c:\program files\qmk_msys\mingw64\avr\include\util\delay.h **** 
 236:c:\program files\qmk_msys\mingw64\avr\include\util\delay.h ****    Alternatively, by defining the macro \c __DELAY_ROUND_DOWN__, or
 237:c:\program files\qmk_msys\mingw64\avr\include\util\delay.h ****    \c __DELAY_ROUND_CLOSEST__, before including this header file, the
 238:c:\program files\qmk_msys\mingw64\avr\include\util\delay.h ****    algorithm can be made to round down, or round to closest integer,
 239:c:\program files\qmk_msys\mingw64\avr\include\util\delay.h ****    respectively.
 240:c:\program files\qmk_msys\mingw64\avr\include\util\delay.h **** 
 241:c:\program files\qmk_msys\mingw64\avr\include\util\delay.h ****    \note
 242:c:\program files\qmk_msys\mingw64\avr\include\util\delay.h **** 
 243:c:\program files\qmk_msys\mingw64\avr\include\util\delay.h ****    The implementation of _delay_ms() based on
 244:c:\program files\qmk_msys\mingw64\avr\include\util\delay.h ****    __builtin_avr_delay_cycles() is not backward compatible with older
 245:c:\program files\qmk_msys\mingw64\avr\include\util\delay.h ****    implementations.  In order to get functionality backward compatible
 246:c:\program files\qmk_msys\mingw64\avr\include\util\delay.h ****    with previous versions, the macro \c __DELAY_BACKWARD_COMPATIBLE__
 247:c:\program files\qmk_msys\mingw64\avr\include\util\delay.h ****    must be defined before including this header file. Also, the
 248:c:\program files\qmk_msys\mingw64\avr\include\util\delay.h ****    backward compatible algorithm will be chosen if the code is
 249:c:\program files\qmk_msys\mingw64\avr\include\util\delay.h ****    compiled in a <em>freestanding environment</em> (GCC option
 250:c:\program files\qmk_msys\mingw64\avr\include\util\delay.h ****    \c -ffreestanding), as the math functions required for rounding are
 251:c:\program files\qmk_msys\mingw64\avr\include\util\delay.h ****    not available to the compiler then.
 252:c:\program files\qmk_msys\mingw64\avr\include\util\delay.h **** 
 253:c:\program files\qmk_msys\mingw64\avr\include\util\delay.h ****  */
 254:c:\program files\qmk_msys\mingw64\avr\include\util\delay.h **** void
 255:c:\program files\qmk_msys\mingw64\avr\include\util\delay.h **** _delay_us(double __us)
 134               		.loc 3 255 1 view .LVU28
 135               	.LBB93:
 256:c:\program files\qmk_msys\mingw64\avr\include\util\delay.h **** {
 257:c:\program files\qmk_msys\mingw64\avr\include\util\delay.h **** 	double __tmp ;
 136               		.loc 3 257 2 view .LVU29
 258:c:\program files\qmk_msys\mingw64\avr\include\util\delay.h **** #if __HAS_DELAY_CYCLES && defined(__OPTIMIZE__) && \
 259:c:\program files\qmk_msys\mingw64\avr\include\util\delay.h ****   !defined(__DELAY_BACKWARD_COMPATIBLE__) &&	   \
 260:c:\program files\qmk_msys\mingw64\avr\include\util\delay.h ****   __STDC_HOSTED__
 261:c:\program files\qmk_msys\mingw64\avr\include\util\delay.h **** 	uint32_t __ticks_dc;
 137               		.loc 3 261 2 view .LVU30
 262:c:\program files\qmk_msys\mingw64\avr\include\util\delay.h **** 	extern void __builtin_avr_delay_cycles(unsigned long);
 138               		.loc 3 262 2 view .LVU31
 263:c:\program files\qmk_msys\mingw64\avr\include\util\delay.h **** 	__tmp = ((F_CPU) / 1e6) * __us;
 139               		.loc 3 263 2 view .LVU32
 264:c:\program files\qmk_msys\mingw64\avr\include\util\delay.h **** 
 265:c:\program files\qmk_msys\mingw64\avr\include\util\delay.h **** 	#if defined(__DELAY_ROUND_DOWN__)
 266:c:\program files\qmk_msys\mingw64\avr\include\util\delay.h **** 		__ticks_dc = (uint32_t)fabs(__tmp);
 267:c:\program files\qmk_msys\mingw64\avr\include\util\delay.h **** 
 268:c:\program files\qmk_msys\mingw64\avr\include\util\delay.h **** 	#elif defined(__DELAY_ROUND_CLOSEST__)
 269:c:\program files\qmk_msys\mingw64\avr\include\util\delay.h **** 		__ticks_dc = (uint32_t)(fabs(__tmp)+0.5);
 270:c:\program files\qmk_msys\mingw64\avr\include\util\delay.h **** 
 271:c:\program files\qmk_msys\mingw64\avr\include\util\delay.h **** 	#else
 272:c:\program files\qmk_msys\mingw64\avr\include\util\delay.h **** 		//round up by default
 273:c:\program files\qmk_msys\mingw64\avr\include\util\delay.h **** 		__ticks_dc = (uint32_t)(ceil(fabs(__tmp)));
 140               		.loc 3 273 3 view .LVU33
 274:c:\program files\qmk_msys\mingw64\avr\include\util\delay.h **** 	#endif
 275:c:\program files\qmk_msys\mingw64\avr\include\util\delay.h **** 
 276:c:\program files\qmk_msys\mingw64\avr\include\util\delay.h **** 	__builtin_avr_delay_cycles(__ticks_dc);
 141               		.loc 3 276 2 view .LVU34
 142 002c 9AE6      		ldi r25,lo8(106)
 143 002e 9A95      	1:	dec r25
 144 0030 01F4      		brne 1b
 145 0032 00C0      		rjmp .
 146               		.loc 3 276 2 is_stmt 0 view .LVU35
 147               	.LBE93:
 148               	.LBE92:
 149               		.loc 1 783 11 is_stmt 1 view .LVU36
 150               	.LVL9:
 151               		.loc 1 783 11 is_stmt 0 view .LVU37
 152 0034 8111      		cpse r24,__zero_reg__
 153 0036 00C0      		rjmp .L5
 154               	.LVL10:
 155               	.L6:
 784:tmk_core/protocol/lufa/lufa.c ****     if (!Endpoint_IsReadWriteAllowed()) return;
 156               		.loc 1 784 5 is_stmt 1 view .LVU38
 157               	.LBB94:
 158               	.LBI94:
 358:lib/lufa/LUFA/Drivers/USB/Core/AVR8/../AVR8/Endpoint_AVR8.h **** 			{
 159               		.loc 2 358 23 view .LVU39
 160               	.LBB95:
 161               		.loc 2 360 5 view .LVU40
 162               		.loc 2 360 14 is_stmt 0 view .LVU41
 163 0038 8091 E800 		lds r24,232
 164               	.LBE95:
 165               	.LBE94:
 166               		.loc 1 784 8 view .LVU42
 167 003c 85FF      		sbrs r24,5
 168 003e 00C0      		rjmp .L3
 785:tmk_core/protocol/lufa/lufa.c **** 
 786:tmk_core/protocol/lufa/lufa.c ****     Endpoint_Write_Stream_LE(&r, sizeof(report_extra_t), NULL);
 169               		.loc 1 786 5 is_stmt 1 view .LVU43
 170 0040 50E0      		ldi r21,0
 171 0042 40E0      		ldi r20,0
 172 0044 63E0      		ldi r22,lo8(3)
 173 0046 70E0      		ldi r23,0
 174               	.LVL11:
 175               		.loc 1 786 5 is_stmt 0 view .LVU44
 176 0048 CE01      		movw r24,r28
 177 004a 0196      		adiw r24,1
 178 004c 0E94 0000 		call Endpoint_Write_Stream_LE
 179               	.LVL12:
 787:tmk_core/protocol/lufa/lufa.c ****     Endpoint_ClearIN();
 180               		.loc 1 787 5 is_stmt 1 view .LVU45
 181               	.LBB96:
 182               	.LBI96:
 361:lib/lufa/LUFA/Drivers/USB/Core/AVR8/../AVR8/Endpoint_AVR8.h **** 			}
 362:lib/lufa/LUFA/Drivers/USB/Core/AVR8/../AVR8/Endpoint_AVR8.h **** 
 363:lib/lufa/LUFA/Drivers/USB/Core/AVR8/../AVR8/Endpoint_AVR8.h **** 			/** Determines if the currently selected endpoint is configured.
 364:lib/lufa/LUFA/Drivers/USB/Core/AVR8/../AVR8/Endpoint_AVR8.h **** 			 *
 365:lib/lufa/LUFA/Drivers/USB/Core/AVR8/../AVR8/Endpoint_AVR8.h **** 			 *  \return Boolean \c true if the currently selected endpoint has been configured, \c false oth
 366:lib/lufa/LUFA/Drivers/USB/Core/AVR8/../AVR8/Endpoint_AVR8.h **** 			 */
 367:lib/lufa/LUFA/Drivers/USB/Core/AVR8/../AVR8/Endpoint_AVR8.h **** 			static inline bool Endpoint_IsConfigured(void) ATTR_WARN_UNUSED_RESULT ATTR_ALWAYS_INLINE;
 368:lib/lufa/LUFA/Drivers/USB/Core/AVR8/../AVR8/Endpoint_AVR8.h **** 			static inline bool Endpoint_IsConfigured(void)
 369:lib/lufa/LUFA/Drivers/USB/Core/AVR8/../AVR8/Endpoint_AVR8.h **** 			{
 370:lib/lufa/LUFA/Drivers/USB/Core/AVR8/../AVR8/Endpoint_AVR8.h **** 				return ((UESTA0X & (1 << CFGOK)) ? true : false);
 371:lib/lufa/LUFA/Drivers/USB/Core/AVR8/../AVR8/Endpoint_AVR8.h **** 			}
 372:lib/lufa/LUFA/Drivers/USB/Core/AVR8/../AVR8/Endpoint_AVR8.h **** 
 373:lib/lufa/LUFA/Drivers/USB/Core/AVR8/../AVR8/Endpoint_AVR8.h **** 			/** Returns a mask indicating which INTERRUPT type endpoints have interrupted - i.e. their
 374:lib/lufa/LUFA/Drivers/USB/Core/AVR8/../AVR8/Endpoint_AVR8.h **** 			 *  interrupt duration has elapsed. Which endpoints have interrupted can be determined by
 375:lib/lufa/LUFA/Drivers/USB/Core/AVR8/../AVR8/Endpoint_AVR8.h **** 			 *  masking the return value against <tt>(1 << <i>{Endpoint Number}</i>)</tt>.
 376:lib/lufa/LUFA/Drivers/USB/Core/AVR8/../AVR8/Endpoint_AVR8.h **** 			 *
 377:lib/lufa/LUFA/Drivers/USB/Core/AVR8/../AVR8/Endpoint_AVR8.h **** 			 *  \return Mask whose bits indicate which endpoints have interrupted.
 378:lib/lufa/LUFA/Drivers/USB/Core/AVR8/../AVR8/Endpoint_AVR8.h **** 			 */
 379:lib/lufa/LUFA/Drivers/USB/Core/AVR8/../AVR8/Endpoint_AVR8.h **** 			static inline uint8_t Endpoint_GetEndpointInterrupts(void) ATTR_WARN_UNUSED_RESULT ATTR_ALWAYS_I
 380:lib/lufa/LUFA/Drivers/USB/Core/AVR8/../AVR8/Endpoint_AVR8.h **** 			static inline uint8_t Endpoint_GetEndpointInterrupts(void)
 381:lib/lufa/LUFA/Drivers/USB/Core/AVR8/../AVR8/Endpoint_AVR8.h **** 			{
 382:lib/lufa/LUFA/Drivers/USB/Core/AVR8/../AVR8/Endpoint_AVR8.h **** 				return UEINT;
 383:lib/lufa/LUFA/Drivers/USB/Core/AVR8/../AVR8/Endpoint_AVR8.h **** 			}
 384:lib/lufa/LUFA/Drivers/USB/Core/AVR8/../AVR8/Endpoint_AVR8.h **** 
 385:lib/lufa/LUFA/Drivers/USB/Core/AVR8/../AVR8/Endpoint_AVR8.h **** 			/** Determines if the specified endpoint number has interrupted (valid only for INTERRUPT type
 386:lib/lufa/LUFA/Drivers/USB/Core/AVR8/../AVR8/Endpoint_AVR8.h **** 			 *  endpoints).
 387:lib/lufa/LUFA/Drivers/USB/Core/AVR8/../AVR8/Endpoint_AVR8.h **** 			 *
 388:lib/lufa/LUFA/Drivers/USB/Core/AVR8/../AVR8/Endpoint_AVR8.h **** 			 *  \param[in] Address  Address of the endpoint whose interrupt flag should be tested.
 389:lib/lufa/LUFA/Drivers/USB/Core/AVR8/../AVR8/Endpoint_AVR8.h **** 			 *
 390:lib/lufa/LUFA/Drivers/USB/Core/AVR8/../AVR8/Endpoint_AVR8.h **** 			 *  \return Boolean \c true if the specified endpoint has interrupted, \c false otherwise.
 391:lib/lufa/LUFA/Drivers/USB/Core/AVR8/../AVR8/Endpoint_AVR8.h **** 			 */
 392:lib/lufa/LUFA/Drivers/USB/Core/AVR8/../AVR8/Endpoint_AVR8.h **** 			static inline bool Endpoint_HasEndpointInterrupted(const uint8_t Address) ATTR_WARN_UNUSED_RESUL
 393:lib/lufa/LUFA/Drivers/USB/Core/AVR8/../AVR8/Endpoint_AVR8.h **** 			static inline bool Endpoint_HasEndpointInterrupted(const uint8_t Address)
 394:lib/lufa/LUFA/Drivers/USB/Core/AVR8/../AVR8/Endpoint_AVR8.h **** 			{
 395:lib/lufa/LUFA/Drivers/USB/Core/AVR8/../AVR8/Endpoint_AVR8.h **** 				return ((Endpoint_GetEndpointInterrupts() & (1 << (Address & ENDPOINT_EPNUM_MASK))) ? true : fa
 396:lib/lufa/LUFA/Drivers/USB/Core/AVR8/../AVR8/Endpoint_AVR8.h **** 			}
 397:lib/lufa/LUFA/Drivers/USB/Core/AVR8/../AVR8/Endpoint_AVR8.h **** 
 398:lib/lufa/LUFA/Drivers/USB/Core/AVR8/../AVR8/Endpoint_AVR8.h **** 			/** Determines if the selected IN endpoint is ready for a new packet to be sent to the host.
 399:lib/lufa/LUFA/Drivers/USB/Core/AVR8/../AVR8/Endpoint_AVR8.h **** 			 *
 400:lib/lufa/LUFA/Drivers/USB/Core/AVR8/../AVR8/Endpoint_AVR8.h **** 			 *  \ingroup Group_EndpointPacketManagement_AVR8
 401:lib/lufa/LUFA/Drivers/USB/Core/AVR8/../AVR8/Endpoint_AVR8.h **** 			 *
 402:lib/lufa/LUFA/Drivers/USB/Core/AVR8/../AVR8/Endpoint_AVR8.h **** 			 *  \return Boolean \c true if the current endpoint is ready for an IN packet, \c false otherwis
 403:lib/lufa/LUFA/Drivers/USB/Core/AVR8/../AVR8/Endpoint_AVR8.h **** 			 */
 404:lib/lufa/LUFA/Drivers/USB/Core/AVR8/../AVR8/Endpoint_AVR8.h **** 			static inline bool Endpoint_IsINReady(void) ATTR_WARN_UNUSED_RESULT ATTR_ALWAYS_INLINE;
 405:lib/lufa/LUFA/Drivers/USB/Core/AVR8/../AVR8/Endpoint_AVR8.h **** 			static inline bool Endpoint_IsINReady(void)
 406:lib/lufa/LUFA/Drivers/USB/Core/AVR8/../AVR8/Endpoint_AVR8.h **** 			{
 407:lib/lufa/LUFA/Drivers/USB/Core/AVR8/../AVR8/Endpoint_AVR8.h **** 				return ((UEINTX & (1 << TXINI)) ? true : false);
 408:lib/lufa/LUFA/Drivers/USB/Core/AVR8/../AVR8/Endpoint_AVR8.h **** 			}
 409:lib/lufa/LUFA/Drivers/USB/Core/AVR8/../AVR8/Endpoint_AVR8.h **** 
 410:lib/lufa/LUFA/Drivers/USB/Core/AVR8/../AVR8/Endpoint_AVR8.h **** 			/** Determines if the selected OUT endpoint has received new packet from the host.
 411:lib/lufa/LUFA/Drivers/USB/Core/AVR8/../AVR8/Endpoint_AVR8.h **** 			 *
 412:lib/lufa/LUFA/Drivers/USB/Core/AVR8/../AVR8/Endpoint_AVR8.h **** 			 *  \ingroup Group_EndpointPacketManagement_AVR8
 413:lib/lufa/LUFA/Drivers/USB/Core/AVR8/../AVR8/Endpoint_AVR8.h **** 			 *
 414:lib/lufa/LUFA/Drivers/USB/Core/AVR8/../AVR8/Endpoint_AVR8.h **** 			 *  \return Boolean \c true if current endpoint is has received an OUT packet, \c false otherwis
 415:lib/lufa/LUFA/Drivers/USB/Core/AVR8/../AVR8/Endpoint_AVR8.h **** 			 */
 416:lib/lufa/LUFA/Drivers/USB/Core/AVR8/../AVR8/Endpoint_AVR8.h **** 			static inline bool Endpoint_IsOUTReceived(void) ATTR_WARN_UNUSED_RESULT ATTR_ALWAYS_INLINE;
 417:lib/lufa/LUFA/Drivers/USB/Core/AVR8/../AVR8/Endpoint_AVR8.h **** 			static inline bool Endpoint_IsOUTReceived(void)
 418:lib/lufa/LUFA/Drivers/USB/Core/AVR8/../AVR8/Endpoint_AVR8.h **** 			{
 419:lib/lufa/LUFA/Drivers/USB/Core/AVR8/../AVR8/Endpoint_AVR8.h **** 				return ((UEINTX & (1 << RXOUTI)) ? true : false);
 420:lib/lufa/LUFA/Drivers/USB/Core/AVR8/../AVR8/Endpoint_AVR8.h **** 			}
 421:lib/lufa/LUFA/Drivers/USB/Core/AVR8/../AVR8/Endpoint_AVR8.h **** 
 422:lib/lufa/LUFA/Drivers/USB/Core/AVR8/../AVR8/Endpoint_AVR8.h **** 			/** Determines if the current CONTROL type endpoint has received a SETUP packet.
 423:lib/lufa/LUFA/Drivers/USB/Core/AVR8/../AVR8/Endpoint_AVR8.h **** 			 *
 424:lib/lufa/LUFA/Drivers/USB/Core/AVR8/../AVR8/Endpoint_AVR8.h **** 			 *  \ingroup Group_EndpointPacketManagement_AVR8
 425:lib/lufa/LUFA/Drivers/USB/Core/AVR8/../AVR8/Endpoint_AVR8.h **** 			 *
 426:lib/lufa/LUFA/Drivers/USB/Core/AVR8/../AVR8/Endpoint_AVR8.h **** 			 *  \return Boolean \c true if the selected endpoint has received a SETUP packet, \c false other
 427:lib/lufa/LUFA/Drivers/USB/Core/AVR8/../AVR8/Endpoint_AVR8.h **** 			 */
 428:lib/lufa/LUFA/Drivers/USB/Core/AVR8/../AVR8/Endpoint_AVR8.h **** 			static inline bool Endpoint_IsSETUPReceived(void) ATTR_WARN_UNUSED_RESULT ATTR_ALWAYS_INLINE;
 429:lib/lufa/LUFA/Drivers/USB/Core/AVR8/../AVR8/Endpoint_AVR8.h **** 			static inline bool Endpoint_IsSETUPReceived(void)
 430:lib/lufa/LUFA/Drivers/USB/Core/AVR8/../AVR8/Endpoint_AVR8.h **** 			{
 431:lib/lufa/LUFA/Drivers/USB/Core/AVR8/../AVR8/Endpoint_AVR8.h **** 				return ((UEINTX & (1 << RXSTPI)) ? true : false);
 432:lib/lufa/LUFA/Drivers/USB/Core/AVR8/../AVR8/Endpoint_AVR8.h **** 			}
 433:lib/lufa/LUFA/Drivers/USB/Core/AVR8/../AVR8/Endpoint_AVR8.h **** 
 434:lib/lufa/LUFA/Drivers/USB/Core/AVR8/../AVR8/Endpoint_AVR8.h **** 			/** Clears a received SETUP packet on the currently selected CONTROL type endpoint, freeing up t
 435:lib/lufa/LUFA/Drivers/USB/Core/AVR8/../AVR8/Endpoint_AVR8.h **** 			 *  endpoint for the next packet.
 436:lib/lufa/LUFA/Drivers/USB/Core/AVR8/../AVR8/Endpoint_AVR8.h **** 			 *
 437:lib/lufa/LUFA/Drivers/USB/Core/AVR8/../AVR8/Endpoint_AVR8.h **** 			 *  \ingroup Group_EndpointPacketManagement_AVR8
 438:lib/lufa/LUFA/Drivers/USB/Core/AVR8/../AVR8/Endpoint_AVR8.h **** 			 *
 439:lib/lufa/LUFA/Drivers/USB/Core/AVR8/../AVR8/Endpoint_AVR8.h **** 			 *  \note This is not applicable for non CONTROL type endpoints.
 440:lib/lufa/LUFA/Drivers/USB/Core/AVR8/../AVR8/Endpoint_AVR8.h **** 			 */
 441:lib/lufa/LUFA/Drivers/USB/Core/AVR8/../AVR8/Endpoint_AVR8.h **** 			static inline void Endpoint_ClearSETUP(void) ATTR_ALWAYS_INLINE;
 442:lib/lufa/LUFA/Drivers/USB/Core/AVR8/../AVR8/Endpoint_AVR8.h **** 			static inline void Endpoint_ClearSETUP(void)
 443:lib/lufa/LUFA/Drivers/USB/Core/AVR8/../AVR8/Endpoint_AVR8.h **** 			{
 444:lib/lufa/LUFA/Drivers/USB/Core/AVR8/../AVR8/Endpoint_AVR8.h **** 				UEINTX &= ~(1 << RXSTPI);
 445:lib/lufa/LUFA/Drivers/USB/Core/AVR8/../AVR8/Endpoint_AVR8.h **** 			}
 446:lib/lufa/LUFA/Drivers/USB/Core/AVR8/../AVR8/Endpoint_AVR8.h **** 
 447:lib/lufa/LUFA/Drivers/USB/Core/AVR8/../AVR8/Endpoint_AVR8.h **** 			/** Sends an IN packet to the host on the currently selected endpoint, freeing up the endpoint f
 448:lib/lufa/LUFA/Drivers/USB/Core/AVR8/../AVR8/Endpoint_AVR8.h **** 			 *  next packet and switching to the alternative endpoint bank if double banked.
 449:lib/lufa/LUFA/Drivers/USB/Core/AVR8/../AVR8/Endpoint_AVR8.h **** 			 *
 450:lib/lufa/LUFA/Drivers/USB/Core/AVR8/../AVR8/Endpoint_AVR8.h **** 			 *  \ingroup Group_EndpointPacketManagement_AVR8
 451:lib/lufa/LUFA/Drivers/USB/Core/AVR8/../AVR8/Endpoint_AVR8.h **** 			 */
 452:lib/lufa/LUFA/Drivers/USB/Core/AVR8/../AVR8/Endpoint_AVR8.h **** 			static inline void Endpoint_ClearIN(void) ATTR_ALWAYS_INLINE;
 453:lib/lufa/LUFA/Drivers/USB/Core/AVR8/../AVR8/Endpoint_AVR8.h **** 			static inline void Endpoint_ClearIN(void)
 183               		.loc 2 453 23 view .LVU46
 184               	.LBB97:
 454:lib/lufa/LUFA/Drivers/USB/Core/AVR8/../AVR8/Endpoint_AVR8.h **** 			{
 455:lib/lufa/LUFA/Drivers/USB/Core/AVR8/../AVR8/Endpoint_AVR8.h **** 				#if !defined(CONTROL_ONLY_DEVICE)
 456:lib/lufa/LUFA/Drivers/USB/Core/AVR8/../AVR8/Endpoint_AVR8.h **** 					UEINTX &= ~((1 << TXINI) | (1 << FIFOCON));
 185               		.loc 2 456 6 view .LVU47
 186               		.loc 2 456 13 is_stmt 0 view .LVU48
 187 0050 8091 E800 		lds r24,232
 188 0054 8E77      		andi r24,lo8(126)
 189 0056 8093 E800 		sts 232,r24
 190               	.LVL13:
 191               	.L3:
 192               	/* epilogue start */
 193               		.loc 2 456 13 view .LVU49
 194               	.LBE97:
 195               	.LBE96:
 788:tmk_core/protocol/lufa/lufa.c **** }
 196               		.loc 1 788 1 view .LVU50
 197 005a 0F90      		pop __tmp_reg__
 198 005c 0F90      		pop __tmp_reg__
 199 005e 0F90      		pop __tmp_reg__
 200 0060 DF91      		pop r29
 201 0062 CF91      		pop r28
 202 0064 0895      		ret
 203               		.cfi_endproc
 204               	.LFE133:
 206               		.section	.text.send_consumer,"ax",@progbits
 208               	send_consumer:
 209               	.LVL14:
 210               	.LFB135:
 789:tmk_core/protocol/lufa/lufa.c **** #endif
 790:tmk_core/protocol/lufa/lufa.c **** 
 791:tmk_core/protocol/lufa/lufa.c **** /** \brief Send System
 792:tmk_core/protocol/lufa/lufa.c ****  *
 793:tmk_core/protocol/lufa/lufa.c ****  * FIXME: Needs doc
 794:tmk_core/protocol/lufa/lufa.c ****  */
 795:tmk_core/protocol/lufa/lufa.c **** static void send_system(uint16_t data) {
 796:tmk_core/protocol/lufa/lufa.c **** #ifdef EXTRAKEY_ENABLE
 797:tmk_core/protocol/lufa/lufa.c ****     send_extra(REPORT_ID_SYSTEM, data);
 798:tmk_core/protocol/lufa/lufa.c **** #endif
 799:tmk_core/protocol/lufa/lufa.c **** }
 800:tmk_core/protocol/lufa/lufa.c **** 
 801:tmk_core/protocol/lufa/lufa.c **** /** \brief Send Consumer
 802:tmk_core/protocol/lufa/lufa.c ****  *
 803:tmk_core/protocol/lufa/lufa.c ****  * FIXME: Needs doc
 804:tmk_core/protocol/lufa/lufa.c ****  */
 805:tmk_core/protocol/lufa/lufa.c **** static void send_consumer(uint16_t data) {
 211               		.loc 1 805 42 is_stmt 1 view -0
 212               		.cfi_startproc
 213               	/* prologue: function */
 214               	/* frame size = 0 */
 215               	/* stack size = 0 */
 216               	.L__stack_usage = 0
 806:tmk_core/protocol/lufa/lufa.c **** #ifdef EXTRAKEY_ENABLE
 807:tmk_core/protocol/lufa/lufa.c **** #    ifdef BLUETOOTH_ENABLE
 808:tmk_core/protocol/lufa/lufa.c ****     uint8_t where = where_to_send();
 809:tmk_core/protocol/lufa/lufa.c **** 
 810:tmk_core/protocol/lufa/lufa.c ****     if (where == OUTPUT_BLUETOOTH || where == OUTPUT_USB_AND_BT) {
 811:tmk_core/protocol/lufa/lufa.c **** #        ifdef MODULE_ADAFRUIT_BLE
 812:tmk_core/protocol/lufa/lufa.c ****         adafruit_ble_send_consumer_key(data);
 813:tmk_core/protocol/lufa/lufa.c **** #        elif MODULE_RN42
 814:tmk_core/protocol/lufa/lufa.c ****         static uint16_t last_data = 0;
 815:tmk_core/protocol/lufa/lufa.c ****         if (data == last_data) return;
 816:tmk_core/protocol/lufa/lufa.c ****         last_data       = data;
 817:tmk_core/protocol/lufa/lufa.c ****         uint16_t bitmap = CONSUMER2RN42(data);
 818:tmk_core/protocol/lufa/lufa.c ****         serial_send(0xFD);
 819:tmk_core/protocol/lufa/lufa.c ****         serial_send(0x03);
 820:tmk_core/protocol/lufa/lufa.c ****         serial_send(0x03);
 821:tmk_core/protocol/lufa/lufa.c ****         serial_send(bitmap & 0xFF);
 822:tmk_core/protocol/lufa/lufa.c ****         serial_send((bitmap >> 8) & 0xFF);
 823:tmk_core/protocol/lufa/lufa.c **** #        endif
 824:tmk_core/protocol/lufa/lufa.c ****     }
 825:tmk_core/protocol/lufa/lufa.c **** 
 826:tmk_core/protocol/lufa/lufa.c ****     if (where != OUTPUT_USB && where != OUTPUT_USB_AND_BT) {
 827:tmk_core/protocol/lufa/lufa.c ****         return;
 828:tmk_core/protocol/lufa/lufa.c ****     }
 829:tmk_core/protocol/lufa/lufa.c **** #    endif
 830:tmk_core/protocol/lufa/lufa.c **** 
 831:tmk_core/protocol/lufa/lufa.c ****     send_extra(REPORT_ID_CONSUMER, data);
 217               		.loc 1 831 5 view .LVU52
 218 0000 BC01      		movw r22,r24
 219 0002 84E0      		ldi r24,lo8(4)
 220               	.LVL15:
 221               		.loc 1 831 5 is_stmt 0 view .LVU53
 222 0004 0C94 0000 		jmp send_extra
 223               	.LVL16:
 224               		.loc 1 831 5 view .LVU54
 225               		.cfi_endproc
 226               	.LFE135:
 228               		.section	.text.send_system,"ax",@progbits
 230               	send_system:
 231               	.LVL17:
 232               	.LFB134:
 795:tmk_core/protocol/lufa/lufa.c **** #ifdef EXTRAKEY_ENABLE
 233               		.loc 1 795 40 is_stmt 1 view -0
 234               		.cfi_startproc
 235               	/* prologue: function */
 236               	/* frame size = 0 */
 237               	/* stack size = 0 */
 238               	.L__stack_usage = 0
 797:tmk_core/protocol/lufa/lufa.c **** #endif
 239               		.loc 1 797 5 view .LVU56
 240 0000 BC01      		movw r22,r24
 241 0002 83E0      		ldi r24,lo8(3)
 242               	.LVL18:
 797:tmk_core/protocol/lufa/lufa.c **** #endif
 243               		.loc 1 797 5 is_stmt 0 view .LVU57
 244 0004 0C94 0000 		jmp send_extra
 245               	.LVL19:
 797:tmk_core/protocol/lufa/lufa.c **** #endif
 246               		.loc 1 797 5 view .LVU58
 247               		.cfi_endproc
 248               	.LFE134:
 250               		.section	.text.send_keyboard,"ax",@progbits
 252               	send_keyboard:
 253               	.LVL20:
 254               	.LFB131:
 668:tmk_core/protocol/lufa/lufa.c ****     uint8_t timeout = 255;
 255               		.loc 1 668 54 is_stmt 1 view -0
 256               		.cfi_startproc
 668:tmk_core/protocol/lufa/lufa.c ****     uint8_t timeout = 255;
 257               		.loc 1 668 54 is_stmt 0 view .LVU60
 258 0000 CF93      		push r28
 259               	.LCFI4:
 260               		.cfi_def_cfa_offset 3
 261               		.cfi_offset 28, -2
 262 0002 DF93      		push r29
 263               	.LCFI5:
 264               		.cfi_def_cfa_offset 4
 265               		.cfi_offset 29, -3
 266               	/* prologue: function */
 267               	/* frame size = 0 */
 268               	/* stack size = 2 */
 269               	.L__stack_usage = 2
 270 0004 EC01      		movw r28,r24
 669:tmk_core/protocol/lufa/lufa.c **** 
 271               		.loc 1 669 5 is_stmt 1 view .LVU61
 272               	.LVL21:
 695:tmk_core/protocol/lufa/lufa.c ****     uint8_t size = KEYBOARD_REPORT_SIZE;
 273               		.loc 1 695 5 view .LVU62
 696:tmk_core/protocol/lufa/lufa.c **** #ifdef NKRO_ENABLE
 274               		.loc 1 696 5 view .LVU63
 698:tmk_core/protocol/lufa/lufa.c ****         ep   = SHARED_IN_EPNUM;
 275               		.loc 1 698 5 view .LVU64
 698:tmk_core/protocol/lufa/lufa.c ****         ep   = SHARED_IN_EPNUM;
 276               		.loc 1 698 8 is_stmt 0 view .LVU65
 277 0006 8091 0000 		lds r24,keyboard_protocol
 278               	.LVL22:
 698:tmk_core/protocol/lufa/lufa.c ****         ep   = SHARED_IN_EPNUM;
 279               		.loc 1 698 8 view .LVU66
 280 000a 8823      		tst r24
 281 000c 01F0      		breq .L26
 698:tmk_core/protocol/lufa/lufa.c ****         ep   = SHARED_IN_EPNUM;
 282               		.loc 1 698 27 discriminator 1 view .LVU67
 283 000e 8091 0000 		lds r24,keymap_config
 284 0012 87FF      		sbrs r24,7
 285 0014 00C0      		rjmp .L26
 700:tmk_core/protocol/lufa/lufa.c ****     }
 286               		.loc 1 700 14 view .LVU68
 287 0016 60E2      		ldi r22,lo8(32)
 699:tmk_core/protocol/lufa/lufa.c ****         size = sizeof(struct nkro_report);
 288               		.loc 1 699 14 view .LVU69
 289 0018 82E0      		ldi r24,lo8(2)
 290               	.L18:
 291               	.LVL23:
 703:tmk_core/protocol/lufa/lufa.c ****     /* Check if write ready for a polling interval around 10ms */
 292               		.loc 1 703 5 is_stmt 1 view .LVU70
 293               	.LBB98:
 294               	.LBI98:
 267:lib/lufa/LUFA/Drivers/USB/Core/AVR8/../AVR8/Endpoint_AVR8.h **** 			{
 295               		.loc 2 267 23 view .LVU71
 296               	.LBB99:
 270:lib/lufa/LUFA/Drivers/USB/Core/AVR8/../AVR8/Endpoint_AVR8.h **** 				#endif
 297               		.loc 2 270 6 view .LVU72
 270:lib/lufa/LUFA/Drivers/USB/Core/AVR8/../AVR8/Endpoint_AVR8.h **** 				#endif
 298               		.loc 2 270 12 is_stmt 0 view .LVU73
 299 001a 8093 E900 		sts 233,r24
 270:lib/lufa/LUFA/Drivers/USB/Core/AVR8/../AVR8/Endpoint_AVR8.h **** 				#endif
 300               		.loc 2 270 12 view .LVU74
 301               	.LBE99:
 302               	.LBE98:
 705:tmk_core/protocol/lufa/lufa.c ****     if (!Endpoint_IsReadWriteAllowed()) return;
 303               		.loc 1 705 11 is_stmt 1 view .LVU75
 304               	.LVL24:
 305               	.LBB101:
 306               	.LBB100:
 270:lib/lufa/LUFA/Drivers/USB/Core/AVR8/../AVR8/Endpoint_AVR8.h **** 				#endif
 307               		.loc 2 270 12 is_stmt 0 view .LVU76
 308 001e 8FEF      		ldi r24,lo8(-1)
 309               	.LVL25:
 310               	.L19:
 270:lib/lufa/LUFA/Drivers/USB/Core/AVR8/../AVR8/Endpoint_AVR8.h **** 				#endif
 311               		.loc 2 270 12 view .LVU77
 312               	.LBE100:
 313               	.LBE101:
 314               	.LBB102:
 315               	.LBI102:
 358:lib/lufa/LUFA/Drivers/USB/Core/AVR8/../AVR8/Endpoint_AVR8.h **** 			{
 316               		.loc 2 358 23 is_stmt 1 view .LVU78
 317               	.LBB103:
 360:lib/lufa/LUFA/Drivers/USB/Core/AVR8/../AVR8/Endpoint_AVR8.h **** 			}
 318               		.loc 2 360 5 view .LVU79
 360:lib/lufa/LUFA/Drivers/USB/Core/AVR8/../AVR8/Endpoint_AVR8.h **** 			}
 319               		.loc 2 360 14 is_stmt 0 view .LVU80
 320 0020 9091 E800 		lds r25,232
 321 0024 8150      		subi r24,lo8(-(-1))
 322               	.LVL26:
 360:lib/lufa/LUFA/Drivers/USB/Core/AVR8/../AVR8/Endpoint_AVR8.h **** 			}
 323               		.loc 2 360 14 view .LVU81
 324               	.LBE103:
 325               	.LBE102:
 705:tmk_core/protocol/lufa/lufa.c ****     if (!Endpoint_IsReadWriteAllowed()) return;
 326               		.loc 1 705 22 view .LVU82
 327 0026 95FD      		sbrc r25,5
 328 0028 00C0      		rjmp .L20
 705:tmk_core/protocol/lufa/lufa.c ****     if (!Endpoint_IsReadWriteAllowed()) return;
 329               		.loc 1 705 57 is_stmt 1 view .LVU83
 330               	.LVL27:
 331               	.LBB104:
 332               	.LBI104:
 255:c:\program files\qmk_msys\mingw64\avr\include\util\delay.h **** {
 333               		.loc 3 255 1 view .LVU84
 334               	.LBB105:
 257:c:\program files\qmk_msys\mingw64\avr\include\util\delay.h **** #if __HAS_DELAY_CYCLES && defined(__OPTIMIZE__) && \
 335               		.loc 3 257 2 view .LVU85
 261:c:\program files\qmk_msys\mingw64\avr\include\util\delay.h **** 	extern void __builtin_avr_delay_cycles(unsigned long);
 336               		.loc 3 261 2 view .LVU86
 262:c:\program files\qmk_msys\mingw64\avr\include\util\delay.h **** 	__tmp = ((F_CPU) / 1e6) * __us;
 337               		.loc 3 262 2 view .LVU87
 263:c:\program files\qmk_msys\mingw64\avr\include\util\delay.h **** 
 338               		.loc 3 263 2 view .LVU88
 273:c:\program files\qmk_msys\mingw64\avr\include\util\delay.h **** 	#endif
 339               		.loc 3 273 3 view .LVU89
 340               		.loc 3 276 2 view .LVU90
 341 002a 9AE6      		ldi r25,lo8(106)
 342 002c 9A95      	1:	dec r25
 343 002e 01F4      		brne 1b
 344 0030 00C0      		rjmp .
 345               		.loc 3 276 2 is_stmt 0 view .LVU91
 346               	.LBE105:
 347               	.LBE104:
 705:tmk_core/protocol/lufa/lufa.c ****     if (!Endpoint_IsReadWriteAllowed()) return;
 348               		.loc 1 705 11 is_stmt 1 view .LVU92
 349               	.LVL28:
 705:tmk_core/protocol/lufa/lufa.c ****     if (!Endpoint_IsReadWriteAllowed()) return;
 350               		.loc 1 705 11 is_stmt 0 view .LVU93
 351 0032 8111      		cpse r24,__zero_reg__
 352 0034 00C0      		rjmp .L19
 353               	.LVL29:
 354               	.L20:
 706:tmk_core/protocol/lufa/lufa.c **** 
 355               		.loc 1 706 5 is_stmt 1 view .LVU94
 356               	.LBB106:
 357               	.LBI106:
 358:lib/lufa/LUFA/Drivers/USB/Core/AVR8/../AVR8/Endpoint_AVR8.h **** 			{
 358               		.loc 2 358 23 view .LVU95
 359               	.LBB107:
 360:lib/lufa/LUFA/Drivers/USB/Core/AVR8/../AVR8/Endpoint_AVR8.h **** 			}
 360               		.loc 2 360 5 view .LVU96
 360:lib/lufa/LUFA/Drivers/USB/Core/AVR8/../AVR8/Endpoint_AVR8.h **** 			}
 361               		.loc 2 360 14 is_stmt 0 view .LVU97
 362 0036 8091 E800 		lds r24,232
 363               	.LBE107:
 364               	.LBE106:
 706:tmk_core/protocol/lufa/lufa.c **** 
 365               		.loc 1 706 8 view .LVU98
 366 003a 85FF      		sbrs r24,5
 367 003c 00C0      		rjmp .L17
 709:tmk_core/protocol/lufa/lufa.c ****         Endpoint_Write_Stream_LE(&report->mods, 8, NULL);
 368               		.loc 1 709 5 is_stmt 1 view .LVU99
 709:tmk_core/protocol/lufa/lufa.c ****         Endpoint_Write_Stream_LE(&report->mods, 8, NULL);
 369               		.loc 1 709 8 is_stmt 0 view .LVU100
 370 003e 8091 0000 		lds r24,keyboard_protocol
 712:tmk_core/protocol/lufa/lufa.c ****     }
 371               		.loc 1 712 9 view .LVU101
 372 0042 70E0      		ldi r23,0
 373 0044 50E0      		ldi r21,0
 374 0046 40E0      		ldi r20,0
 709:tmk_core/protocol/lufa/lufa.c ****         Endpoint_Write_Stream_LE(&report->mods, 8, NULL);
 375               		.loc 1 709 8 view .LVU102
 376 0048 8111      		cpse r24,__zero_reg__
 377 004a 00C0      		rjmp .L33
 710:tmk_core/protocol/lufa/lufa.c ****     } else {
 378               		.loc 1 710 9 is_stmt 1 view .LVU103
 379 004c 50E0      		ldi r21,0
 380 004e 40E0      		ldi r20,0
 381 0050 68E0      		ldi r22,lo8(8)
 382 0052 70E0      		ldi r23,0
 383               	.LVL30:
 384               	.L33:
 712:tmk_core/protocol/lufa/lufa.c ****     }
 385               		.loc 1 712 9 is_stmt 0 view .LVU104
 386 0054 CE01      		movw r24,r28
 387 0056 0E94 0000 		call Endpoint_Write_Stream_LE
 388               	.LVL31:
 716:tmk_core/protocol/lufa/lufa.c **** 
 389               		.loc 1 716 5 is_stmt 1 view .LVU105
 390               	.LBB108:
 391               	.LBI108:
 453:lib/lufa/LUFA/Drivers/USB/Core/AVR8/../AVR8/Endpoint_AVR8.h **** 			{
 392               		.loc 2 453 23 view .LVU106
 393               	.LBB109:
 394               		.loc 2 456 6 view .LVU107
 395               		.loc 2 456 13 is_stmt 0 view .LVU108
 396 005a 8091 E800 		lds r24,232
 397 005e 8E77      		andi r24,lo8(126)
 398 0060 8093 E800 		sts 232,r24
 399               	.LBE109:
 400               	.LBE108:
 718:tmk_core/protocol/lufa/lufa.c **** }
 401               		.loc 1 718 5 is_stmt 1 view .LVU109
 718:tmk_core/protocol/lufa/lufa.c **** }
 402               		.loc 1 718 26 is_stmt 0 view .LVU110
 403 0064 80E2      		ldi r24,lo8(32)
 404 0066 FE01      		movw r30,r28
 405 0068 A0E0      		ldi r26,lo8(keyboard_report_sent)
 406 006a B0E0      		ldi r27,hi8(keyboard_report_sent)
 407               		0:
 408 006c 0190      		ld r0,Z+
 409 006e 0D92      		st X+,r0
 410 0070 8A95      		dec r24
 411 0072 01F4      		brne 0b
 412               	.L17:
 413               	/* epilogue start */
 719:tmk_core/protocol/lufa/lufa.c **** 
 414               		.loc 1 719 1 view .LVU111
 415 0074 DF91      		pop r29
 416 0076 CF91      		pop r28
 417               	.LVL32:
 719:tmk_core/protocol/lufa/lufa.c **** 
 418               		.loc 1 719 1 view .LVU112
 419 0078 0895      		ret
 420               	.LVL33:
 421               	.L26:
 696:tmk_core/protocol/lufa/lufa.c **** #ifdef NKRO_ENABLE
 422               		.loc 1 696 13 view .LVU113
 423 007a 68E0      		ldi r22,lo8(8)
 695:tmk_core/protocol/lufa/lufa.c ****     uint8_t size = KEYBOARD_REPORT_SIZE;
 424               		.loc 1 695 13 view .LVU114
 425 007c 81E0      		ldi r24,lo8(1)
 426 007e 00C0      		rjmp .L18
 427               		.cfi_endproc
 428               	.LFE131:
 430               		.section	.text.EVENT_USB_Device_Connect,"ax",@progbits
 431               	.global	EVENT_USB_Device_Connect
 433               	EVENT_USB_Device_Connect:
 434               	.LFB123:
 388:tmk_core/protocol/lufa/lufa.c ****     print("[C]");
 435               		.loc 1 388 37 is_stmt 1 view -0
 436               		.cfi_startproc
 437               	/* prologue: function */
 438               	/* frame size = 0 */
 439               	/* stack size = 0 */
 440               	.L__stack_usage = 0
 389:tmk_core/protocol/lufa/lufa.c ****     /* For battery powered device */
 441               		.loc 1 389 17 view .LVU116
 391:tmk_core/protocol/lufa/lufa.c ****         USB_Disable();
 442               		.loc 1 391 5 view .LVU117
 391:tmk_core/protocol/lufa/lufa.c ****         USB_Disable();
 443               		.loc 1 391 9 is_stmt 0 view .LVU118
 444 0000 8091 0000 		lds r24,USB_IsInitialized
 391:tmk_core/protocol/lufa/lufa.c ****         USB_Disable();
 445               		.loc 1 391 8 view .LVU119
 446 0004 8111      		cpse r24,__zero_reg__
 447 0006 00C0      		rjmp .L34
 392:tmk_core/protocol/lufa/lufa.c ****         USB_Init();
 448               		.loc 1 392 9 is_stmt 1 view .LVU120
 449 0008 0E94 0000 		call USB_Disable
 450               	.LVL34:
 393:tmk_core/protocol/lufa/lufa.c ****         USB_Device_EnableSOFEvents();
 451               		.loc 1 393 9 view .LVU121
 452 000c 0E94 0000 		call USB_Init
 453               	.LVL35:
 394:tmk_core/protocol/lufa/lufa.c ****     }
 454               		.loc 1 394 9 view .LVU122
 455               	.LBB110:
 456               	.LBI110:
 457               		.file 4 "lib/lufa/LUFA/Drivers/USB/Core/AVR8/../AVR8/Device_AVR8.h"
   1:lib/lufa/LUFA/Drivers/USB/Core/AVR8/../AVR8/Device_AVR8.h **** /*
   2:lib/lufa/LUFA/Drivers/USB/Core/AVR8/../AVR8/Device_AVR8.h ****              LUFA Library
   3:lib/lufa/LUFA/Drivers/USB/Core/AVR8/../AVR8/Device_AVR8.h ****      Copyright (C) Dean Camera, 2019.
   4:lib/lufa/LUFA/Drivers/USB/Core/AVR8/../AVR8/Device_AVR8.h **** 
   5:lib/lufa/LUFA/Drivers/USB/Core/AVR8/../AVR8/Device_AVR8.h ****   dean [at] fourwalledcubicle [dot] com
   6:lib/lufa/LUFA/Drivers/USB/Core/AVR8/../AVR8/Device_AVR8.h ****            www.lufa-lib.org
   7:lib/lufa/LUFA/Drivers/USB/Core/AVR8/../AVR8/Device_AVR8.h **** */
   8:lib/lufa/LUFA/Drivers/USB/Core/AVR8/../AVR8/Device_AVR8.h **** 
   9:lib/lufa/LUFA/Drivers/USB/Core/AVR8/../AVR8/Device_AVR8.h **** /*
  10:lib/lufa/LUFA/Drivers/USB/Core/AVR8/../AVR8/Device_AVR8.h ****   Copyright 2019  Dean Camera (dean [at] fourwalledcubicle [dot] com)
  11:lib/lufa/LUFA/Drivers/USB/Core/AVR8/../AVR8/Device_AVR8.h **** 
  12:lib/lufa/LUFA/Drivers/USB/Core/AVR8/../AVR8/Device_AVR8.h ****   Permission to use, copy, modify, distribute, and sell this
  13:lib/lufa/LUFA/Drivers/USB/Core/AVR8/../AVR8/Device_AVR8.h ****   software and its documentation for any purpose is hereby granted
  14:lib/lufa/LUFA/Drivers/USB/Core/AVR8/../AVR8/Device_AVR8.h ****   without fee, provided that the above copyright notice appear in
  15:lib/lufa/LUFA/Drivers/USB/Core/AVR8/../AVR8/Device_AVR8.h ****   all copies and that both that the copyright notice and this
  16:lib/lufa/LUFA/Drivers/USB/Core/AVR8/../AVR8/Device_AVR8.h ****   permission notice and warranty disclaimer appear in supporting
  17:lib/lufa/LUFA/Drivers/USB/Core/AVR8/../AVR8/Device_AVR8.h ****   documentation, and that the name of the author not be used in
  18:lib/lufa/LUFA/Drivers/USB/Core/AVR8/../AVR8/Device_AVR8.h ****   advertising or publicity pertaining to distribution of the
  19:lib/lufa/LUFA/Drivers/USB/Core/AVR8/../AVR8/Device_AVR8.h ****   software without specific, written prior permission.
  20:lib/lufa/LUFA/Drivers/USB/Core/AVR8/../AVR8/Device_AVR8.h **** 
  21:lib/lufa/LUFA/Drivers/USB/Core/AVR8/../AVR8/Device_AVR8.h ****   The author disclaims all warranties with regard to this
  22:lib/lufa/LUFA/Drivers/USB/Core/AVR8/../AVR8/Device_AVR8.h ****   software, including all implied warranties of merchantability
  23:lib/lufa/LUFA/Drivers/USB/Core/AVR8/../AVR8/Device_AVR8.h ****   and fitness.  In no event shall the author be liable for any
  24:lib/lufa/LUFA/Drivers/USB/Core/AVR8/../AVR8/Device_AVR8.h ****   special, indirect or consequential damages or any damages
  25:lib/lufa/LUFA/Drivers/USB/Core/AVR8/../AVR8/Device_AVR8.h ****   whatsoever resulting from loss of use, data or profits, whether
  26:lib/lufa/LUFA/Drivers/USB/Core/AVR8/../AVR8/Device_AVR8.h ****   in an action of contract, negligence or other tortious action,
  27:lib/lufa/LUFA/Drivers/USB/Core/AVR8/../AVR8/Device_AVR8.h ****   arising out of or in connection with the use or performance of
  28:lib/lufa/LUFA/Drivers/USB/Core/AVR8/../AVR8/Device_AVR8.h ****   this software.
  29:lib/lufa/LUFA/Drivers/USB/Core/AVR8/../AVR8/Device_AVR8.h **** */
  30:lib/lufa/LUFA/Drivers/USB/Core/AVR8/../AVR8/Device_AVR8.h **** 
  31:lib/lufa/LUFA/Drivers/USB/Core/AVR8/../AVR8/Device_AVR8.h **** /** \file
  32:lib/lufa/LUFA/Drivers/USB/Core/AVR8/../AVR8/Device_AVR8.h ****  *  \brief USB Device definitions for the AVR8 microcontrollers.
  33:lib/lufa/LUFA/Drivers/USB/Core/AVR8/../AVR8/Device_AVR8.h ****  *  \copydetails Group_Device_AVR8
  34:lib/lufa/LUFA/Drivers/USB/Core/AVR8/../AVR8/Device_AVR8.h ****  *
  35:lib/lufa/LUFA/Drivers/USB/Core/AVR8/../AVR8/Device_AVR8.h ****  *  \note This file should not be included directly. It is automatically included as needed by the 
  36:lib/lufa/LUFA/Drivers/USB/Core/AVR8/../AVR8/Device_AVR8.h ****  *        dispatch header located in LUFA/Drivers/USB/USB.h.
  37:lib/lufa/LUFA/Drivers/USB/Core/AVR8/../AVR8/Device_AVR8.h ****  */
  38:lib/lufa/LUFA/Drivers/USB/Core/AVR8/../AVR8/Device_AVR8.h **** 
  39:lib/lufa/LUFA/Drivers/USB/Core/AVR8/../AVR8/Device_AVR8.h **** /** \ingroup Group_Device
  40:lib/lufa/LUFA/Drivers/USB/Core/AVR8/../AVR8/Device_AVR8.h ****  *  \defgroup Group_Device_AVR8 Device Management (AVR8)
  41:lib/lufa/LUFA/Drivers/USB/Core/AVR8/../AVR8/Device_AVR8.h ****  *  \brief USB Device definitions for the AVR8 microcontrollers.
  42:lib/lufa/LUFA/Drivers/USB/Core/AVR8/../AVR8/Device_AVR8.h ****  *
  43:lib/lufa/LUFA/Drivers/USB/Core/AVR8/../AVR8/Device_AVR8.h ****  *  Architecture specific USB Device definitions for the Atmel 8-bit AVR microcontrollers.
  44:lib/lufa/LUFA/Drivers/USB/Core/AVR8/../AVR8/Device_AVR8.h ****  *
  45:lib/lufa/LUFA/Drivers/USB/Core/AVR8/../AVR8/Device_AVR8.h ****  *  @{
  46:lib/lufa/LUFA/Drivers/USB/Core/AVR8/../AVR8/Device_AVR8.h ****  */
  47:lib/lufa/LUFA/Drivers/USB/Core/AVR8/../AVR8/Device_AVR8.h **** 
  48:lib/lufa/LUFA/Drivers/USB/Core/AVR8/../AVR8/Device_AVR8.h **** #ifndef __USBDEVICE_AVR8_H__
  49:lib/lufa/LUFA/Drivers/USB/Core/AVR8/../AVR8/Device_AVR8.h **** #define __USBDEVICE_AVR8_H__
  50:lib/lufa/LUFA/Drivers/USB/Core/AVR8/../AVR8/Device_AVR8.h **** 
  51:lib/lufa/LUFA/Drivers/USB/Core/AVR8/../AVR8/Device_AVR8.h **** 	/* Includes: */
  52:lib/lufa/LUFA/Drivers/USB/Core/AVR8/../AVR8/Device_AVR8.h **** 		#include "../../../../Common/Common.h"
  53:lib/lufa/LUFA/Drivers/USB/Core/AVR8/../AVR8/Device_AVR8.h **** 		#include "../USBController.h"
  54:lib/lufa/LUFA/Drivers/USB/Core/AVR8/../AVR8/Device_AVR8.h **** 		#include "../StdDescriptors.h"
  55:lib/lufa/LUFA/Drivers/USB/Core/AVR8/../AVR8/Device_AVR8.h **** 		#include "../USBInterrupt.h"
  56:lib/lufa/LUFA/Drivers/USB/Core/AVR8/../AVR8/Device_AVR8.h **** 		#include "../Endpoint.h"
  57:lib/lufa/LUFA/Drivers/USB/Core/AVR8/../AVR8/Device_AVR8.h **** 
  58:lib/lufa/LUFA/Drivers/USB/Core/AVR8/../AVR8/Device_AVR8.h **** 	/* Enable C linkage for C++ Compilers: */
  59:lib/lufa/LUFA/Drivers/USB/Core/AVR8/../AVR8/Device_AVR8.h **** 		#if defined(__cplusplus)
  60:lib/lufa/LUFA/Drivers/USB/Core/AVR8/../AVR8/Device_AVR8.h **** 			extern "C" {
  61:lib/lufa/LUFA/Drivers/USB/Core/AVR8/../AVR8/Device_AVR8.h **** 		#endif
  62:lib/lufa/LUFA/Drivers/USB/Core/AVR8/../AVR8/Device_AVR8.h **** 
  63:lib/lufa/LUFA/Drivers/USB/Core/AVR8/../AVR8/Device_AVR8.h **** 	/* Preprocessor Checks: */
  64:lib/lufa/LUFA/Drivers/USB/Core/AVR8/../AVR8/Device_AVR8.h **** 		#if !defined(__INCLUDE_FROM_USB_DRIVER)
  65:lib/lufa/LUFA/Drivers/USB/Core/AVR8/../AVR8/Device_AVR8.h **** 			#error Do not include this file directly. Include LUFA/Drivers/USB/USB.h instead.
  66:lib/lufa/LUFA/Drivers/USB/Core/AVR8/../AVR8/Device_AVR8.h **** 		#endif
  67:lib/lufa/LUFA/Drivers/USB/Core/AVR8/../AVR8/Device_AVR8.h **** 
  68:lib/lufa/LUFA/Drivers/USB/Core/AVR8/../AVR8/Device_AVR8.h **** 		#if (defined(USE_RAM_DESCRIPTORS) && defined(USE_EEPROM_DESCRIPTORS))
  69:lib/lufa/LUFA/Drivers/USB/Core/AVR8/../AVR8/Device_AVR8.h **** 			#error USE_RAM_DESCRIPTORS and USE_EEPROM_DESCRIPTORS are mutually exclusive.
  70:lib/lufa/LUFA/Drivers/USB/Core/AVR8/../AVR8/Device_AVR8.h **** 		#endif
  71:lib/lufa/LUFA/Drivers/USB/Core/AVR8/../AVR8/Device_AVR8.h **** 
  72:lib/lufa/LUFA/Drivers/USB/Core/AVR8/../AVR8/Device_AVR8.h **** 		#if (defined(USE_FLASH_DESCRIPTORS) && defined(USE_EEPROM_DESCRIPTORS))
  73:lib/lufa/LUFA/Drivers/USB/Core/AVR8/../AVR8/Device_AVR8.h **** 			#error USE_FLASH_DESCRIPTORS and USE_EEPROM_DESCRIPTORS are mutually exclusive.
  74:lib/lufa/LUFA/Drivers/USB/Core/AVR8/../AVR8/Device_AVR8.h **** 		#endif
  75:lib/lufa/LUFA/Drivers/USB/Core/AVR8/../AVR8/Device_AVR8.h **** 
  76:lib/lufa/LUFA/Drivers/USB/Core/AVR8/../AVR8/Device_AVR8.h **** 		#if (defined(USE_FLASH_DESCRIPTORS) && defined(USE_RAM_DESCRIPTORS))
  77:lib/lufa/LUFA/Drivers/USB/Core/AVR8/../AVR8/Device_AVR8.h **** 			#error USE_FLASH_DESCRIPTORS and USE_RAM_DESCRIPTORS are mutually exclusive.
  78:lib/lufa/LUFA/Drivers/USB/Core/AVR8/../AVR8/Device_AVR8.h **** 		#endif
  79:lib/lufa/LUFA/Drivers/USB/Core/AVR8/../AVR8/Device_AVR8.h **** 
  80:lib/lufa/LUFA/Drivers/USB/Core/AVR8/../AVR8/Device_AVR8.h **** 	/* Public Interface - May be used in end-application: */
  81:lib/lufa/LUFA/Drivers/USB/Core/AVR8/../AVR8/Device_AVR8.h **** 		/* Macros: */
  82:lib/lufa/LUFA/Drivers/USB/Core/AVR8/../AVR8/Device_AVR8.h **** 			/** \name USB Device Mode Option Masks */
  83:lib/lufa/LUFA/Drivers/USB/Core/AVR8/../AVR8/Device_AVR8.h **** 			//@{
  84:lib/lufa/LUFA/Drivers/USB/Core/AVR8/../AVR8/Device_AVR8.h **** 			#if defined(USB_SERIES_4_AVR) || defined(USB_SERIES_6_AVR) || defined(USB_SERIES_7_AVR) || defin
  85:lib/lufa/LUFA/Drivers/USB/Core/AVR8/../AVR8/Device_AVR8.h **** 				/** Mask for the Options parameter of the \ref USB_Init() function. This indicates that the
  86:lib/lufa/LUFA/Drivers/USB/Core/AVR8/../AVR8/Device_AVR8.h **** 				 *  USB interface should be initialized in low speed (1.5Mb/s) mode.
  87:lib/lufa/LUFA/Drivers/USB/Core/AVR8/../AVR8/Device_AVR8.h **** 				 *
  88:lib/lufa/LUFA/Drivers/USB/Core/AVR8/../AVR8/Device_AVR8.h **** 				 *  \note Low Speed mode is not available on all USB AVR models.
  89:lib/lufa/LUFA/Drivers/USB/Core/AVR8/../AVR8/Device_AVR8.h **** 				 *        \n
  90:lib/lufa/LUFA/Drivers/USB/Core/AVR8/../AVR8/Device_AVR8.h **** 				 *
  91:lib/lufa/LUFA/Drivers/USB/Core/AVR8/../AVR8/Device_AVR8.h **** 				 *  \note Restrictions apply on the number, size and type of endpoints which can be used
  92:lib/lufa/LUFA/Drivers/USB/Core/AVR8/../AVR8/Device_AVR8.h **** 				 *        when running in low speed mode - please refer to the USB 2.0 specification.
  93:lib/lufa/LUFA/Drivers/USB/Core/AVR8/../AVR8/Device_AVR8.h **** 				 */
  94:lib/lufa/LUFA/Drivers/USB/Core/AVR8/../AVR8/Device_AVR8.h **** 				#define USB_DEVICE_OPT_LOWSPEED            (1 << 0)
  95:lib/lufa/LUFA/Drivers/USB/Core/AVR8/../AVR8/Device_AVR8.h **** 			#endif
  96:lib/lufa/LUFA/Drivers/USB/Core/AVR8/../AVR8/Device_AVR8.h **** 
  97:lib/lufa/LUFA/Drivers/USB/Core/AVR8/../AVR8/Device_AVR8.h **** 			/** Mask for the Options parameter of the \ref USB_Init() function. This indicates that the
  98:lib/lufa/LUFA/Drivers/USB/Core/AVR8/../AVR8/Device_AVR8.h **** 			 *  USB interface should be initialized in full speed (12Mb/s) mode.
  99:lib/lufa/LUFA/Drivers/USB/Core/AVR8/../AVR8/Device_AVR8.h **** 			 */
 100:lib/lufa/LUFA/Drivers/USB/Core/AVR8/../AVR8/Device_AVR8.h **** 			#define USB_DEVICE_OPT_FULLSPEED               (0 << 0)
 101:lib/lufa/LUFA/Drivers/USB/Core/AVR8/../AVR8/Device_AVR8.h **** 			//@}
 102:lib/lufa/LUFA/Drivers/USB/Core/AVR8/../AVR8/Device_AVR8.h **** 
 103:lib/lufa/LUFA/Drivers/USB/Core/AVR8/../AVR8/Device_AVR8.h **** 			#if (!defined(NO_INTERNAL_SERIAL) && \
 104:lib/lufa/LUFA/Drivers/USB/Core/AVR8/../AVR8/Device_AVR8.h **** 			     (defined(USB_SERIES_7_AVR) || defined(USB_SERIES_6_AVR) || \
 105:lib/lufa/LUFA/Drivers/USB/Core/AVR8/../AVR8/Device_AVR8.h **** 			      defined(USB_SERIES_4_AVR) || defined(USB_SERIES_2_AVR) || \
 106:lib/lufa/LUFA/Drivers/USB/Core/AVR8/../AVR8/Device_AVR8.h **** 				  defined(__DOXYGEN__)))
 107:lib/lufa/LUFA/Drivers/USB/Core/AVR8/../AVR8/Device_AVR8.h **** 				/** String descriptor index for the device's unique serial number string descriptor within the 
 108:lib/lufa/LUFA/Drivers/USB/Core/AVR8/../AVR8/Device_AVR8.h **** 				 *  This unique serial number is used by the host to associate resources to the device (such as
 109:lib/lufa/LUFA/Drivers/USB/Core/AVR8/../AVR8/Device_AVR8.h **** 				 *  number allocations) to a device regardless of the port it is plugged in to on the host. Som
 110:lib/lufa/LUFA/Drivers/USB/Core/AVR8/../AVR8/Device_AVR8.h **** 				 *  a unique serial number internally, and setting the device descriptors serial number string 
 111:lib/lufa/LUFA/Drivers/USB/Core/AVR8/../AVR8/Device_AVR8.h **** 				 *  will cause it to use the internal serial number.
 112:lib/lufa/LUFA/Drivers/USB/Core/AVR8/../AVR8/Device_AVR8.h **** 				 *
 113:lib/lufa/LUFA/Drivers/USB/Core/AVR8/../AVR8/Device_AVR8.h **** 				 *  On unsupported devices, this will evaluate to \ref NO_DESCRIPTOR and so will force the host
 114:lib/lufa/LUFA/Drivers/USB/Core/AVR8/../AVR8/Device_AVR8.h **** 				 *  number for the device.
 115:lib/lufa/LUFA/Drivers/USB/Core/AVR8/../AVR8/Device_AVR8.h **** 				 */
 116:lib/lufa/LUFA/Drivers/USB/Core/AVR8/../AVR8/Device_AVR8.h **** 				#ifndef USE_INTERNAL_SERIAL
 117:lib/lufa/LUFA/Drivers/USB/Core/AVR8/../AVR8/Device_AVR8.h **** 					#define USE_INTERNAL_SERIAL         0xDC
 118:lib/lufa/LUFA/Drivers/USB/Core/AVR8/../AVR8/Device_AVR8.h **** 				#endif
 119:lib/lufa/LUFA/Drivers/USB/Core/AVR8/../AVR8/Device_AVR8.h **** 
 120:lib/lufa/LUFA/Drivers/USB/Core/AVR8/../AVR8/Device_AVR8.h **** 				/** Length of the device's unique internal serial number, in bits, if present on the selected m
 121:lib/lufa/LUFA/Drivers/USB/Core/AVR8/../AVR8/Device_AVR8.h **** 				 *  model.
 122:lib/lufa/LUFA/Drivers/USB/Core/AVR8/../AVR8/Device_AVR8.h **** 				 */
 123:lib/lufa/LUFA/Drivers/USB/Core/AVR8/../AVR8/Device_AVR8.h **** 				#define INTERNAL_SERIAL_LENGTH_BITS     80
 124:lib/lufa/LUFA/Drivers/USB/Core/AVR8/../AVR8/Device_AVR8.h **** 
 125:lib/lufa/LUFA/Drivers/USB/Core/AVR8/../AVR8/Device_AVR8.h **** 				/** Start address of the internal serial number, in the appropriate address space, if present o
 126:lib/lufa/LUFA/Drivers/USB/Core/AVR8/../AVR8/Device_AVR8.h **** 				 *  model.
 127:lib/lufa/LUFA/Drivers/USB/Core/AVR8/../AVR8/Device_AVR8.h **** 				 */
 128:lib/lufa/LUFA/Drivers/USB/Core/AVR8/../AVR8/Device_AVR8.h **** 				#define INTERNAL_SERIAL_START_ADDRESS   0x0E
 129:lib/lufa/LUFA/Drivers/USB/Core/AVR8/../AVR8/Device_AVR8.h **** 			#else
 130:lib/lufa/LUFA/Drivers/USB/Core/AVR8/../AVR8/Device_AVR8.h **** 				#undef	USE_INTERNAL_SERIAL
 131:lib/lufa/LUFA/Drivers/USB/Core/AVR8/../AVR8/Device_AVR8.h **** 				#define USE_INTERNAL_SERIAL             NO_DESCRIPTOR
 132:lib/lufa/LUFA/Drivers/USB/Core/AVR8/../AVR8/Device_AVR8.h **** 
 133:lib/lufa/LUFA/Drivers/USB/Core/AVR8/../AVR8/Device_AVR8.h **** 				#define INTERNAL_SERIAL_LENGTH_BITS     0
 134:lib/lufa/LUFA/Drivers/USB/Core/AVR8/../AVR8/Device_AVR8.h **** 				#define INTERNAL_SERIAL_START_ADDRESS   0
 135:lib/lufa/LUFA/Drivers/USB/Core/AVR8/../AVR8/Device_AVR8.h **** 			#endif
 136:lib/lufa/LUFA/Drivers/USB/Core/AVR8/../AVR8/Device_AVR8.h **** 
 137:lib/lufa/LUFA/Drivers/USB/Core/AVR8/../AVR8/Device_AVR8.h **** 		/* Function Prototypes: */
 138:lib/lufa/LUFA/Drivers/USB/Core/AVR8/../AVR8/Device_AVR8.h **** 			/** Sends a Remote Wakeup request to the host. This signals to the host that the device should
 139:lib/lufa/LUFA/Drivers/USB/Core/AVR8/../AVR8/Device_AVR8.h **** 			 *  be taken out of suspended mode, and communications should resume.
 140:lib/lufa/LUFA/Drivers/USB/Core/AVR8/../AVR8/Device_AVR8.h **** 			 *
 141:lib/lufa/LUFA/Drivers/USB/Core/AVR8/../AVR8/Device_AVR8.h **** 			 *  Typically, this is implemented so that HID devices (mice, keyboards, etc.) can wake up the
 142:lib/lufa/LUFA/Drivers/USB/Core/AVR8/../AVR8/Device_AVR8.h **** 			 *  host computer when the host has suspended all USB devices to enter a low power state.
 143:lib/lufa/LUFA/Drivers/USB/Core/AVR8/../AVR8/Device_AVR8.h **** 			 *
 144:lib/lufa/LUFA/Drivers/USB/Core/AVR8/../AVR8/Device_AVR8.h **** 			 *  \attention This function should only be used if the device has indicated to the host that it
 145:lib/lufa/LUFA/Drivers/USB/Core/AVR8/../AVR8/Device_AVR8.h **** 			 *             supports the Remote Wakeup feature in the device descriptors, and should only be
 146:lib/lufa/LUFA/Drivers/USB/Core/AVR8/../AVR8/Device_AVR8.h **** 			 *             issued if the host is currently allowing remote wakeup events from the device (i.
 147:lib/lufa/LUFA/Drivers/USB/Core/AVR8/../AVR8/Device_AVR8.h **** 			 *             the \ref USB_Device_RemoteWakeupEnabled flag is set). When the \c NO_DEVICE_REMOT
 148:lib/lufa/LUFA/Drivers/USB/Core/AVR8/../AVR8/Device_AVR8.h **** 			 *             compile time option is used, this function is unavailable.
 149:lib/lufa/LUFA/Drivers/USB/Core/AVR8/../AVR8/Device_AVR8.h **** 			 *             \n\n
 150:lib/lufa/LUFA/Drivers/USB/Core/AVR8/../AVR8/Device_AVR8.h **** 			 *
 151:lib/lufa/LUFA/Drivers/USB/Core/AVR8/../AVR8/Device_AVR8.h **** 			 *  \attention The USB clock must be running for this function to operate. If the stack is initi
 152:lib/lufa/LUFA/Drivers/USB/Core/AVR8/../AVR8/Device_AVR8.h **** 			 *             the \ref USB_OPT_MANUAL_PLL option enabled, the user must ensure that the PLL is 
 153:lib/lufa/LUFA/Drivers/USB/Core/AVR8/../AVR8/Device_AVR8.h **** 			 *             before attempting to call this function.
 154:lib/lufa/LUFA/Drivers/USB/Core/AVR8/../AVR8/Device_AVR8.h **** 			 *
 155:lib/lufa/LUFA/Drivers/USB/Core/AVR8/../AVR8/Device_AVR8.h **** 			 *  \see \ref Group_StdDescriptors for more information on the RMWAKEUP feature and device descr
 156:lib/lufa/LUFA/Drivers/USB/Core/AVR8/../AVR8/Device_AVR8.h **** 			 */
 157:lib/lufa/LUFA/Drivers/USB/Core/AVR8/../AVR8/Device_AVR8.h **** 			void USB_Device_SendRemoteWakeup(void);
 158:lib/lufa/LUFA/Drivers/USB/Core/AVR8/../AVR8/Device_AVR8.h **** 
 159:lib/lufa/LUFA/Drivers/USB/Core/AVR8/../AVR8/Device_AVR8.h **** 		/* Inline Functions: */
 160:lib/lufa/LUFA/Drivers/USB/Core/AVR8/../AVR8/Device_AVR8.h **** 			/** Returns the current USB frame number, when in device mode. Every millisecond the USB bus is 
 161:lib/lufa/LUFA/Drivers/USB/Core/AVR8/../AVR8/Device_AVR8.h **** 			 *  the frame number is incremented by one.
 162:lib/lufa/LUFA/Drivers/USB/Core/AVR8/../AVR8/Device_AVR8.h **** 			 *
 163:lib/lufa/LUFA/Drivers/USB/Core/AVR8/../AVR8/Device_AVR8.h **** 			 *  \return Current USB frame number from the USB controller.
 164:lib/lufa/LUFA/Drivers/USB/Core/AVR8/../AVR8/Device_AVR8.h **** 			 */
 165:lib/lufa/LUFA/Drivers/USB/Core/AVR8/../AVR8/Device_AVR8.h **** 			static inline uint16_t USB_Device_GetFrameNumber(void) ATTR_ALWAYS_INLINE ATTR_WARN_UNUSED_RESUL
 166:lib/lufa/LUFA/Drivers/USB/Core/AVR8/../AVR8/Device_AVR8.h **** 			static inline uint16_t USB_Device_GetFrameNumber(void)
 167:lib/lufa/LUFA/Drivers/USB/Core/AVR8/../AVR8/Device_AVR8.h **** 			{
 168:lib/lufa/LUFA/Drivers/USB/Core/AVR8/../AVR8/Device_AVR8.h **** 				return UDFNUM;
 169:lib/lufa/LUFA/Drivers/USB/Core/AVR8/../AVR8/Device_AVR8.h **** 			}
 170:lib/lufa/LUFA/Drivers/USB/Core/AVR8/../AVR8/Device_AVR8.h **** 
 171:lib/lufa/LUFA/Drivers/USB/Core/AVR8/../AVR8/Device_AVR8.h **** 			#if !defined(NO_SOF_EVENTS)
 172:lib/lufa/LUFA/Drivers/USB/Core/AVR8/../AVR8/Device_AVR8.h **** 				/** Enables the device mode Start Of Frame events. When enabled, this causes the
 173:lib/lufa/LUFA/Drivers/USB/Core/AVR8/../AVR8/Device_AVR8.h **** 				 *  \ref EVENT_USB_Device_StartOfFrame() event to fire once per millisecond, synchronized to th
 174:lib/lufa/LUFA/Drivers/USB/Core/AVR8/../AVR8/Device_AVR8.h **** 				 *  at the start of each USB frame when enumerated in device mode.
 175:lib/lufa/LUFA/Drivers/USB/Core/AVR8/../AVR8/Device_AVR8.h **** 				 *
 176:lib/lufa/LUFA/Drivers/USB/Core/AVR8/../AVR8/Device_AVR8.h **** 				 *  \note This function is not available when the \c NO_SOF_EVENTS compile time token is define
 177:lib/lufa/LUFA/Drivers/USB/Core/AVR8/../AVR8/Device_AVR8.h **** 				 */
 178:lib/lufa/LUFA/Drivers/USB/Core/AVR8/../AVR8/Device_AVR8.h **** 				static inline void USB_Device_EnableSOFEvents(void) ATTR_ALWAYS_INLINE;
 179:lib/lufa/LUFA/Drivers/USB/Core/AVR8/../AVR8/Device_AVR8.h **** 				static inline void USB_Device_EnableSOFEvents(void)
 458               		.loc 4 179 24 view .LVU123
 459               	.LBE110:
 180:lib/lufa/LUFA/Drivers/USB/Core/AVR8/../AVR8/Device_AVR8.h **** 				{
 181:lib/lufa/LUFA/Drivers/USB/Core/AVR8/../AVR8/Device_AVR8.h **** 					USB_INT_Enable(USB_INT_SOFI);
 460               		.loc 4 181 6 view .LVU124
 461               	.LBB113:
 462               	.LBB111:
 463               	.LBI111:
 464               		.file 5 "lib/lufa/LUFA/Drivers/USB/Core/AVR8/../AVR8/USBInterrupt_AVR8.h"
   1:lib/lufa/LUFA/Drivers/USB/Core/AVR8/../AVR8/USBInterrupt_AVR8.h **** /*
   2:lib/lufa/LUFA/Drivers/USB/Core/AVR8/../AVR8/USBInterrupt_AVR8.h ****              LUFA Library
   3:lib/lufa/LUFA/Drivers/USB/Core/AVR8/../AVR8/USBInterrupt_AVR8.h ****      Copyright (C) Dean Camera, 2019.
   4:lib/lufa/LUFA/Drivers/USB/Core/AVR8/../AVR8/USBInterrupt_AVR8.h **** 
   5:lib/lufa/LUFA/Drivers/USB/Core/AVR8/../AVR8/USBInterrupt_AVR8.h ****   dean [at] fourwalledcubicle [dot] com
   6:lib/lufa/LUFA/Drivers/USB/Core/AVR8/../AVR8/USBInterrupt_AVR8.h ****            www.lufa-lib.org
   7:lib/lufa/LUFA/Drivers/USB/Core/AVR8/../AVR8/USBInterrupt_AVR8.h **** */
   8:lib/lufa/LUFA/Drivers/USB/Core/AVR8/../AVR8/USBInterrupt_AVR8.h **** 
   9:lib/lufa/LUFA/Drivers/USB/Core/AVR8/../AVR8/USBInterrupt_AVR8.h **** /*
  10:lib/lufa/LUFA/Drivers/USB/Core/AVR8/../AVR8/USBInterrupt_AVR8.h ****   Copyright 2019  Dean Camera (dean [at] fourwalledcubicle [dot] com)
  11:lib/lufa/LUFA/Drivers/USB/Core/AVR8/../AVR8/USBInterrupt_AVR8.h **** 
  12:lib/lufa/LUFA/Drivers/USB/Core/AVR8/../AVR8/USBInterrupt_AVR8.h ****   Permission to use, copy, modify, distribute, and sell this
  13:lib/lufa/LUFA/Drivers/USB/Core/AVR8/../AVR8/USBInterrupt_AVR8.h ****   software and its documentation for any purpose is hereby granted
  14:lib/lufa/LUFA/Drivers/USB/Core/AVR8/../AVR8/USBInterrupt_AVR8.h ****   without fee, provided that the above copyright notice appear in
  15:lib/lufa/LUFA/Drivers/USB/Core/AVR8/../AVR8/USBInterrupt_AVR8.h ****   all copies and that both that the copyright notice and this
  16:lib/lufa/LUFA/Drivers/USB/Core/AVR8/../AVR8/USBInterrupt_AVR8.h ****   permission notice and warranty disclaimer appear in supporting
  17:lib/lufa/LUFA/Drivers/USB/Core/AVR8/../AVR8/USBInterrupt_AVR8.h ****   documentation, and that the name of the author not be used in
  18:lib/lufa/LUFA/Drivers/USB/Core/AVR8/../AVR8/USBInterrupt_AVR8.h ****   advertising or publicity pertaining to distribution of the
  19:lib/lufa/LUFA/Drivers/USB/Core/AVR8/../AVR8/USBInterrupt_AVR8.h ****   software without specific, written prior permission.
  20:lib/lufa/LUFA/Drivers/USB/Core/AVR8/../AVR8/USBInterrupt_AVR8.h **** 
  21:lib/lufa/LUFA/Drivers/USB/Core/AVR8/../AVR8/USBInterrupt_AVR8.h ****   The author disclaims all warranties with regard to this
  22:lib/lufa/LUFA/Drivers/USB/Core/AVR8/../AVR8/USBInterrupt_AVR8.h ****   software, including all implied warranties of merchantability
  23:lib/lufa/LUFA/Drivers/USB/Core/AVR8/../AVR8/USBInterrupt_AVR8.h ****   and fitness.  In no event shall the author be liable for any
  24:lib/lufa/LUFA/Drivers/USB/Core/AVR8/../AVR8/USBInterrupt_AVR8.h ****   special, indirect or consequential damages or any damages
  25:lib/lufa/LUFA/Drivers/USB/Core/AVR8/../AVR8/USBInterrupt_AVR8.h ****   whatsoever resulting from loss of use, data or profits, whether
  26:lib/lufa/LUFA/Drivers/USB/Core/AVR8/../AVR8/USBInterrupt_AVR8.h ****   in an action of contract, negligence or other tortious action,
  27:lib/lufa/LUFA/Drivers/USB/Core/AVR8/../AVR8/USBInterrupt_AVR8.h ****   arising out of or in connection with the use or performance of
  28:lib/lufa/LUFA/Drivers/USB/Core/AVR8/../AVR8/USBInterrupt_AVR8.h ****   this software.
  29:lib/lufa/LUFA/Drivers/USB/Core/AVR8/../AVR8/USBInterrupt_AVR8.h **** */
  30:lib/lufa/LUFA/Drivers/USB/Core/AVR8/../AVR8/USBInterrupt_AVR8.h **** 
  31:lib/lufa/LUFA/Drivers/USB/Core/AVR8/../AVR8/USBInterrupt_AVR8.h **** /** \file
  32:lib/lufa/LUFA/Drivers/USB/Core/AVR8/../AVR8/USBInterrupt_AVR8.h ****  *  \brief USB Controller Interrupt definitions for the AVR8 microcontrollers.
  33:lib/lufa/LUFA/Drivers/USB/Core/AVR8/../AVR8/USBInterrupt_AVR8.h ****  *
  34:lib/lufa/LUFA/Drivers/USB/Core/AVR8/../AVR8/USBInterrupt_AVR8.h ****  *  This file contains definitions required for the correct handling of low level USB service routi
  35:lib/lufa/LUFA/Drivers/USB/Core/AVR8/../AVR8/USBInterrupt_AVR8.h ****  *  from the USB controller.
  36:lib/lufa/LUFA/Drivers/USB/Core/AVR8/../AVR8/USBInterrupt_AVR8.h ****  *
  37:lib/lufa/LUFA/Drivers/USB/Core/AVR8/../AVR8/USBInterrupt_AVR8.h ****  *  \note This file should not be included directly. It is automatically included as needed by the 
  38:lib/lufa/LUFA/Drivers/USB/Core/AVR8/../AVR8/USBInterrupt_AVR8.h ****  *        dispatch header located in LUFA/Drivers/USB/USB.h.
  39:lib/lufa/LUFA/Drivers/USB/Core/AVR8/../AVR8/USBInterrupt_AVR8.h ****  */
  40:lib/lufa/LUFA/Drivers/USB/Core/AVR8/../AVR8/USBInterrupt_AVR8.h **** 
  41:lib/lufa/LUFA/Drivers/USB/Core/AVR8/../AVR8/USBInterrupt_AVR8.h **** #ifndef __USBINTERRUPT_AVR8_H__
  42:lib/lufa/LUFA/Drivers/USB/Core/AVR8/../AVR8/USBInterrupt_AVR8.h **** #define __USBINTERRUPT_AVR8_H__
  43:lib/lufa/LUFA/Drivers/USB/Core/AVR8/../AVR8/USBInterrupt_AVR8.h **** 
  44:lib/lufa/LUFA/Drivers/USB/Core/AVR8/../AVR8/USBInterrupt_AVR8.h **** 	/* Includes: */
  45:lib/lufa/LUFA/Drivers/USB/Core/AVR8/../AVR8/USBInterrupt_AVR8.h **** 		#include "../../../../Common/Common.h"
  46:lib/lufa/LUFA/Drivers/USB/Core/AVR8/../AVR8/USBInterrupt_AVR8.h **** 
  47:lib/lufa/LUFA/Drivers/USB/Core/AVR8/../AVR8/USBInterrupt_AVR8.h **** 	/* Enable C linkage for C++ Compilers: */
  48:lib/lufa/LUFA/Drivers/USB/Core/AVR8/../AVR8/USBInterrupt_AVR8.h **** 		#if defined(__cplusplus)
  49:lib/lufa/LUFA/Drivers/USB/Core/AVR8/../AVR8/USBInterrupt_AVR8.h **** 			extern "C" {
  50:lib/lufa/LUFA/Drivers/USB/Core/AVR8/../AVR8/USBInterrupt_AVR8.h **** 		#endif
  51:lib/lufa/LUFA/Drivers/USB/Core/AVR8/../AVR8/USBInterrupt_AVR8.h **** 
  52:lib/lufa/LUFA/Drivers/USB/Core/AVR8/../AVR8/USBInterrupt_AVR8.h **** 	/* Preprocessor Checks: */
  53:lib/lufa/LUFA/Drivers/USB/Core/AVR8/../AVR8/USBInterrupt_AVR8.h **** 		#if !defined(__INCLUDE_FROM_USB_DRIVER)
  54:lib/lufa/LUFA/Drivers/USB/Core/AVR8/../AVR8/USBInterrupt_AVR8.h **** 			#error Do not include this file directly. Include LUFA/Drivers/USB/USB.h instead.
  55:lib/lufa/LUFA/Drivers/USB/Core/AVR8/../AVR8/USBInterrupt_AVR8.h **** 		#endif
  56:lib/lufa/LUFA/Drivers/USB/Core/AVR8/../AVR8/USBInterrupt_AVR8.h **** 
  57:lib/lufa/LUFA/Drivers/USB/Core/AVR8/../AVR8/USBInterrupt_AVR8.h **** 	/* Private Interface - For use in library only: */
  58:lib/lufa/LUFA/Drivers/USB/Core/AVR8/../AVR8/USBInterrupt_AVR8.h **** 	#if !defined(__DOXYGEN__)
  59:lib/lufa/LUFA/Drivers/USB/Core/AVR8/../AVR8/USBInterrupt_AVR8.h **** 		/* Enums: */
  60:lib/lufa/LUFA/Drivers/USB/Core/AVR8/../AVR8/USBInterrupt_AVR8.h **** 			enum USB_Interrupts_t
  61:lib/lufa/LUFA/Drivers/USB/Core/AVR8/../AVR8/USBInterrupt_AVR8.h **** 			{
  62:lib/lufa/LUFA/Drivers/USB/Core/AVR8/../AVR8/USBInterrupt_AVR8.h **** 				#if (defined(USB_SERIES_4_AVR) || defined(USB_SERIES_6_AVR) || defined(USB_SERIES_7_AVR) || def
  63:lib/lufa/LUFA/Drivers/USB/Core/AVR8/../AVR8/USBInterrupt_AVR8.h **** 				USB_INT_VBUSTI  = 0,
  64:lib/lufa/LUFA/Drivers/USB/Core/AVR8/../AVR8/USBInterrupt_AVR8.h **** 				#endif
  65:lib/lufa/LUFA/Drivers/USB/Core/AVR8/../AVR8/USBInterrupt_AVR8.h **** 				#if (defined(USB_CAN_BE_BOTH) || defined(__DOXYGEN__))
  66:lib/lufa/LUFA/Drivers/USB/Core/AVR8/../AVR8/USBInterrupt_AVR8.h **** 				USB_INT_IDTI    = 1,
  67:lib/lufa/LUFA/Drivers/USB/Core/AVR8/../AVR8/USBInterrupt_AVR8.h **** 				#endif
  68:lib/lufa/LUFA/Drivers/USB/Core/AVR8/../AVR8/USBInterrupt_AVR8.h **** 				#if (defined(USB_CAN_BE_DEVICE) || defined(__DOXYGEN__))
  69:lib/lufa/LUFA/Drivers/USB/Core/AVR8/../AVR8/USBInterrupt_AVR8.h **** 				USB_INT_WAKEUPI = 2,
  70:lib/lufa/LUFA/Drivers/USB/Core/AVR8/../AVR8/USBInterrupt_AVR8.h **** 				USB_INT_SUSPI   = 3,
  71:lib/lufa/LUFA/Drivers/USB/Core/AVR8/../AVR8/USBInterrupt_AVR8.h **** 				USB_INT_EORSTI  = 4,
  72:lib/lufa/LUFA/Drivers/USB/Core/AVR8/../AVR8/USBInterrupt_AVR8.h **** 				USB_INT_SOFI    = 5,
  73:lib/lufa/LUFA/Drivers/USB/Core/AVR8/../AVR8/USBInterrupt_AVR8.h **** 				USB_INT_RXSTPI  = 6,
  74:lib/lufa/LUFA/Drivers/USB/Core/AVR8/../AVR8/USBInterrupt_AVR8.h **** 				#endif
  75:lib/lufa/LUFA/Drivers/USB/Core/AVR8/../AVR8/USBInterrupt_AVR8.h **** 				#if (defined(USB_CAN_BE_HOST) || defined(__DOXYGEN__))
  76:lib/lufa/LUFA/Drivers/USB/Core/AVR8/../AVR8/USBInterrupt_AVR8.h **** 				USB_INT_HSOFI   = 7,
  77:lib/lufa/LUFA/Drivers/USB/Core/AVR8/../AVR8/USBInterrupt_AVR8.h **** 				USB_INT_DCONNI  = 8,
  78:lib/lufa/LUFA/Drivers/USB/Core/AVR8/../AVR8/USBInterrupt_AVR8.h **** 				USB_INT_DDISCI  = 9,
  79:lib/lufa/LUFA/Drivers/USB/Core/AVR8/../AVR8/USBInterrupt_AVR8.h **** 				USB_INT_RSTI    = 10,
  80:lib/lufa/LUFA/Drivers/USB/Core/AVR8/../AVR8/USBInterrupt_AVR8.h **** 				USB_INT_BCERRI  = 11,
  81:lib/lufa/LUFA/Drivers/USB/Core/AVR8/../AVR8/USBInterrupt_AVR8.h **** 				USB_INT_VBERRI  = 12,
  82:lib/lufa/LUFA/Drivers/USB/Core/AVR8/../AVR8/USBInterrupt_AVR8.h **** 				USB_INT_SRPI    = 13,
  83:lib/lufa/LUFA/Drivers/USB/Core/AVR8/../AVR8/USBInterrupt_AVR8.h **** 				#endif
  84:lib/lufa/LUFA/Drivers/USB/Core/AVR8/../AVR8/USBInterrupt_AVR8.h **** 			};
  85:lib/lufa/LUFA/Drivers/USB/Core/AVR8/../AVR8/USBInterrupt_AVR8.h **** 
  86:lib/lufa/LUFA/Drivers/USB/Core/AVR8/../AVR8/USBInterrupt_AVR8.h **** 		/* Inline Functions: */
  87:lib/lufa/LUFA/Drivers/USB/Core/AVR8/../AVR8/USBInterrupt_AVR8.h **** 			static inline void USB_INT_Enable(const uint8_t Interrupt) ATTR_ALWAYS_INLINE;
  88:lib/lufa/LUFA/Drivers/USB/Core/AVR8/../AVR8/USBInterrupt_AVR8.h **** 			static inline void USB_INT_Enable(const uint8_t Interrupt)
 465               		.loc 5 88 23 view .LVU125
 466               	.LBB112:
  89:lib/lufa/LUFA/Drivers/USB/Core/AVR8/../AVR8/USBInterrupt_AVR8.h **** 			{
  90:lib/lufa/LUFA/Drivers/USB/Core/AVR8/../AVR8/USBInterrupt_AVR8.h **** 				switch (Interrupt)
 467               		.loc 5 90 5 view .LVU126
  91:lib/lufa/LUFA/Drivers/USB/Core/AVR8/../AVR8/USBInterrupt_AVR8.h **** 				{
  92:lib/lufa/LUFA/Drivers/USB/Core/AVR8/../AVR8/USBInterrupt_AVR8.h **** 					#if (defined(USB_SERIES_4_AVR) || defined(USB_SERIES_6_AVR) || defined(USB_SERIES_7_AVR))
  93:lib/lufa/LUFA/Drivers/USB/Core/AVR8/../AVR8/USBInterrupt_AVR8.h **** 					case USB_INT_VBUSTI:
  94:lib/lufa/LUFA/Drivers/USB/Core/AVR8/../AVR8/USBInterrupt_AVR8.h **** 						USBCON |= (1 << VBUSTE);
  95:lib/lufa/LUFA/Drivers/USB/Core/AVR8/../AVR8/USBInterrupt_AVR8.h **** 						break;
  96:lib/lufa/LUFA/Drivers/USB/Core/AVR8/../AVR8/USBInterrupt_AVR8.h **** 					#endif
  97:lib/lufa/LUFA/Drivers/USB/Core/AVR8/../AVR8/USBInterrupt_AVR8.h **** 					#if defined(USB_CAN_BE_BOTH)
  98:lib/lufa/LUFA/Drivers/USB/Core/AVR8/../AVR8/USBInterrupt_AVR8.h **** 					case USB_INT_IDTI:
  99:lib/lufa/LUFA/Drivers/USB/Core/AVR8/../AVR8/USBInterrupt_AVR8.h **** 						USBCON |= (1 << IDTE);
 100:lib/lufa/LUFA/Drivers/USB/Core/AVR8/../AVR8/USBInterrupt_AVR8.h **** 						break;
 101:lib/lufa/LUFA/Drivers/USB/Core/AVR8/../AVR8/USBInterrupt_AVR8.h **** 					#endif
 102:lib/lufa/LUFA/Drivers/USB/Core/AVR8/../AVR8/USBInterrupt_AVR8.h **** 					#if defined(USB_CAN_BE_DEVICE)
 103:lib/lufa/LUFA/Drivers/USB/Core/AVR8/../AVR8/USBInterrupt_AVR8.h **** 					case USB_INT_WAKEUPI:
 104:lib/lufa/LUFA/Drivers/USB/Core/AVR8/../AVR8/USBInterrupt_AVR8.h **** 						UDIEN  |= (1 << WAKEUPE);
 105:lib/lufa/LUFA/Drivers/USB/Core/AVR8/../AVR8/USBInterrupt_AVR8.h **** 						break;
 106:lib/lufa/LUFA/Drivers/USB/Core/AVR8/../AVR8/USBInterrupt_AVR8.h **** 					case USB_INT_SUSPI:
 107:lib/lufa/LUFA/Drivers/USB/Core/AVR8/../AVR8/USBInterrupt_AVR8.h **** 						UDIEN  |= (1 << SUSPE);
 108:lib/lufa/LUFA/Drivers/USB/Core/AVR8/../AVR8/USBInterrupt_AVR8.h **** 						break;
 109:lib/lufa/LUFA/Drivers/USB/Core/AVR8/../AVR8/USBInterrupt_AVR8.h **** 					case USB_INT_EORSTI:
 110:lib/lufa/LUFA/Drivers/USB/Core/AVR8/../AVR8/USBInterrupt_AVR8.h **** 						UDIEN  |= (1 << EORSTE);
 111:lib/lufa/LUFA/Drivers/USB/Core/AVR8/../AVR8/USBInterrupt_AVR8.h **** 						break;
 112:lib/lufa/LUFA/Drivers/USB/Core/AVR8/../AVR8/USBInterrupt_AVR8.h **** 					case USB_INT_SOFI:
 113:lib/lufa/LUFA/Drivers/USB/Core/AVR8/../AVR8/USBInterrupt_AVR8.h **** 						UDIEN  |= (1 << SOFE);
 468               		.loc 5 113 7 view .LVU127
 469               		.loc 5 113 14 is_stmt 0 view .LVU128
 470 0010 8091 E200 		lds r24,226
 471 0014 8460      		ori r24,lo8(4)
 472 0016 8093 E200 		sts 226,r24
 114:lib/lufa/LUFA/Drivers/USB/Core/AVR8/../AVR8/USBInterrupt_AVR8.h **** 						break;
 473               		.loc 5 114 7 is_stmt 1 view .LVU129
 474               	.LVL36:
 475               	.L34:
 476               	/* epilogue start */
 477               		.loc 5 114 7 is_stmt 0 view .LVU130
 478               	.LBE112:
 479               	.LBE111:
 480               	.LBE113:
 396:tmk_core/protocol/lufa/lufa.c **** 
 481               		.loc 1 396 1 view .LVU131
 482 001a 0895      		ret
 483               		.cfi_endproc
 484               	.LFE123:
 486               		.section	.text.EVENT_USB_Device_Disconnect,"ax",@progbits
 487               	.global	EVENT_USB_Device_Disconnect
 489               	EVENT_USB_Device_Disconnect:
 490               	.LFB124:
 402:tmk_core/protocol/lufa/lufa.c ****     print("[D]");
 491               		.loc 1 402 40 is_stmt 1 view -0
 492               		.cfi_startproc
 493               	/* prologue: function */
 494               	/* frame size = 0 */
 495               	/* stack size = 0 */
 496               	.L__stack_usage = 0
 403:tmk_core/protocol/lufa/lufa.c ****     /* For battery powered device */
 497               		.loc 1 403 17 view .LVU133
 405:tmk_core/protocol/lufa/lufa.c ****     /* TODO: This doesn't work. After several plug in/outs can not be enumerated.
 498               		.loc 1 405 5 view .LVU134
 405:tmk_core/protocol/lufa/lufa.c ****     /* TODO: This doesn't work. After several plug in/outs can not be enumerated.
 499               		.loc 1 405 23 is_stmt 0 view .LVU135
 500 0000 1092 0000 		sts USB_IsInitialized,__zero_reg__
 501               	/* epilogue start */
 413:tmk_core/protocol/lufa/lufa.c **** 
 502               		.loc 1 413 1 view .LVU136
 503 0004 0895      		ret
 504               		.cfi_endproc
 505               	.LFE124:
 507               		.section	.text.EVENT_USB_Device_Reset,"ax",@progbits
 508               	.global	EVENT_USB_Device_Reset
 510               	EVENT_USB_Device_Reset:
 511               	.LFB141:
 512               		.cfi_startproc
 513               	/* prologue: function */
 514               	/* frame size = 0 */
 515               	/* stack size = 0 */
 516               	.L__stack_usage = 0
 517               	/* epilogue start */
 518 0000 0895      		ret
 519               		.cfi_endproc
 520               	.LFE141:
 522               		.section	.text.EVENT_USB_Device_Suspend,"ax",@progbits
 523               	.global	EVENT_USB_Device_Suspend
 525               	EVENT_USB_Device_Suspend:
 526               	.LFB126:
 425:tmk_core/protocol/lufa/lufa.c ****     print("[S]");
 527               		.loc 1 425 33 is_stmt 1 view -0
 528               		.cfi_startproc
 529               	/* prologue: function */
 530               	/* frame size = 0 */
 531               	/* stack size = 0 */
 532               	.L__stack_usage = 0
 426:tmk_core/protocol/lufa/lufa.c **** #ifdef SLEEP_LED_ENABLE
 533               		.loc 1 426 17 view .LVU138
 534               	/* epilogue start */
 430:tmk_core/protocol/lufa/lufa.c **** 
 535               		.loc 1 430 1 is_stmt 0 view .LVU139
 536 0000 0895      		ret
 537               		.cfi_endproc
 538               	.LFE126:
 540               		.section	.text.EVENT_USB_Device_WakeUp,"ax",@progbits
 541               	.global	EVENT_USB_Device_WakeUp
 543               	EVENT_USB_Device_WakeUp:
 544               	.LFB127:
 436:tmk_core/protocol/lufa/lufa.c ****     print("[W]");
 545               		.loc 1 436 32 is_stmt 1 view -0
 546               		.cfi_startproc
 547               	/* prologue: function */
 548               	/* frame size = 0 */
 549               	/* stack size = 0 */
 550               	.L__stack_usage = 0
 437:tmk_core/protocol/lufa/lufa.c ****     suspend_wakeup_init();
 551               		.loc 1 437 17 view .LVU141
 438:tmk_core/protocol/lufa/lufa.c **** 
 552               		.loc 1 438 5 view .LVU142
 553 0000 0C94 0000 		jmp suspend_wakeup_init
 554               	.LVL37:
 555               		.cfi_endproc
 556               	.LFE127:
 558               		.section	.text.EVENT_USB_Device_ConfigurationChanged,"ax",@progbits
 559               	.global	EVENT_USB_Device_ConfigurationChanged
 561               	EVENT_USB_Device_ConfigurationChanged:
 562               	.LFB128:
 478:tmk_core/protocol/lufa/lufa.c ****     bool ConfigSuccess = true;
 563               		.loc 1 478 50 view -0
 564               		.cfi_startproc
 565               	/* prologue: function */
 566               	/* frame size = 0 */
 567               	/* stack size = 0 */
 568               	.L__stack_usage = 0
 479:tmk_core/protocol/lufa/lufa.c **** 
 569               		.loc 1 479 5 view .LVU144
 570               	.LVL38:
 483:tmk_core/protocol/lufa/lufa.c **** #endif
 571               		.loc 1 483 5 view .LVU145
 572               	.LBB114:
 573               	.LBI114:
 200:lib/lufa/LUFA/Drivers/USB/Core/AVR8/../AVR8/Endpoint_AVR8.h **** 			                                              const uint8_t Type,
 574               		.loc 2 200 23 view .LVU146
 575               	.LBB115:
 205:lib/lufa/LUFA/Drivers/USB/Core/AVR8/../AVR8/Endpoint_AVR8.h **** 
 576               		.loc 2 205 5 view .LVU147
 207:lib/lufa/LUFA/Drivers/USB/Core/AVR8/../AVR8/Endpoint_AVR8.h **** 				  return false;
 577               		.loc 2 207 5 view .LVU148
 210:lib/lufa/LUFA/Drivers/USB/Core/AVR8/../AVR8/Endpoint_AVR8.h **** 				                                      ((Type << EPTYPE0) | ((Address & ENDPOINT_DIR_IN) ? (1 <<
 578               		.loc 2 210 5 view .LVU149
 210:lib/lufa/LUFA/Drivers/USB/Core/AVR8/../AVR8/Endpoint_AVR8.h **** 				                                      ((Type << EPTYPE0) | ((Address & ENDPOINT_DIR_IN) ? (1 <<
 579               		.loc 2 210 5 is_stmt 0 view .LVU150
 580               	.LBE115:
 581               	.LBE114:
  97:lib/lufa/LUFA/Drivers/USB/Core/AVR8/../AVR8/Endpoint_AVR8.h **** 				uint16_t CheckBytes = 8;
 582               		.loc 2 97 5 is_stmt 1 view .LVU151
  98:lib/lufa/LUFA/Drivers/USB/Core/AVR8/../AVR8/Endpoint_AVR8.h **** 
 583               		.loc 2 98 5 view .LVU152
 100:lib/lufa/LUFA/Drivers/USB/Core/AVR8/../AVR8/Endpoint_AVR8.h **** 				{
 584               		.loc 2 100 5 view .LVU153
 100:lib/lufa/LUFA/Drivers/USB/Core/AVR8/../AVR8/Endpoint_AVR8.h **** 				{
 585               		.loc 2 100 11 view .LVU154
 106:lib/lufa/LUFA/Drivers/USB/Core/AVR8/../AVR8/Endpoint_AVR8.h **** 			}
 586               		.loc 2 106 5 view .LVU155
 587               	.LBB117:
 588               	.LBB116:
 210:lib/lufa/LUFA/Drivers/USB/Core/AVR8/../AVR8/Endpoint_AVR8.h **** 				                                      ((Type << EPTYPE0) | ((Address & ENDPOINT_DIR_IN) ? (1 <<
 589               		.loc 2 210 12 is_stmt 0 view .LVU156
 590 0000 42E0      		ldi r20,lo8(2)
 591 0002 61EC      		ldi r22,lo8(-63)
 592 0004 81E0      		ldi r24,lo8(1)
 593 0006 0E94 0000 		call Endpoint_ConfigureEndpoint_Prv
 594               	.LVL39:
 210:lib/lufa/LUFA/Drivers/USB/Core/AVR8/../AVR8/Endpoint_AVR8.h **** 				                                      ((Type << EPTYPE0) | ((Address & ENDPOINT_DIR_IN) ? (1 <<
 595               		.loc 2 210 12 view .LVU157
 596               	.LBE116:
 597               	.LBE117:
 493:tmk_core/protocol/lufa/lufa.c **** #endif
 598               		.loc 1 493 5 is_stmt 1 view .LVU158
 599               	.LBB118:
 600               	.LBI118:
 200:lib/lufa/LUFA/Drivers/USB/Core/AVR8/../AVR8/Endpoint_AVR8.h **** 			                                              const uint8_t Type,
 601               		.loc 2 200 23 view .LVU159
 602               	.LBB119:
 205:lib/lufa/LUFA/Drivers/USB/Core/AVR8/../AVR8/Endpoint_AVR8.h **** 
 603               		.loc 2 205 5 view .LVU160
 207:lib/lufa/LUFA/Drivers/USB/Core/AVR8/../AVR8/Endpoint_AVR8.h **** 				  return false;
 604               		.loc 2 207 5 view .LVU161
 207:lib/lufa/LUFA/Drivers/USB/Core/AVR8/../AVR8/Endpoint_AVR8.h **** 				  return false;
 605               		.loc 2 207 5 is_stmt 0 view .LVU162
 606               	.LBE119:
 607               	.LBE118:
 100:lib/lufa/LUFA/Drivers/USB/Core/AVR8/../AVR8/Endpoint_AVR8.h **** 				{
 608               		.loc 2 100 11 is_stmt 1 view .LVU163
 102:lib/lufa/LUFA/Drivers/USB/Core/AVR8/../AVR8/Endpoint_AVR8.h **** 					CheckBytes <<= 1;
 609               		.loc 2 102 6 view .LVU164
 103:lib/lufa/LUFA/Drivers/USB/Core/AVR8/../AVR8/Endpoint_AVR8.h **** 				}
 610               		.loc 2 103 6 view .LVU165
 100:lib/lufa/LUFA/Drivers/USB/Core/AVR8/../AVR8/Endpoint_AVR8.h **** 				{
 611               		.loc 2 100 11 view .LVU166
 102:lib/lufa/LUFA/Drivers/USB/Core/AVR8/../AVR8/Endpoint_AVR8.h **** 					CheckBytes <<= 1;
 612               		.loc 2 102 6 view .LVU167
 103:lib/lufa/LUFA/Drivers/USB/Core/AVR8/../AVR8/Endpoint_AVR8.h **** 				}
 613               		.loc 2 103 6 view .LVU168
 100:lib/lufa/LUFA/Drivers/USB/Core/AVR8/../AVR8/Endpoint_AVR8.h **** 				{
 614               		.loc 2 100 11 view .LVU169
 106:lib/lufa/LUFA/Drivers/USB/Core/AVR8/../AVR8/Endpoint_AVR8.h **** 			}
 615               		.loc 2 106 5 view .LVU170
 616               	.LBB121:
 617               	.LBB120:
 210:lib/lufa/LUFA/Drivers/USB/Core/AVR8/../AVR8/Endpoint_AVR8.h **** 				                                      ((Type << EPTYPE0) | ((Address & ENDPOINT_DIR_IN) ? (1 <<
 618               		.loc 2 210 12 is_stmt 0 view .LVU171
 619 000a 42E2      		ldi r20,lo8(34)
 620 000c 61EC      		ldi r22,lo8(-63)
 621 000e 82E0      		ldi r24,lo8(2)
 622 0010 0C94 0000 		jmp Endpoint_ConfigureEndpoint_Prv
 623               	.LVL40:
 624               	.LBE120:
 625               	.LBE121:
 626               		.cfi_endproc
 627               	.LFE128:
 629               		.section	.text.EVENT_USB_Device_ControlRequest,"ax",@progbits
 630               	.global	EVENT_USB_Device_ControlRequest
 632               	EVENT_USB_Device_ControlRequest:
 633               	.LFB129:
 546:tmk_core/protocol/lufa/lufa.c ****     uint8_t *ReportData = NULL;
 634               		.loc 1 546 44 is_stmt 1 view -0
 635               		.cfi_startproc
 636               	/* prologue: function */
 637               	/* frame size = 0 */
 638               	/* stack size = 0 */
 639               	.L__stack_usage = 0
 547:tmk_core/protocol/lufa/lufa.c ****     uint8_t  ReportSize = 0;
 640               		.loc 1 547 5 view .LVU173
 641               	.LVL41:
 548:tmk_core/protocol/lufa/lufa.c **** 
 642               		.loc 1 548 5 view .LVU174
 551:tmk_core/protocol/lufa/lufa.c ****         case HID_REQ_GetReport:
 643               		.loc 1 551 5 view .LVU175
 551:tmk_core/protocol/lufa/lufa.c ****         case HID_REQ_GetReport:
 644               		.loc 1 551 31 is_stmt 0 view .LVU176
 645 0000 8091 0000 		lds r24,USB_ControlRequest+1
 551:tmk_core/protocol/lufa/lufa.c ****         case HID_REQ_GetReport:
 646               		.loc 1 551 5 view .LVU177
 647 0004 8330      		cpi r24,lo8(3)
 648 0006 01F4      		brne .+2
 649 0008 00C0      		rjmp .L42
 650 000a 00F4      		brsh .L43
 651 000c 8130      		cpi r24,lo8(1)
 652 000e 01F0      		breq .L44
 653 0010 8230      		cpi r24,lo8(2)
 654 0012 01F4      		brne .+2
 655 0014 00C0      		rjmp .L45
 656 0016 0895      		ret
 657               	.L43:
 658 0018 8A30      		cpi r24,lo8(10)
 659 001a 01F4      		brne .+2
 660 001c 00C0      		rjmp .L47
 661 001e 8B30      		cpi r24,lo8(11)
 662 0020 01F4      		brne .+2
 663 0022 00C0      		rjmp .L48
 664 0024 8930      		cpi r24,lo8(9)
 665 0026 01F0      		breq .+2
 666 0028 00C0      		rjmp .L41
 572:tmk_core/protocol/lufa/lufa.c ****                 // Interface
 667               		.loc 1 572 13 is_stmt 1 view .LVU178
 572:tmk_core/protocol/lufa/lufa.c ****                 // Interface
 668               		.loc 1 572 16 is_stmt 0 view .LVU179
 669 002a 8091 0000 		lds r24,USB_ControlRequest
 670 002e 8132      		cpi r24,lo8(33)
 671 0030 01F0      		breq .+2
 672 0032 00C0      		rjmp .L41
 574:tmk_core/protocol/lufa/lufa.c ****                     case KEYBOARD_INTERFACE:
 673               		.loc 1 574 17 is_stmt 1 view .LVU180
 674 0034 8091 0000 		lds r24,USB_ControlRequest+4
 675 0038 9091 0000 		lds r25,USB_ControlRequest+4+1
 676 003c 0297      		sbiw r24,2
 677 003e 00F0      		brlo .+2
 678 0040 00C0      		rjmp .L41
 579:tmk_core/protocol/lufa/lufa.c **** 
 679               		.loc 1 579 25 view .LVU181
 680               	.LBB122:
 681               	.LBI122:
 442:lib/lufa/LUFA/Drivers/USB/Core/AVR8/../AVR8/Endpoint_AVR8.h **** 			{
 682               		.loc 2 442 23 view .LVU182
 683               	.LBB123:
 444:lib/lufa/LUFA/Drivers/USB/Core/AVR8/../AVR8/Endpoint_AVR8.h **** 			}
 684               		.loc 2 444 5 view .LVU183
 444:lib/lufa/LUFA/Drivers/USB/Core/AVR8/../AVR8/Endpoint_AVR8.h **** 			}
 685               		.loc 2 444 12 is_stmt 0 view .LVU184
 686 0042 8091 E800 		lds r24,232
 687 0046 877F      		andi r24,lo8(-9)
 688 0048 8093 E800 		sts 232,r24
 689               	.L53:
 690               	.LBE123:
 691               	.LBE122:
 581:tmk_core/protocol/lufa/lufa.c ****                             if (USB_DeviceState == DEVICE_STATE_Unattached) return;
 692               		.loc 1 581 31 is_stmt 1 view .LVU185
 693               	.LBB124:
 694               	.LBI124:
 417:lib/lufa/LUFA/Drivers/USB/Core/AVR8/../AVR8/Endpoint_AVR8.h **** 			{
 695               		.loc 2 417 23 view .LVU186
 696               	.LBB125:
 419:lib/lufa/LUFA/Drivers/USB/Core/AVR8/../AVR8/Endpoint_AVR8.h **** 			}
 697               		.loc 2 419 5 view .LVU187
 419:lib/lufa/LUFA/Drivers/USB/Core/AVR8/../AVR8/Endpoint_AVR8.h **** 			}
 698               		.loc 2 419 14 is_stmt 0 view .LVU188
 699 004c 8091 E800 		lds r24,232
 700               	.LBE125:
 701               	.LBE124:
 581:tmk_core/protocol/lufa/lufa.c ****                             if (USB_DeviceState == DEVICE_STATE_Unattached) return;
 702               		.loc 1 581 31 view .LVU189
 703 0050 82FF      		sbrs r24,2
 704 0052 00C0      		rjmp .L54
 585:tmk_core/protocol/lufa/lufa.c ****                             uint8_t report_id = Endpoint_Read_8();
 705               		.loc 1 585 25 is_stmt 1 view .LVU190
 706               	.LBB126:
 707               	.LBI126:
 222:lib/lufa/LUFA/Drivers/USB/Core/AVR8/../AVR8/Endpoint_AVR8.h **** 			{
 708               		.loc 2 222 27 view .LVU191
 709               	.LBB127:
 227:lib/lufa/LUFA/Drivers/USB/Core/AVR8/../AVR8/Endpoint_AVR8.h **** 				#elif defined(USB_SERIES_2_AVR)
 710               		.loc 2 227 6 view .LVU192
 227:lib/lufa/LUFA/Drivers/USB/Core/AVR8/../AVR8/Endpoint_AVR8.h **** 				#elif defined(USB_SERIES_2_AVR)
 711               		.loc 2 227 25 is_stmt 0 view .LVU193
 712 0054 9091 F300 		lds r25,243
 227:lib/lufa/LUFA/Drivers/USB/Core/AVR8/../AVR8/Endpoint_AVR8.h **** 				#elif defined(USB_SERIES_2_AVR)
 713               		.loc 2 227 40 view .LVU194
 714 0058 8091 F200 		lds r24,242
 715               	.LBE127:
 716               	.LBE126:
 585:tmk_core/protocol/lufa/lufa.c ****                             uint8_t report_id = Endpoint_Read_8();
 717               		.loc 1 585 28 view .LVU195
 718 005c 0297      		sbiw r24,2
 719 005e 01F4      		brne .L55
 720               	.LBB128:
 586:tmk_core/protocol/lufa/lufa.c **** 
 721               		.loc 1 586 29 is_stmt 1 view .LVU196
 722               	.LBB129:
 723               	.LBI129:
 457:lib/lufa/LUFA/Drivers/USB/Core/AVR8/../AVR8/Endpoint_AVR8.h **** 				#else
 458:lib/lufa/LUFA/Drivers/USB/Core/AVR8/../AVR8/Endpoint_AVR8.h **** 					UEINTX &= ~(1 << TXINI);
 459:lib/lufa/LUFA/Drivers/USB/Core/AVR8/../AVR8/Endpoint_AVR8.h **** 				#endif
 460:lib/lufa/LUFA/Drivers/USB/Core/AVR8/../AVR8/Endpoint_AVR8.h **** 			}
 461:lib/lufa/LUFA/Drivers/USB/Core/AVR8/../AVR8/Endpoint_AVR8.h **** 
 462:lib/lufa/LUFA/Drivers/USB/Core/AVR8/../AVR8/Endpoint_AVR8.h **** 			/** Acknowledges an OUT packet to the host on the currently selected endpoint, freeing up the en
 463:lib/lufa/LUFA/Drivers/USB/Core/AVR8/../AVR8/Endpoint_AVR8.h **** 			 *  for the next packet and switching to the alternative endpoint bank if double banked.
 464:lib/lufa/LUFA/Drivers/USB/Core/AVR8/../AVR8/Endpoint_AVR8.h **** 			 *
 465:lib/lufa/LUFA/Drivers/USB/Core/AVR8/../AVR8/Endpoint_AVR8.h **** 			 *  \ingroup Group_EndpointPacketManagement_AVR8
 466:lib/lufa/LUFA/Drivers/USB/Core/AVR8/../AVR8/Endpoint_AVR8.h **** 			 */
 467:lib/lufa/LUFA/Drivers/USB/Core/AVR8/../AVR8/Endpoint_AVR8.h **** 			static inline void Endpoint_ClearOUT(void) ATTR_ALWAYS_INLINE;
 468:lib/lufa/LUFA/Drivers/USB/Core/AVR8/../AVR8/Endpoint_AVR8.h **** 			static inline void Endpoint_ClearOUT(void)
 469:lib/lufa/LUFA/Drivers/USB/Core/AVR8/../AVR8/Endpoint_AVR8.h **** 			{
 470:lib/lufa/LUFA/Drivers/USB/Core/AVR8/../AVR8/Endpoint_AVR8.h **** 				#if !defined(CONTROL_ONLY_DEVICE)
 471:lib/lufa/LUFA/Drivers/USB/Core/AVR8/../AVR8/Endpoint_AVR8.h **** 					UEINTX &= ~((1 << RXOUTI) | (1 << FIFOCON));
 472:lib/lufa/LUFA/Drivers/USB/Core/AVR8/../AVR8/Endpoint_AVR8.h **** 				#else
 473:lib/lufa/LUFA/Drivers/USB/Core/AVR8/../AVR8/Endpoint_AVR8.h **** 					UEINTX &= ~(1 << RXOUTI);
 474:lib/lufa/LUFA/Drivers/USB/Core/AVR8/../AVR8/Endpoint_AVR8.h **** 				#endif
 475:lib/lufa/LUFA/Drivers/USB/Core/AVR8/../AVR8/Endpoint_AVR8.h **** 			}
 476:lib/lufa/LUFA/Drivers/USB/Core/AVR8/../AVR8/Endpoint_AVR8.h **** 
 477:lib/lufa/LUFA/Drivers/USB/Core/AVR8/../AVR8/Endpoint_AVR8.h **** 			/** Stalls the current endpoint, indicating to the host that a logical problem occurred with the
 478:lib/lufa/LUFA/Drivers/USB/Core/AVR8/../AVR8/Endpoint_AVR8.h **** 			 *  indicated endpoint and that the current transfer sequence should be aborted. This provides a
 479:lib/lufa/LUFA/Drivers/USB/Core/AVR8/../AVR8/Endpoint_AVR8.h **** 			 *  way for devices to indicate invalid commands to the host so that the current transfer can be
 480:lib/lufa/LUFA/Drivers/USB/Core/AVR8/../AVR8/Endpoint_AVR8.h **** 			 *  aborted and the host can begin its own recovery sequence.
 481:lib/lufa/LUFA/Drivers/USB/Core/AVR8/../AVR8/Endpoint_AVR8.h **** 			 *
 482:lib/lufa/LUFA/Drivers/USB/Core/AVR8/../AVR8/Endpoint_AVR8.h **** 			 *  The currently selected endpoint remains stalled until either the \ref Endpoint_ClearStall() 
 483:lib/lufa/LUFA/Drivers/USB/Core/AVR8/../AVR8/Endpoint_AVR8.h **** 			 *  is called, or the host issues a CLEAR FEATURE request to the device for the currently select
 484:lib/lufa/LUFA/Drivers/USB/Core/AVR8/../AVR8/Endpoint_AVR8.h **** 			 *  endpoint.
 485:lib/lufa/LUFA/Drivers/USB/Core/AVR8/../AVR8/Endpoint_AVR8.h **** 			 *
 486:lib/lufa/LUFA/Drivers/USB/Core/AVR8/../AVR8/Endpoint_AVR8.h **** 			 *  \ingroup Group_EndpointPacketManagement_AVR8
 487:lib/lufa/LUFA/Drivers/USB/Core/AVR8/../AVR8/Endpoint_AVR8.h **** 			 */
 488:lib/lufa/LUFA/Drivers/USB/Core/AVR8/../AVR8/Endpoint_AVR8.h **** 			static inline void Endpoint_StallTransaction(void) ATTR_ALWAYS_INLINE;
 489:lib/lufa/LUFA/Drivers/USB/Core/AVR8/../AVR8/Endpoint_AVR8.h **** 			static inline void Endpoint_StallTransaction(void)
 490:lib/lufa/LUFA/Drivers/USB/Core/AVR8/../AVR8/Endpoint_AVR8.h **** 			{
 491:lib/lufa/LUFA/Drivers/USB/Core/AVR8/../AVR8/Endpoint_AVR8.h **** 				UECONX |= (1 << STALLRQ);
 492:lib/lufa/LUFA/Drivers/USB/Core/AVR8/../AVR8/Endpoint_AVR8.h **** 			}
 493:lib/lufa/LUFA/Drivers/USB/Core/AVR8/../AVR8/Endpoint_AVR8.h **** 
 494:lib/lufa/LUFA/Drivers/USB/Core/AVR8/../AVR8/Endpoint_AVR8.h **** 			/** Clears the STALL condition on the currently selected endpoint.
 495:lib/lufa/LUFA/Drivers/USB/Core/AVR8/../AVR8/Endpoint_AVR8.h **** 			 *
 496:lib/lufa/LUFA/Drivers/USB/Core/AVR8/../AVR8/Endpoint_AVR8.h **** 			 *  \ingroup Group_EndpointPacketManagement_AVR8
 497:lib/lufa/LUFA/Drivers/USB/Core/AVR8/../AVR8/Endpoint_AVR8.h **** 			 */
 498:lib/lufa/LUFA/Drivers/USB/Core/AVR8/../AVR8/Endpoint_AVR8.h **** 			static inline void Endpoint_ClearStall(void) ATTR_ALWAYS_INLINE;
 499:lib/lufa/LUFA/Drivers/USB/Core/AVR8/../AVR8/Endpoint_AVR8.h **** 			static inline void Endpoint_ClearStall(void)
 500:lib/lufa/LUFA/Drivers/USB/Core/AVR8/../AVR8/Endpoint_AVR8.h **** 			{
 501:lib/lufa/LUFA/Drivers/USB/Core/AVR8/../AVR8/Endpoint_AVR8.h **** 				UECONX |= (1 << STALLRQC);
 502:lib/lufa/LUFA/Drivers/USB/Core/AVR8/../AVR8/Endpoint_AVR8.h **** 			}
 503:lib/lufa/LUFA/Drivers/USB/Core/AVR8/../AVR8/Endpoint_AVR8.h **** 
 504:lib/lufa/LUFA/Drivers/USB/Core/AVR8/../AVR8/Endpoint_AVR8.h **** 			/** Determines if the currently selected endpoint is stalled, \c false otherwise.
 505:lib/lufa/LUFA/Drivers/USB/Core/AVR8/../AVR8/Endpoint_AVR8.h **** 			 *
 506:lib/lufa/LUFA/Drivers/USB/Core/AVR8/../AVR8/Endpoint_AVR8.h **** 			 *  \ingroup Group_EndpointPacketManagement_AVR8
 507:lib/lufa/LUFA/Drivers/USB/Core/AVR8/../AVR8/Endpoint_AVR8.h **** 			 *
 508:lib/lufa/LUFA/Drivers/USB/Core/AVR8/../AVR8/Endpoint_AVR8.h **** 			 *  \return Boolean \c true if the currently selected endpoint is stalled, \c false otherwise.
 509:lib/lufa/LUFA/Drivers/USB/Core/AVR8/../AVR8/Endpoint_AVR8.h **** 			 */
 510:lib/lufa/LUFA/Drivers/USB/Core/AVR8/../AVR8/Endpoint_AVR8.h **** 			static inline bool Endpoint_IsStalled(void) ATTR_WARN_UNUSED_RESULT ATTR_ALWAYS_INLINE;
 511:lib/lufa/LUFA/Drivers/USB/Core/AVR8/../AVR8/Endpoint_AVR8.h **** 			static inline bool Endpoint_IsStalled(void)
 512:lib/lufa/LUFA/Drivers/USB/Core/AVR8/../AVR8/Endpoint_AVR8.h **** 			{
 513:lib/lufa/LUFA/Drivers/USB/Core/AVR8/../AVR8/Endpoint_AVR8.h **** 				return ((UECONX & (1 << STALLRQ)) ? true : false);
 514:lib/lufa/LUFA/Drivers/USB/Core/AVR8/../AVR8/Endpoint_AVR8.h **** 			}
 515:lib/lufa/LUFA/Drivers/USB/Core/AVR8/../AVR8/Endpoint_AVR8.h **** 
 516:lib/lufa/LUFA/Drivers/USB/Core/AVR8/../AVR8/Endpoint_AVR8.h **** 			/** Resets the data toggle of the currently selected endpoint. */
 517:lib/lufa/LUFA/Drivers/USB/Core/AVR8/../AVR8/Endpoint_AVR8.h **** 			static inline void Endpoint_ResetDataToggle(void) ATTR_ALWAYS_INLINE;
 518:lib/lufa/LUFA/Drivers/USB/Core/AVR8/../AVR8/Endpoint_AVR8.h **** 			static inline void Endpoint_ResetDataToggle(void)
 519:lib/lufa/LUFA/Drivers/USB/Core/AVR8/../AVR8/Endpoint_AVR8.h **** 			{
 520:lib/lufa/LUFA/Drivers/USB/Core/AVR8/../AVR8/Endpoint_AVR8.h **** 				UECONX |= (1 << RSTDT);
 521:lib/lufa/LUFA/Drivers/USB/Core/AVR8/../AVR8/Endpoint_AVR8.h **** 			}
 522:lib/lufa/LUFA/Drivers/USB/Core/AVR8/../AVR8/Endpoint_AVR8.h **** 
 523:lib/lufa/LUFA/Drivers/USB/Core/AVR8/../AVR8/Endpoint_AVR8.h **** 			/** Sets the direction of the currently selected endpoint.
 524:lib/lufa/LUFA/Drivers/USB/Core/AVR8/../AVR8/Endpoint_AVR8.h **** 			 *
 525:lib/lufa/LUFA/Drivers/USB/Core/AVR8/../AVR8/Endpoint_AVR8.h **** 			 *  \param[in] DirectionMask  New endpoint direction, as a \c ENDPOINT_DIR_* mask.
 526:lib/lufa/LUFA/Drivers/USB/Core/AVR8/../AVR8/Endpoint_AVR8.h **** 			 */
 527:lib/lufa/LUFA/Drivers/USB/Core/AVR8/../AVR8/Endpoint_AVR8.h **** 			static inline void Endpoint_SetEndpointDirection(const uint8_t DirectionMask) ATTR_ALWAYS_INLINE
 528:lib/lufa/LUFA/Drivers/USB/Core/AVR8/../AVR8/Endpoint_AVR8.h **** 			static inline void Endpoint_SetEndpointDirection(const uint8_t DirectionMask)
 529:lib/lufa/LUFA/Drivers/USB/Core/AVR8/../AVR8/Endpoint_AVR8.h **** 			{
 530:lib/lufa/LUFA/Drivers/USB/Core/AVR8/../AVR8/Endpoint_AVR8.h **** 				UECFG0X = ((UECFG0X & ~(1 << EPDIR)) | (DirectionMask ? (1 << EPDIR) : 0));
 531:lib/lufa/LUFA/Drivers/USB/Core/AVR8/../AVR8/Endpoint_AVR8.h **** 			}
 532:lib/lufa/LUFA/Drivers/USB/Core/AVR8/../AVR8/Endpoint_AVR8.h **** 
 533:lib/lufa/LUFA/Drivers/USB/Core/AVR8/../AVR8/Endpoint_AVR8.h **** 			/** Reads one byte from the currently selected endpoint's bank, for OUT direction endpoints.
 534:lib/lufa/LUFA/Drivers/USB/Core/AVR8/../AVR8/Endpoint_AVR8.h **** 			 *
 535:lib/lufa/LUFA/Drivers/USB/Core/AVR8/../AVR8/Endpoint_AVR8.h **** 			 *  \ingroup Group_EndpointPrimitiveRW_AVR8
 536:lib/lufa/LUFA/Drivers/USB/Core/AVR8/../AVR8/Endpoint_AVR8.h **** 			 *
 537:lib/lufa/LUFA/Drivers/USB/Core/AVR8/../AVR8/Endpoint_AVR8.h **** 			 *  \return Next byte in the currently selected endpoint's FIFO buffer.
 538:lib/lufa/LUFA/Drivers/USB/Core/AVR8/../AVR8/Endpoint_AVR8.h **** 			 */
 539:lib/lufa/LUFA/Drivers/USB/Core/AVR8/../AVR8/Endpoint_AVR8.h **** 			static inline uint8_t Endpoint_Read_8(void) ATTR_WARN_UNUSED_RESULT ATTR_ALWAYS_INLINE;
 540:lib/lufa/LUFA/Drivers/USB/Core/AVR8/../AVR8/Endpoint_AVR8.h **** 			static inline uint8_t Endpoint_Read_8(void)
 724               		.loc 2 540 26 view .LVU197
 725               	.LBB130:
 541:lib/lufa/LUFA/Drivers/USB/Core/AVR8/../AVR8/Endpoint_AVR8.h **** 			{
 542:lib/lufa/LUFA/Drivers/USB/Core/AVR8/../AVR8/Endpoint_AVR8.h **** 				return UEDATX;
 726               		.loc 2 542 5 view .LVU198
 727               		.loc 2 542 12 is_stmt 0 view .LVU199
 728 0060 8091 F100 		lds r24,241
 729               	.LVL42:
 730               		.loc 2 542 12 view .LVU200
 731               	.LBE130:
 732               	.LBE129:
 588:tmk_core/protocol/lufa/lufa.c ****                                 keyboard_led_state = Endpoint_Read_8();
 733               		.loc 1 588 29 is_stmt 1 view .LVU201
 588:tmk_core/protocol/lufa/lufa.c ****                                 keyboard_led_state = Endpoint_Read_8();
 734               		.loc 1 588 32 is_stmt 0 view .LVU202
 735 0064 8B7F      		andi r24,lo8(-5)
 736               	.LVL43:
 588:tmk_core/protocol/lufa/lufa.c ****                                 keyboard_led_state = Endpoint_Read_8();
 737               		.loc 1 588 32 view .LVU203
 738 0066 8130      		cpi r24,lo8(1)
 739 0068 01F4      		brne .L56
 740               	.L55:
 588:tmk_core/protocol/lufa/lufa.c ****                                 keyboard_led_state = Endpoint_Read_8();
 741               		.loc 1 588 32 view .LVU204
 742               	.LBE128:
 592:tmk_core/protocol/lufa/lufa.c ****                         }
 743               		.loc 1 592 29 is_stmt 1 view .LVU205
 744               	.LBB131:
 745               	.LBI131:
 540:lib/lufa/LUFA/Drivers/USB/Core/AVR8/../AVR8/Endpoint_AVR8.h **** 			{
 746               		.loc 2 540 26 view .LVU206
 747               	.LBB132:
 748               		.loc 2 542 5 view .LVU207
 749               		.loc 2 542 12 is_stmt 0 view .LVU208
 750 006a 8091 F100 		lds r24,241
 751               	.LBE132:
 752               	.LBE131:
 592:tmk_core/protocol/lufa/lufa.c ****                         }
 753               		.loc 1 592 48 view .LVU209
 754 006e 8093 0000 		sts keyboard_led_state,r24
 755               	.L56:
 595:tmk_core/protocol/lufa/lufa.c ****                         Endpoint_ClearStatusStage();
 756               		.loc 1 595 25 is_stmt 1 view .LVU210
 757               	.LBB133:
 758               	.LBI133:
 468:lib/lufa/LUFA/Drivers/USB/Core/AVR8/../AVR8/Endpoint_AVR8.h **** 			{
 759               		.loc 2 468 23 view .LVU211
 760               	.LBB134:
 471:lib/lufa/LUFA/Drivers/USB/Core/AVR8/../AVR8/Endpoint_AVR8.h **** 				#else
 761               		.loc 2 471 6 view .LVU212
 471:lib/lufa/LUFA/Drivers/USB/Core/AVR8/../AVR8/Endpoint_AVR8.h **** 				#else
 762               		.loc 2 471 13 is_stmt 0 view .LVU213
 763 0072 8091 E800 		lds r24,232
 764 0076 8B77      		andi r24,lo8(123)
 765               	.L67:
 766               	.LBE134:
 767               	.LBE133:
 768               	.LBB135:
 769               	.LBB136:
 456:lib/lufa/LUFA/Drivers/USB/Core/AVR8/../AVR8/Endpoint_AVR8.h **** 				#else
 770               		.loc 2 456 13 view .LVU214
 771 0078 8093 E800 		sts 232,r24
 772               	.LBE136:
 773               	.LBE135:
 644:tmk_core/protocol/lufa/lufa.c ****             }
 774               		.loc 1 644 17 is_stmt 1 view .LVU215
 775 007c 0C94 0000 		jmp Endpoint_ClearStatusStage
 776               	.LVL44:
 777               	.L44:
 553:tmk_core/protocol/lufa/lufa.c ****                 Endpoint_ClearSETUP();
 778               		.loc 1 553 13 view .LVU216
 553:tmk_core/protocol/lufa/lufa.c ****                 Endpoint_ClearSETUP();
 779               		.loc 1 553 16 is_stmt 0 view .LVU217
 780 0080 8091 0000 		lds r24,USB_ControlRequest
 781 0084 813A      		cpi r24,lo8(-95)
 782 0086 01F4      		brne .L41
 554:tmk_core/protocol/lufa/lufa.c **** 
 783               		.loc 1 554 17 is_stmt 1 view .LVU218
 784               	.LBB138:
 785               	.LBI138:
 442:lib/lufa/LUFA/Drivers/USB/Core/AVR8/../AVR8/Endpoint_AVR8.h **** 			{
 786               		.loc 2 442 23 view .LVU219
 787               	.LBB139:
 444:lib/lufa/LUFA/Drivers/USB/Core/AVR8/../AVR8/Endpoint_AVR8.h **** 			}
 788               		.loc 2 444 5 view .LVU220
 444:lib/lufa/LUFA/Drivers/USB/Core/AVR8/../AVR8/Endpoint_AVR8.h **** 			}
 789               		.loc 2 444 12 is_stmt 0 view .LVU221
 790 0088 8091 E800 		lds r24,232
 791 008c 877F      		andi r24,lo8(-9)
 792 008e 8093 E800 		sts 232,r24
 793               	.LBE139:
 794               	.LBE138:
 557:tmk_core/protocol/lufa/lufa.c ****                     case KEYBOARD_INTERFACE:
 795               		.loc 1 557 17 is_stmt 1 view .LVU222
 796 0092 8091 0000 		lds r24,USB_ControlRequest+4
 797 0096 9091 0000 		lds r25,USB_ControlRequest+4+1
 798 009a 892B      		or r24,r25
 799 009c 01F4      		brne .L59
 561:tmk_core/protocol/lufa/lufa.c ****                         break;
 800               		.loc 1 561 36 is_stmt 0 view .LVU223
 801 009e 60E2      		ldi r22,lo8(32)
 560:tmk_core/protocol/lufa/lufa.c ****                         ReportSize = sizeof(keyboard_report_sent);
 802               		.loc 1 560 36 view .LVU224
 803 00a0 80E0      		ldi r24,lo8(keyboard_report_sent)
 804 00a2 90E0      		ldi r25,hi8(keyboard_report_sent)
 805               	.L51:
 806               	.LVL45:
 566:tmk_core/protocol/lufa/lufa.c ****                 Endpoint_ClearOUT();
 807               		.loc 1 566 17 is_stmt 1 view .LVU225
 808 00a4 70E0      		ldi r23,0
 809 00a6 0E94 0000 		call Endpoint_Write_Control_Stream_LE
 810               	.LVL46:
 567:tmk_core/protocol/lufa/lufa.c ****             }
 811               		.loc 1 567 17 view .LVU226
 812               	.LBB140:
 813               	.LBI140:
 468:lib/lufa/LUFA/Drivers/USB/Core/AVR8/../AVR8/Endpoint_AVR8.h **** 			{
 814               		.loc 2 468 23 view .LVU227
 815               	.LBB141:
 471:lib/lufa/LUFA/Drivers/USB/Core/AVR8/../AVR8/Endpoint_AVR8.h **** 				#else
 816               		.loc 2 471 6 view .LVU228
 471:lib/lufa/LUFA/Drivers/USB/Core/AVR8/../AVR8/Endpoint_AVR8.h **** 				#else
 817               		.loc 2 471 13 is_stmt 0 view .LVU229
 818 00aa 8091 E800 		lds r24,232
 819 00ae 8B77      		andi r24,lo8(123)
 820 00b0 8093 E800 		sts 232,r24
 821 00b4 0895      		ret
 822               	.LVL47:
 823               	.L59:
 471:lib/lufa/LUFA/Drivers/USB/Core/AVR8/../AVR8/Endpoint_AVR8.h **** 				#else
 824               		.loc 2 471 13 view .LVU230
 825               	.LBE141:
 826               	.LBE140:
 548:tmk_core/protocol/lufa/lufa.c **** 
 827               		.loc 1 548 14 view .LVU231
 828 00b6 60E0      		ldi r22,0
 547:tmk_core/protocol/lufa/lufa.c ****     uint8_t  ReportSize = 0;
 829               		.loc 1 547 14 view .LVU232
 830 00b8 90E0      		ldi r25,0
 831 00ba 80E0      		ldi r24,0
 832 00bc 00C0      		rjmp .L51
 833               	.L54:
 582:tmk_core/protocol/lufa/lufa.c ****                         }
 834               		.loc 1 582 29 is_stmt 1 view .LVU233
 582:tmk_core/protocol/lufa/lufa.c ****                         }
 835               		.loc 1 582 49 is_stmt 0 view .LVU234
 836 00be 8091 0000 		lds r24,USB_DeviceState
 582:tmk_core/protocol/lufa/lufa.c ****                         }
 837               		.loc 1 582 32 view .LVU235
 838 00c2 8111      		cpse r24,__zero_reg__
 839 00c4 00C0      		rjmp .L53
 840               	.L41:
 841               	/* epilogue start */
 653:tmk_core/protocol/lufa/lufa.c **** 
 842               		.loc 1 653 1 view .LVU236
 843 00c6 0895      		ret
 844               	.L42:
 604:tmk_core/protocol/lufa/lufa.c ****                 if (USB_ControlRequest.wIndex == KEYBOARD_INTERFACE) {
 845               		.loc 1 604 13 is_stmt 1 view .LVU237
 604:tmk_core/protocol/lufa/lufa.c ****                 if (USB_ControlRequest.wIndex == KEYBOARD_INTERFACE) {
 846               		.loc 1 604 16 is_stmt 0 view .LVU238
 847 00c8 8091 0000 		lds r24,USB_ControlRequest
 848 00cc 813A      		cpi r24,lo8(-95)
 849 00ce 01F4      		brne .L41
 605:tmk_core/protocol/lufa/lufa.c ****                     Endpoint_ClearSETUP();
 850               		.loc 1 605 17 is_stmt 1 view .LVU239
 605:tmk_core/protocol/lufa/lufa.c ****                     Endpoint_ClearSETUP();
 851               		.loc 1 605 20 is_stmt 0 view .LVU240
 852 00d0 8091 0000 		lds r24,USB_ControlRequest+4
 853 00d4 9091 0000 		lds r25,USB_ControlRequest+4+1
 854 00d8 892B      		or r24,r25
 855 00da 01F4      		brne .L41
 606:tmk_core/protocol/lufa/lufa.c ****                     while (!(Endpoint_IsINReady()))
 856               		.loc 1 606 21 is_stmt 1 view .LVU241
 857               	.LBB142:
 858               	.LBI142:
 442:lib/lufa/LUFA/Drivers/USB/Core/AVR8/../AVR8/Endpoint_AVR8.h **** 			{
 859               		.loc 2 442 23 view .LVU242
 860               	.LBB143:
 444:lib/lufa/LUFA/Drivers/USB/Core/AVR8/../AVR8/Endpoint_AVR8.h **** 			}
 861               		.loc 2 444 5 view .LVU243
 444:lib/lufa/LUFA/Drivers/USB/Core/AVR8/../AVR8/Endpoint_AVR8.h **** 			}
 862               		.loc 2 444 12 is_stmt 0 view .LVU244
 863 00dc 8091 E800 		lds r24,232
 864 00e0 877F      		andi r24,lo8(-9)
 865 00e2 8093 E800 		sts 232,r24
 866               	.L57:
 867               	.LBE143:
 868               	.LBE142:
 608:tmk_core/protocol/lufa/lufa.c ****                     Endpoint_Write_8(keyboard_protocol);
 869               		.loc 1 608 25 is_stmt 1 discriminator 1 view .LVU245
 607:tmk_core/protocol/lufa/lufa.c ****                         ;
 870               		.loc 1 607 27 discriminator 1 view .LVU246
 871               	.LBB144:
 872               	.LBI144:
 405:lib/lufa/LUFA/Drivers/USB/Core/AVR8/../AVR8/Endpoint_AVR8.h **** 			{
 873               		.loc 2 405 23 discriminator 1 view .LVU247
 874               	.LBB145:
 407:lib/lufa/LUFA/Drivers/USB/Core/AVR8/../AVR8/Endpoint_AVR8.h **** 			}
 875               		.loc 2 407 5 discriminator 1 view .LVU248
 407:lib/lufa/LUFA/Drivers/USB/Core/AVR8/../AVR8/Endpoint_AVR8.h **** 			}
 876               		.loc 2 407 14 is_stmt 0 discriminator 1 view .LVU249
 877 00e6 8091 E800 		lds r24,232
 878               	.LBE145:
 879               	.LBE144:
 607:tmk_core/protocol/lufa/lufa.c ****                         ;
 880               		.loc 1 607 27 discriminator 1 view .LVU250
 881 00ea 80FF      		sbrs r24,0
 882 00ec 00C0      		rjmp .L57
 609:tmk_core/protocol/lufa/lufa.c ****                     Endpoint_ClearIN();
 883               		.loc 1 609 21 is_stmt 1 view .LVU251
 884 00ee 8091 0000 		lds r24,keyboard_protocol
 885               	.LVL48:
 886               	.LBB146:
 887               	.LBI146:
 543:lib/lufa/LUFA/Drivers/USB/Core/AVR8/../AVR8/Endpoint_AVR8.h **** 			}
 544:lib/lufa/LUFA/Drivers/USB/Core/AVR8/../AVR8/Endpoint_AVR8.h **** 
 545:lib/lufa/LUFA/Drivers/USB/Core/AVR8/../AVR8/Endpoint_AVR8.h **** 			/** Writes one byte to the currently selected endpoint's bank, for IN direction endpoints.
 546:lib/lufa/LUFA/Drivers/USB/Core/AVR8/../AVR8/Endpoint_AVR8.h **** 			 *
 547:lib/lufa/LUFA/Drivers/USB/Core/AVR8/../AVR8/Endpoint_AVR8.h **** 			 *  \ingroup Group_EndpointPrimitiveRW_AVR8
 548:lib/lufa/LUFA/Drivers/USB/Core/AVR8/../AVR8/Endpoint_AVR8.h **** 			 *
 549:lib/lufa/LUFA/Drivers/USB/Core/AVR8/../AVR8/Endpoint_AVR8.h **** 			 *  \param[in] Data  Data to write into the the currently selected endpoint's FIFO buffer.
 550:lib/lufa/LUFA/Drivers/USB/Core/AVR8/../AVR8/Endpoint_AVR8.h **** 			 */
 551:lib/lufa/LUFA/Drivers/USB/Core/AVR8/../AVR8/Endpoint_AVR8.h **** 			static inline void Endpoint_Write_8(const uint8_t Data) ATTR_ALWAYS_INLINE;
 552:lib/lufa/LUFA/Drivers/USB/Core/AVR8/../AVR8/Endpoint_AVR8.h **** 			static inline void Endpoint_Write_8(const uint8_t Data)
 888               		.loc 2 552 23 view .LVU252
 889               	.LBB147:
 553:lib/lufa/LUFA/Drivers/USB/Core/AVR8/../AVR8/Endpoint_AVR8.h **** 			{
 554:lib/lufa/LUFA/Drivers/USB/Core/AVR8/../AVR8/Endpoint_AVR8.h **** 				UEDATX = Data;
 890               		.loc 2 554 5 view .LVU253
 891               	.L68:
 892               		.loc 2 554 5 is_stmt 0 view .LVU254
 893               	.LBE147:
 894               	.LBE146:
 895               	.LBB148:
 896               	.LBI148:
 552:lib/lufa/LUFA/Drivers/USB/Core/AVR8/../AVR8/Endpoint_AVR8.h **** 			{
 897               		.loc 2 552 23 is_stmt 1 view .LVU255
 898               	.LBB149:
 899               		.loc 2 554 5 view .LVU256
 900               		.loc 2 554 12 is_stmt 0 view .LVU257
 901 00f2 8093 F100 		sts 241,r24
 902               	.LVL49:
 903               		.loc 2 554 12 view .LVU258
 904               	.LBE149:
 905               	.LBE148:
 643:tmk_core/protocol/lufa/lufa.c ****                 Endpoint_ClearStatusStage();
 906               		.loc 1 643 17 is_stmt 1 view .LVU259
 907               	.LBB150:
 908               	.LBI135:
 453:lib/lufa/LUFA/Drivers/USB/Core/AVR8/../AVR8/Endpoint_AVR8.h **** 			{
 909               		.loc 2 453 23 view .LVU260
 910               	.LBB137:
 456:lib/lufa/LUFA/Drivers/USB/Core/AVR8/../AVR8/Endpoint_AVR8.h **** 				#else
 911               		.loc 2 456 6 view .LVU261
 456:lib/lufa/LUFA/Drivers/USB/Core/AVR8/../AVR8/Endpoint_AVR8.h **** 				#else
 912               		.loc 2 456 13 is_stmt 0 view .LVU262
 913 00f6 8091 E800 		lds r24,232
 914 00fa 8E77      		andi r24,lo8(126)
 915 00fc 00C0      		rjmp .L67
 916               	.L48:
 917               	.LBE137:
 918               	.LBE150:
 617:tmk_core/protocol/lufa/lufa.c ****                 if (USB_ControlRequest.wIndex == KEYBOARD_INTERFACE) {
 919               		.loc 1 617 13 is_stmt 1 view .LVU263
 617:tmk_core/protocol/lufa/lufa.c ****                 if (USB_ControlRequest.wIndex == KEYBOARD_INTERFACE) {
 920               		.loc 1 617 16 is_stmt 0 view .LVU264
 921 00fe 8091 0000 		lds r24,USB_ControlRequest
 922 0102 8132      		cpi r24,lo8(33)
 923 0104 01F4      		brne .L41
 618:tmk_core/protocol/lufa/lufa.c ****                     Endpoint_ClearSETUP();
 924               		.loc 1 618 17 is_stmt 1 view .LVU265
 618:tmk_core/protocol/lufa/lufa.c ****                     Endpoint_ClearSETUP();
 925               		.loc 1 618 20 is_stmt 0 view .LVU266
 926 0106 8091 0000 		lds r24,USB_ControlRequest+4
 927 010a 9091 0000 		lds r25,USB_ControlRequest+4+1
 928 010e 892B      		or r24,r25
 929 0110 01F4      		brne .L41
 619:tmk_core/protocol/lufa/lufa.c ****                     Endpoint_ClearStatusStage();
 930               		.loc 1 619 21 is_stmt 1 view .LVU267
 931               	.LBB151:
 932               	.LBI151:
 442:lib/lufa/LUFA/Drivers/USB/Core/AVR8/../AVR8/Endpoint_AVR8.h **** 			{
 933               		.loc 2 442 23 view .LVU268
 934               	.LBB152:
 444:lib/lufa/LUFA/Drivers/USB/Core/AVR8/../AVR8/Endpoint_AVR8.h **** 			}
 935               		.loc 2 444 5 view .LVU269
 444:lib/lufa/LUFA/Drivers/USB/Core/AVR8/../AVR8/Endpoint_AVR8.h **** 			}
 936               		.loc 2 444 12 is_stmt 0 view .LVU270
 937 0112 8091 E800 		lds r24,232
 938 0116 877F      		andi r24,lo8(-9)
 939 0118 8093 E800 		sts 232,r24
 940               	.LBE152:
 941               	.LBE151:
 620:tmk_core/protocol/lufa/lufa.c **** 
 942               		.loc 1 620 21 is_stmt 1 view .LVU271
 943 011c 0E94 0000 		call Endpoint_ClearStatusStage
 944               	.LVL50:
 622:tmk_core/protocol/lufa/lufa.c ****                     clear_keyboard();
 945               		.loc 1 622 21 view .LVU272
 622:tmk_core/protocol/lufa/lufa.c ****                     clear_keyboard();
 946               		.loc 1 622 39 is_stmt 0 view .LVU273
 947 0120 8091 0000 		lds r24,USB_ControlRequest+2
 948 0124 8093 0000 		sts keyboard_protocol,r24
 623:tmk_core/protocol/lufa/lufa.c ****                 }
 949               		.loc 1 623 21 is_stmt 1 view .LVU274
 950 0128 0C94 0000 		jmp clear_keyboard
 951               	.LVL51:
 952               	.L47:
 629:tmk_core/protocol/lufa/lufa.c ****                 Endpoint_ClearSETUP();
 953               		.loc 1 629 13 view .LVU275
 629:tmk_core/protocol/lufa/lufa.c ****                 Endpoint_ClearSETUP();
 954               		.loc 1 629 16 is_stmt 0 view .LVU276
 955 012c 8091 0000 		lds r24,USB_ControlRequest
 956 0130 8132      		cpi r24,lo8(33)
 957 0132 01F4      		brne .L41
 630:tmk_core/protocol/lufa/lufa.c ****                 Endpoint_ClearStatusStage();
 958               		.loc 1 630 17 is_stmt 1 view .LVU277
 959               	.LBB153:
 960               	.LBI153:
 442:lib/lufa/LUFA/Drivers/USB/Core/AVR8/../AVR8/Endpoint_AVR8.h **** 			{
 961               		.loc 2 442 23 view .LVU278
 962               	.LBB154:
 444:lib/lufa/LUFA/Drivers/USB/Core/AVR8/../AVR8/Endpoint_AVR8.h **** 			}
 963               		.loc 2 444 5 view .LVU279
 444:lib/lufa/LUFA/Drivers/USB/Core/AVR8/../AVR8/Endpoint_AVR8.h **** 			}
 964               		.loc 2 444 12 is_stmt 0 view .LVU280
 965 0134 8091 E800 		lds r24,232
 966 0138 877F      		andi r24,lo8(-9)
 967 013a 8093 E800 		sts 232,r24
 968               	.LBE154:
 969               	.LBE153:
 631:tmk_core/protocol/lufa/lufa.c **** 
 970               		.loc 1 631 17 is_stmt 1 view .LVU281
 971 013e 0E94 0000 		call Endpoint_ClearStatusStage
 972               	.LVL52:
 633:tmk_core/protocol/lufa/lufa.c ****             }
 973               		.loc 1 633 17 view .LVU282
 633:tmk_core/protocol/lufa/lufa.c ****             }
 974               		.loc 1 633 71 is_stmt 0 view .LVU283
 975 0142 8091 0000 		lds r24,USB_ControlRequest+3
 633:tmk_core/protocol/lufa/lufa.c ****             }
 976               		.loc 1 633 31 view .LVU284
 977 0146 8093 0000 		sts keyboard_idle,r24
 978 014a 0895      		ret
 979               	.L45:
 638:tmk_core/protocol/lufa/lufa.c ****                 Endpoint_ClearSETUP();
 980               		.loc 1 638 13 is_stmt 1 view .LVU285
 638:tmk_core/protocol/lufa/lufa.c ****                 Endpoint_ClearSETUP();
 981               		.loc 1 638 16 is_stmt 0 view .LVU286
 982 014c 8091 0000 		lds r24,USB_ControlRequest
 983 0150 813A      		cpi r24,lo8(-95)
 984 0152 01F0      		breq .+2
 985 0154 00C0      		rjmp .L41
 639:tmk_core/protocol/lufa/lufa.c ****                 while (!(Endpoint_IsINReady()))
 986               		.loc 1 639 17 is_stmt 1 view .LVU287
 987               	.LBB155:
 988               	.LBI155:
 442:lib/lufa/LUFA/Drivers/USB/Core/AVR8/../AVR8/Endpoint_AVR8.h **** 			{
 989               		.loc 2 442 23 view .LVU288
 990               	.LBB156:
 444:lib/lufa/LUFA/Drivers/USB/Core/AVR8/../AVR8/Endpoint_AVR8.h **** 			}
 991               		.loc 2 444 5 view .LVU289
 444:lib/lufa/LUFA/Drivers/USB/Core/AVR8/../AVR8/Endpoint_AVR8.h **** 			}
 992               		.loc 2 444 12 is_stmt 0 view .LVU290
 993 0156 8091 E800 		lds r24,232
 994 015a 877F      		andi r24,lo8(-9)
 995 015c 8093 E800 		sts 232,r24
 996               	.L58:
 997               	.LBE156:
 998               	.LBE155:
 641:tmk_core/protocol/lufa/lufa.c ****                 Endpoint_Write_8(keyboard_idle);
 999               		.loc 1 641 21 is_stmt 1 discriminator 1 view .LVU291
 640:tmk_core/protocol/lufa/lufa.c ****                     ;
 1000               		.loc 1 640 23 discriminator 1 view .LVU292
 1001               	.LBB157:
 1002               	.LBI157:
 405:lib/lufa/LUFA/Drivers/USB/Core/AVR8/../AVR8/Endpoint_AVR8.h **** 			{
 1003               		.loc 2 405 23 discriminator 1 view .LVU293
 1004               	.LBB158:
 407:lib/lufa/LUFA/Drivers/USB/Core/AVR8/../AVR8/Endpoint_AVR8.h **** 			}
 1005               		.loc 2 407 5 discriminator 1 view .LVU294
 407:lib/lufa/LUFA/Drivers/USB/Core/AVR8/../AVR8/Endpoint_AVR8.h **** 			}
 1006               		.loc 2 407 14 is_stmt 0 discriminator 1 view .LVU295
 1007 0160 8091 E800 		lds r24,232
 1008               	.LBE158:
 1009               	.LBE157:
 640:tmk_core/protocol/lufa/lufa.c ****                     ;
 1010               		.loc 1 640 23 discriminator 1 view .LVU296
 1011 0164 80FF      		sbrs r24,0
 1012 0166 00C0      		rjmp .L58
 642:tmk_core/protocol/lufa/lufa.c ****                 Endpoint_ClearIN();
 1013               		.loc 1 642 17 is_stmt 1 view .LVU297
 1014 0168 8091 0000 		lds r24,keyboard_idle
 1015 016c 00C0      		rjmp .L68
 1016               		.cfi_endproc
 1017               	.LFE129:
 1019               		.section	.text.startup.main,"ax",@progbits
 1020               		.weak	main
 1022               	main:
 1023               	.LFB138:
 832:tmk_core/protocol/lufa/lufa.c **** #endif
 833:tmk_core/protocol/lufa/lufa.c **** }
 834:tmk_core/protocol/lufa/lufa.c **** 
 835:tmk_core/protocol/lufa/lufa.c **** /*******************************************************************************
 836:tmk_core/protocol/lufa/lufa.c ****  * sendchar
 837:tmk_core/protocol/lufa/lufa.c ****  ******************************************************************************/
 838:tmk_core/protocol/lufa/lufa.c **** #ifdef CONSOLE_ENABLE
 839:tmk_core/protocol/lufa/lufa.c **** #    define SEND_TIMEOUT 5
 840:tmk_core/protocol/lufa/lufa.c **** /** \brief Send Char
 841:tmk_core/protocol/lufa/lufa.c ****  *
 842:tmk_core/protocol/lufa/lufa.c ****  * FIXME: Needs doc
 843:tmk_core/protocol/lufa/lufa.c ****  */
 844:tmk_core/protocol/lufa/lufa.c **** int8_t sendchar(uint8_t c) {
 845:tmk_core/protocol/lufa/lufa.c ****     // Not wait once timeouted.
 846:tmk_core/protocol/lufa/lufa.c ****     // Because sendchar() is called so many times, waiting each call causes big lag.
 847:tmk_core/protocol/lufa/lufa.c ****     static bool timeouted = false;
 848:tmk_core/protocol/lufa/lufa.c **** 
 849:tmk_core/protocol/lufa/lufa.c ****     // prevents Console_Task() from running during sendchar() runs.
 850:tmk_core/protocol/lufa/lufa.c ****     // or char will be lost. These two function is mutually exclusive.
 851:tmk_core/protocol/lufa/lufa.c ****     CONSOLE_FLUSH_SET(false);
 852:tmk_core/protocol/lufa/lufa.c **** 
 853:tmk_core/protocol/lufa/lufa.c ****     if (USB_DeviceState != DEVICE_STATE_Configured) return -1;
 854:tmk_core/protocol/lufa/lufa.c **** 
 855:tmk_core/protocol/lufa/lufa.c ****     uint8_t ep = Endpoint_GetCurrentEndpoint();
 856:tmk_core/protocol/lufa/lufa.c ****     Endpoint_SelectEndpoint(CONSOLE_IN_EPNUM);
 857:tmk_core/protocol/lufa/lufa.c ****     if (!Endpoint_IsEnabled() || !Endpoint_IsConfigured()) {
 858:tmk_core/protocol/lufa/lufa.c ****         goto ERROR_EXIT;
 859:tmk_core/protocol/lufa/lufa.c ****     }
 860:tmk_core/protocol/lufa/lufa.c **** 
 861:tmk_core/protocol/lufa/lufa.c ****     if (timeouted && !Endpoint_IsReadWriteAllowed()) {
 862:tmk_core/protocol/lufa/lufa.c ****         goto ERROR_EXIT;
 863:tmk_core/protocol/lufa/lufa.c ****     }
 864:tmk_core/protocol/lufa/lufa.c **** 
 865:tmk_core/protocol/lufa/lufa.c ****     timeouted = false;
 866:tmk_core/protocol/lufa/lufa.c **** 
 867:tmk_core/protocol/lufa/lufa.c ****     uint8_t timeout = SEND_TIMEOUT;
 868:tmk_core/protocol/lufa/lufa.c ****     while (!Endpoint_IsReadWriteAllowed()) {
 869:tmk_core/protocol/lufa/lufa.c ****         if (USB_DeviceState != DEVICE_STATE_Configured) {
 870:tmk_core/protocol/lufa/lufa.c ****             goto ERROR_EXIT;
 871:tmk_core/protocol/lufa/lufa.c ****         }
 872:tmk_core/protocol/lufa/lufa.c ****         if (Endpoint_IsStalled()) {
 873:tmk_core/protocol/lufa/lufa.c ****             goto ERROR_EXIT;
 874:tmk_core/protocol/lufa/lufa.c ****         }
 875:tmk_core/protocol/lufa/lufa.c ****         if (!(timeout--)) {
 876:tmk_core/protocol/lufa/lufa.c ****             timeouted = true;
 877:tmk_core/protocol/lufa/lufa.c ****             goto ERROR_EXIT;
 878:tmk_core/protocol/lufa/lufa.c ****         }
 879:tmk_core/protocol/lufa/lufa.c ****         _delay_ms(1);
 880:tmk_core/protocol/lufa/lufa.c ****     }
 881:tmk_core/protocol/lufa/lufa.c **** 
 882:tmk_core/protocol/lufa/lufa.c ****     Endpoint_Write_8(c);
 883:tmk_core/protocol/lufa/lufa.c **** 
 884:tmk_core/protocol/lufa/lufa.c ****     // send when bank is full
 885:tmk_core/protocol/lufa/lufa.c ****     if (!Endpoint_IsReadWriteAllowed()) {
 886:tmk_core/protocol/lufa/lufa.c ****         while (!(Endpoint_IsINReady()))
 887:tmk_core/protocol/lufa/lufa.c ****             ;
 888:tmk_core/protocol/lufa/lufa.c ****         Endpoint_ClearIN();
 889:tmk_core/protocol/lufa/lufa.c ****     } else {
 890:tmk_core/protocol/lufa/lufa.c ****         CONSOLE_FLUSH_SET(true);
 891:tmk_core/protocol/lufa/lufa.c ****     }
 892:tmk_core/protocol/lufa/lufa.c **** 
 893:tmk_core/protocol/lufa/lufa.c ****     Endpoint_SelectEndpoint(ep);
 894:tmk_core/protocol/lufa/lufa.c ****     return 0;
 895:tmk_core/protocol/lufa/lufa.c **** ERROR_EXIT:
 896:tmk_core/protocol/lufa/lufa.c ****     Endpoint_SelectEndpoint(ep);
 897:tmk_core/protocol/lufa/lufa.c ****     return -1;
 898:tmk_core/protocol/lufa/lufa.c **** }
 899:tmk_core/protocol/lufa/lufa.c **** #endif
 900:tmk_core/protocol/lufa/lufa.c **** 
 901:tmk_core/protocol/lufa/lufa.c **** /*******************************************************************************
 902:tmk_core/protocol/lufa/lufa.c ****  * MIDI
 903:tmk_core/protocol/lufa/lufa.c ****  ******************************************************************************/
 904:tmk_core/protocol/lufa/lufa.c **** 
 905:tmk_core/protocol/lufa/lufa.c **** #ifdef MIDI_ENABLE
 906:tmk_core/protocol/lufa/lufa.c **** // clang-format off
 907:tmk_core/protocol/lufa/lufa.c **** 
 908:tmk_core/protocol/lufa/lufa.c **** USB_ClassInfo_MIDI_Device_t USB_MIDI_Interface = {
 909:tmk_core/protocol/lufa/lufa.c ****     .Config = {
 910:tmk_core/protocol/lufa/lufa.c ****         .StreamingInterfaceNumber = AS_INTERFACE,
 911:tmk_core/protocol/lufa/lufa.c ****         .DataINEndpoint = {
 912:tmk_core/protocol/lufa/lufa.c ****             .Address              = (MIDI_STREAM_IN_EPNUM | ENDPOINT_DIR_IN),
 913:tmk_core/protocol/lufa/lufa.c ****             .Size                 = MIDI_STREAM_EPSIZE,
 914:tmk_core/protocol/lufa/lufa.c ****             .Banks                = 1
 915:tmk_core/protocol/lufa/lufa.c ****         },
 916:tmk_core/protocol/lufa/lufa.c ****         .DataOUTEndpoint = {
 917:tmk_core/protocol/lufa/lufa.c ****             .Address              = (MIDI_STREAM_OUT_EPNUM | ENDPOINT_DIR_OUT),
 918:tmk_core/protocol/lufa/lufa.c ****             .Size                 = MIDI_STREAM_EPSIZE,
 919:tmk_core/protocol/lufa/lufa.c ****             .Banks                = 1
 920:tmk_core/protocol/lufa/lufa.c ****         }
 921:tmk_core/protocol/lufa/lufa.c ****     }
 922:tmk_core/protocol/lufa/lufa.c **** };
 923:tmk_core/protocol/lufa/lufa.c **** 
 924:tmk_core/protocol/lufa/lufa.c **** // clang-format on
 925:tmk_core/protocol/lufa/lufa.c **** 
 926:tmk_core/protocol/lufa/lufa.c **** void send_midi_packet(MIDI_EventPacket_t *event) { MIDI_Device_SendEventPacket(&USB_MIDI_Interface,
 927:tmk_core/protocol/lufa/lufa.c **** 
 928:tmk_core/protocol/lufa/lufa.c **** bool recv_midi_packet(MIDI_EventPacket_t *const event) { return MIDI_Device_ReceiveEventPacket(&USB
 929:tmk_core/protocol/lufa/lufa.c **** 
 930:tmk_core/protocol/lufa/lufa.c **** #endif
 931:tmk_core/protocol/lufa/lufa.c **** 
 932:tmk_core/protocol/lufa/lufa.c **** /*******************************************************************************
 933:tmk_core/protocol/lufa/lufa.c ****  * VIRTUAL SERIAL
 934:tmk_core/protocol/lufa/lufa.c ****  ******************************************************************************/
 935:tmk_core/protocol/lufa/lufa.c **** 
 936:tmk_core/protocol/lufa/lufa.c **** #ifdef VIRTSER_ENABLE
 937:tmk_core/protocol/lufa/lufa.c **** /** \brief Virtual Serial Init
 938:tmk_core/protocol/lufa/lufa.c ****  *
 939:tmk_core/protocol/lufa/lufa.c ****  * FIXME: Needs doc
 940:tmk_core/protocol/lufa/lufa.c ****  */
 941:tmk_core/protocol/lufa/lufa.c **** void virtser_init(void) {
 942:tmk_core/protocol/lufa/lufa.c ****     cdc_device.State.ControlLineStates.DeviceToHost = CDC_CONTROL_LINE_IN_DSR;
 943:tmk_core/protocol/lufa/lufa.c ****     CDC_Device_SendControlLineStateChange(&cdc_device);
 944:tmk_core/protocol/lufa/lufa.c **** }
 945:tmk_core/protocol/lufa/lufa.c **** 
 946:tmk_core/protocol/lufa/lufa.c **** /** \brief Virtual Serial Receive
 947:tmk_core/protocol/lufa/lufa.c ****  *
 948:tmk_core/protocol/lufa/lufa.c ****  * FIXME: Needs doc
 949:tmk_core/protocol/lufa/lufa.c ****  */
 950:tmk_core/protocol/lufa/lufa.c **** void virtser_recv(uint8_t c) __attribute__((weak));
 951:tmk_core/protocol/lufa/lufa.c **** void virtser_recv(uint8_t c) {
 952:tmk_core/protocol/lufa/lufa.c ****     // Ignore by default
 953:tmk_core/protocol/lufa/lufa.c **** }
 954:tmk_core/protocol/lufa/lufa.c **** 
 955:tmk_core/protocol/lufa/lufa.c **** /** \brief Virtual Serial Task
 956:tmk_core/protocol/lufa/lufa.c ****  *
 957:tmk_core/protocol/lufa/lufa.c ****  * FIXME: Needs doc
 958:tmk_core/protocol/lufa/lufa.c ****  */
 959:tmk_core/protocol/lufa/lufa.c **** void virtser_task(void) {
 960:tmk_core/protocol/lufa/lufa.c ****     uint16_t count = CDC_Device_BytesReceived(&cdc_device);
 961:tmk_core/protocol/lufa/lufa.c ****     uint8_t  ch;
 962:tmk_core/protocol/lufa/lufa.c ****     for (; count; --count) {
 963:tmk_core/protocol/lufa/lufa.c ****         ch = CDC_Device_ReceiveByte(&cdc_device);
 964:tmk_core/protocol/lufa/lufa.c ****         virtser_recv(ch);
 965:tmk_core/protocol/lufa/lufa.c ****     }
 966:tmk_core/protocol/lufa/lufa.c **** }
 967:tmk_core/protocol/lufa/lufa.c **** /** \brief Virtual Serial Send
 968:tmk_core/protocol/lufa/lufa.c ****  *
 969:tmk_core/protocol/lufa/lufa.c ****  * FIXME: Needs doc
 970:tmk_core/protocol/lufa/lufa.c ****  */
 971:tmk_core/protocol/lufa/lufa.c **** void virtser_send(const uint8_t byte) {
 972:tmk_core/protocol/lufa/lufa.c ****     uint8_t timeout = 255;
 973:tmk_core/protocol/lufa/lufa.c ****     uint8_t ep      = Endpoint_GetCurrentEndpoint();
 974:tmk_core/protocol/lufa/lufa.c **** 
 975:tmk_core/protocol/lufa/lufa.c ****     if (cdc_device.State.ControlLineStates.HostToDevice & CDC_CONTROL_LINE_OUT_DTR) {
 976:tmk_core/protocol/lufa/lufa.c ****         /* IN packet */
 977:tmk_core/protocol/lufa/lufa.c ****         Endpoint_SelectEndpoint(cdc_device.Config.DataINEndpoint.Address);
 978:tmk_core/protocol/lufa/lufa.c **** 
 979:tmk_core/protocol/lufa/lufa.c ****         if (!Endpoint_IsEnabled() || !Endpoint_IsConfigured()) {
 980:tmk_core/protocol/lufa/lufa.c ****             Endpoint_SelectEndpoint(ep);
 981:tmk_core/protocol/lufa/lufa.c ****             return;
 982:tmk_core/protocol/lufa/lufa.c ****         }
 983:tmk_core/protocol/lufa/lufa.c **** 
 984:tmk_core/protocol/lufa/lufa.c ****         while (timeout-- && !Endpoint_IsReadWriteAllowed()) _delay_us(40);
 985:tmk_core/protocol/lufa/lufa.c **** 
 986:tmk_core/protocol/lufa/lufa.c ****         Endpoint_Write_8(byte);
 987:tmk_core/protocol/lufa/lufa.c ****         CDC_Device_Flush(&cdc_device);
 988:tmk_core/protocol/lufa/lufa.c **** 
 989:tmk_core/protocol/lufa/lufa.c ****         if (Endpoint_IsINReady()) {
 990:tmk_core/protocol/lufa/lufa.c ****             Endpoint_ClearIN();
 991:tmk_core/protocol/lufa/lufa.c ****         }
 992:tmk_core/protocol/lufa/lufa.c **** 
 993:tmk_core/protocol/lufa/lufa.c ****         Endpoint_SelectEndpoint(ep);
 994:tmk_core/protocol/lufa/lufa.c ****     }
 995:tmk_core/protocol/lufa/lufa.c **** }
 996:tmk_core/protocol/lufa/lufa.c **** #endif
 997:tmk_core/protocol/lufa/lufa.c **** 
 998:tmk_core/protocol/lufa/lufa.c **** /*******************************************************************************
 999:tmk_core/protocol/lufa/lufa.c ****  * main
1000:tmk_core/protocol/lufa/lufa.c ****  ******************************************************************************/
1001:tmk_core/protocol/lufa/lufa.c **** /** \brief Setup MCU
1002:tmk_core/protocol/lufa/lufa.c ****  *
1003:tmk_core/protocol/lufa/lufa.c ****  * FIXME: Needs doc
1004:tmk_core/protocol/lufa/lufa.c ****  */
1005:tmk_core/protocol/lufa/lufa.c **** static void setup_mcu(void) {
1006:tmk_core/protocol/lufa/lufa.c ****     /* Disable watchdog if enabled by bootloader/fuses */
1007:tmk_core/protocol/lufa/lufa.c ****     MCUSR &= ~_BV(WDRF);
1008:tmk_core/protocol/lufa/lufa.c ****     wdt_disable();
1009:tmk_core/protocol/lufa/lufa.c **** 
1010:tmk_core/protocol/lufa/lufa.c ****     /* Disable clock division */
1011:tmk_core/protocol/lufa/lufa.c ****     clock_prescale_set(clock_div_1);
1012:tmk_core/protocol/lufa/lufa.c **** }
1013:tmk_core/protocol/lufa/lufa.c **** 
1014:tmk_core/protocol/lufa/lufa.c **** /** \brief Setup USB
1015:tmk_core/protocol/lufa/lufa.c ****  *
1016:tmk_core/protocol/lufa/lufa.c ****  * FIXME: Needs doc
1017:tmk_core/protocol/lufa/lufa.c ****  */
1018:tmk_core/protocol/lufa/lufa.c **** static void setup_usb(void) {
1019:tmk_core/protocol/lufa/lufa.c ****     // Leonardo needs. Without this USB device is not recognized.
1020:tmk_core/protocol/lufa/lufa.c ****     USB_Disable();
1021:tmk_core/protocol/lufa/lufa.c **** 
1022:tmk_core/protocol/lufa/lufa.c ****     USB_Init();
1023:tmk_core/protocol/lufa/lufa.c **** 
1024:tmk_core/protocol/lufa/lufa.c ****     // for Console_Task
1025:tmk_core/protocol/lufa/lufa.c ****     USB_Device_EnableSOFEvents();
