   1               		.file	"EndpointStream_AVR8.c"
   2               	__SP_H__ = 0x3e
   3               	__SP_L__ = 0x3d
   4               	__SREG__ = 0x3f
   5               	__tmp_reg__ = 0
   6               	__zero_reg__ = 1
   7               		.text
   8               	.Ltext0:
   9               		.cfi_sections	.debug_frame
  10               		.section	.text.Endpoint_Discard_Stream,"ax",@progbits
  11               	.global	Endpoint_Discard_Stream
  13               	Endpoint_Discard_Stream:
  14               	.LVL0:
  15               	.LFB85:
  16               		.file 1 "lib/lufa/LUFA/Drivers/USB/Core/AVR8/EndpointStream_AVR8.c"
   1:lib/lufa/LUFA/Drivers/USB/Core/AVR8/EndpointStream_AVR8.c **** /*
   2:lib/lufa/LUFA/Drivers/USB/Core/AVR8/EndpointStream_AVR8.c ****              LUFA Library
   3:lib/lufa/LUFA/Drivers/USB/Core/AVR8/EndpointStream_AVR8.c ****      Copyright (C) Dean Camera, 2019.
   4:lib/lufa/LUFA/Drivers/USB/Core/AVR8/EndpointStream_AVR8.c **** 
   5:lib/lufa/LUFA/Drivers/USB/Core/AVR8/EndpointStream_AVR8.c ****   dean [at] fourwalledcubicle [dot] com
   6:lib/lufa/LUFA/Drivers/USB/Core/AVR8/EndpointStream_AVR8.c ****            www.lufa-lib.org
   7:lib/lufa/LUFA/Drivers/USB/Core/AVR8/EndpointStream_AVR8.c **** */
   8:lib/lufa/LUFA/Drivers/USB/Core/AVR8/EndpointStream_AVR8.c **** 
   9:lib/lufa/LUFA/Drivers/USB/Core/AVR8/EndpointStream_AVR8.c **** /*
  10:lib/lufa/LUFA/Drivers/USB/Core/AVR8/EndpointStream_AVR8.c ****   Copyright 2019  Dean Camera (dean [at] fourwalledcubicle [dot] com)
  11:lib/lufa/LUFA/Drivers/USB/Core/AVR8/EndpointStream_AVR8.c **** 
  12:lib/lufa/LUFA/Drivers/USB/Core/AVR8/EndpointStream_AVR8.c ****   Permission to use, copy, modify, distribute, and sell this
  13:lib/lufa/LUFA/Drivers/USB/Core/AVR8/EndpointStream_AVR8.c ****   software and its documentation for any purpose is hereby granted
  14:lib/lufa/LUFA/Drivers/USB/Core/AVR8/EndpointStream_AVR8.c ****   without fee, provided that the above copyright notice appear in
  15:lib/lufa/LUFA/Drivers/USB/Core/AVR8/EndpointStream_AVR8.c ****   all copies and that both that the copyright notice and this
  16:lib/lufa/LUFA/Drivers/USB/Core/AVR8/EndpointStream_AVR8.c ****   permission notice and warranty disclaimer appear in supporting
  17:lib/lufa/LUFA/Drivers/USB/Core/AVR8/EndpointStream_AVR8.c ****   documentation, and that the name of the author not be used in
  18:lib/lufa/LUFA/Drivers/USB/Core/AVR8/EndpointStream_AVR8.c ****   advertising or publicity pertaining to distribution of the
  19:lib/lufa/LUFA/Drivers/USB/Core/AVR8/EndpointStream_AVR8.c ****   software without specific, written prior permission.
  20:lib/lufa/LUFA/Drivers/USB/Core/AVR8/EndpointStream_AVR8.c **** 
  21:lib/lufa/LUFA/Drivers/USB/Core/AVR8/EndpointStream_AVR8.c ****   The author disclaims all warranties with regard to this
  22:lib/lufa/LUFA/Drivers/USB/Core/AVR8/EndpointStream_AVR8.c ****   software, including all implied warranties of merchantability
  23:lib/lufa/LUFA/Drivers/USB/Core/AVR8/EndpointStream_AVR8.c ****   and fitness.  In no event shall the author be liable for any
  24:lib/lufa/LUFA/Drivers/USB/Core/AVR8/EndpointStream_AVR8.c ****   special, indirect or consequential damages or any damages
  25:lib/lufa/LUFA/Drivers/USB/Core/AVR8/EndpointStream_AVR8.c ****   whatsoever resulting from loss of use, data or profits, whether
  26:lib/lufa/LUFA/Drivers/USB/Core/AVR8/EndpointStream_AVR8.c ****   in an action of contract, negligence or other tortious action,
  27:lib/lufa/LUFA/Drivers/USB/Core/AVR8/EndpointStream_AVR8.c ****   arising out of or in connection with the use or performance of
  28:lib/lufa/LUFA/Drivers/USB/Core/AVR8/EndpointStream_AVR8.c ****   this software.
  29:lib/lufa/LUFA/Drivers/USB/Core/AVR8/EndpointStream_AVR8.c **** */
  30:lib/lufa/LUFA/Drivers/USB/Core/AVR8/EndpointStream_AVR8.c **** 
  31:lib/lufa/LUFA/Drivers/USB/Core/AVR8/EndpointStream_AVR8.c **** #include "../../../../Common/Common.h"
  32:lib/lufa/LUFA/Drivers/USB/Core/AVR8/EndpointStream_AVR8.c **** #if (ARCH == ARCH_AVR8)
  33:lib/lufa/LUFA/Drivers/USB/Core/AVR8/EndpointStream_AVR8.c **** 
  34:lib/lufa/LUFA/Drivers/USB/Core/AVR8/EndpointStream_AVR8.c **** #define  __INCLUDE_FROM_USB_DRIVER
  35:lib/lufa/LUFA/Drivers/USB/Core/AVR8/EndpointStream_AVR8.c **** #include "../USBMode.h"
  36:lib/lufa/LUFA/Drivers/USB/Core/AVR8/EndpointStream_AVR8.c **** 
  37:lib/lufa/LUFA/Drivers/USB/Core/AVR8/EndpointStream_AVR8.c **** #if defined(USB_CAN_BE_DEVICE)
  38:lib/lufa/LUFA/Drivers/USB/Core/AVR8/EndpointStream_AVR8.c **** 
  39:lib/lufa/LUFA/Drivers/USB/Core/AVR8/EndpointStream_AVR8.c **** #include "EndpointStream_AVR8.h"
  40:lib/lufa/LUFA/Drivers/USB/Core/AVR8/EndpointStream_AVR8.c **** 
  41:lib/lufa/LUFA/Drivers/USB/Core/AVR8/EndpointStream_AVR8.c **** #if !defined(CONTROL_ONLY_DEVICE)
  42:lib/lufa/LUFA/Drivers/USB/Core/AVR8/EndpointStream_AVR8.c **** uint8_t Endpoint_Discard_Stream(uint16_t Length,
  43:lib/lufa/LUFA/Drivers/USB/Core/AVR8/EndpointStream_AVR8.c ****                                 uint16_t* const BytesProcessed)
  44:lib/lufa/LUFA/Drivers/USB/Core/AVR8/EndpointStream_AVR8.c **** {
  17               		.loc 1 44 1 view -0
  18               		.cfi_startproc
  19               		.loc 1 44 1 is_stmt 0 view .LVU1
  20 0000 CF92      		push r12
  21               	.LCFI0:
  22               		.cfi_def_cfa_offset 3
  23               		.cfi_offset 12, -2
  24 0002 DF92      		push r13
  25               	.LCFI1:
  26               		.cfi_def_cfa_offset 4
  27               		.cfi_offset 13, -3
  28 0004 EF92      		push r14
  29               	.LCFI2:
  30               		.cfi_def_cfa_offset 5
  31               		.cfi_offset 14, -4
  32 0006 FF92      		push r15
  33               	.LCFI3:
  34               		.cfi_def_cfa_offset 6
  35               		.cfi_offset 15, -5
  36 0008 1F93      		push r17
  37               	.LCFI4:
  38               		.cfi_def_cfa_offset 7
  39               		.cfi_offset 17, -6
  40 000a CF93      		push r28
  41               	.LCFI5:
  42               		.cfi_def_cfa_offset 8
  43               		.cfi_offset 28, -7
  44 000c DF93      		push r29
  45               	.LCFI6:
  46               		.cfi_def_cfa_offset 9
  47               		.cfi_offset 29, -8
  48               	/* prologue: function */
  49               	/* frame size = 0 */
  50               	/* stack size = 7 */
  51               	.L__stack_usage = 7
  52 000e 6C01      		movw r12,r24
  53 0010 7B01      		movw r14,r22
  45:lib/lufa/LUFA/Drivers/USB/Core/AVR8/EndpointStream_AVR8.c **** 	uint8_t  ErrorCode;
  54               		.loc 1 45 2 is_stmt 1 view .LVU2
  46:lib/lufa/LUFA/Drivers/USB/Core/AVR8/EndpointStream_AVR8.c **** 	uint16_t BytesInTransfer = BytesProcessed ? *BytesProcessed : 0;
  55               		.loc 1 46 2 view .LVU3
  56               		.loc 1 46 62 is_stmt 0 view .LVU4
  57 0012 D0E0      		ldi r29,0
  58 0014 C0E0      		ldi r28,0
  59 0016 6115      		cp r22,__zero_reg__
  60 0018 7105      		cpc r23,__zero_reg__
  61 001a 01F0      		breq .L2
  62               		.loc 1 46 62 discriminator 1 view .LVU5
  63 001c FB01      		movw r30,r22
  64 001e C081      		ld r28,Z
  65 0020 D181      		ldd r29,Z+1
  66               	.LVL1:
  67               	.L2:
  47:lib/lufa/LUFA/Drivers/USB/Core/AVR8/EndpointStream_AVR8.c **** 
  48:lib/lufa/LUFA/Drivers/USB/Core/AVR8/EndpointStream_AVR8.c **** 	if ((ErrorCode = Endpoint_WaitUntilReady()))
  68               		.loc 1 48 2 is_stmt 1 discriminator 4 view .LVU6
  69               		.loc 1 48 19 is_stmt 0 discriminator 4 view .LVU7
  70 0022 0E94 0000 		call Endpoint_WaitUntilReady
  71               	.LVL2:
  72               		.loc 1 48 19 discriminator 4 view .LVU8
  73 0026 182F      		mov r17,r24
  74               	.LVL3:
  75               		.loc 1 48 5 discriminator 4 view .LVU9
  76 0028 8823      		tst r24
  77 002a 01F0      		breq .L4
  78               	.LVL4:
  79               	.L1:
  49:lib/lufa/LUFA/Drivers/USB/Core/AVR8/EndpointStream_AVR8.c **** 	  return ErrorCode;
  50:lib/lufa/LUFA/Drivers/USB/Core/AVR8/EndpointStream_AVR8.c **** 
  51:lib/lufa/LUFA/Drivers/USB/Core/AVR8/EndpointStream_AVR8.c **** 	while (BytesInTransfer < Length)
  52:lib/lufa/LUFA/Drivers/USB/Core/AVR8/EndpointStream_AVR8.c **** 	{
  53:lib/lufa/LUFA/Drivers/USB/Core/AVR8/EndpointStream_AVR8.c **** 		if (!(Endpoint_IsReadWriteAllowed()))
  54:lib/lufa/LUFA/Drivers/USB/Core/AVR8/EndpointStream_AVR8.c **** 		{
  55:lib/lufa/LUFA/Drivers/USB/Core/AVR8/EndpointStream_AVR8.c **** 			Endpoint_ClearOUT();
  56:lib/lufa/LUFA/Drivers/USB/Core/AVR8/EndpointStream_AVR8.c **** 
  57:lib/lufa/LUFA/Drivers/USB/Core/AVR8/EndpointStream_AVR8.c **** 			if (BytesProcessed != NULL)
  58:lib/lufa/LUFA/Drivers/USB/Core/AVR8/EndpointStream_AVR8.c **** 			{
  59:lib/lufa/LUFA/Drivers/USB/Core/AVR8/EndpointStream_AVR8.c **** 				*BytesProcessed = BytesInTransfer;
  60:lib/lufa/LUFA/Drivers/USB/Core/AVR8/EndpointStream_AVR8.c **** 				return ENDPOINT_RWSTREAM_IncompleteTransfer;
  61:lib/lufa/LUFA/Drivers/USB/Core/AVR8/EndpointStream_AVR8.c **** 			}
  62:lib/lufa/LUFA/Drivers/USB/Core/AVR8/EndpointStream_AVR8.c **** 
  63:lib/lufa/LUFA/Drivers/USB/Core/AVR8/EndpointStream_AVR8.c **** 			if ((ErrorCode = Endpoint_WaitUntilReady()))
  64:lib/lufa/LUFA/Drivers/USB/Core/AVR8/EndpointStream_AVR8.c **** 			  return ErrorCode;
  65:lib/lufa/LUFA/Drivers/USB/Core/AVR8/EndpointStream_AVR8.c **** 		}
  66:lib/lufa/LUFA/Drivers/USB/Core/AVR8/EndpointStream_AVR8.c **** 		else
  67:lib/lufa/LUFA/Drivers/USB/Core/AVR8/EndpointStream_AVR8.c **** 		{
  68:lib/lufa/LUFA/Drivers/USB/Core/AVR8/EndpointStream_AVR8.c **** 			Endpoint_Discard_8();
  69:lib/lufa/LUFA/Drivers/USB/Core/AVR8/EndpointStream_AVR8.c **** 			BytesInTransfer++;
  70:lib/lufa/LUFA/Drivers/USB/Core/AVR8/EndpointStream_AVR8.c **** 		}
  71:lib/lufa/LUFA/Drivers/USB/Core/AVR8/EndpointStream_AVR8.c **** 	}
  72:lib/lufa/LUFA/Drivers/USB/Core/AVR8/EndpointStream_AVR8.c **** 
  73:lib/lufa/LUFA/Drivers/USB/Core/AVR8/EndpointStream_AVR8.c **** 	return ENDPOINT_RWSTREAM_NoError;
  74:lib/lufa/LUFA/Drivers/USB/Core/AVR8/EndpointStream_AVR8.c **** }
  80               		.loc 1 74 1 view .LVU10
  81 002c 812F      		mov r24,r17
  82               	/* epilogue start */
  83 002e DF91      		pop r29
  84 0030 CF91      		pop r28
  85               	.LVL5:
  86               		.loc 1 74 1 view .LVU11
  87 0032 1F91      		pop r17
  88 0034 FF90      		pop r15
  89 0036 EF90      		pop r14
  90               	.LVL6:
  91               		.loc 1 74 1 view .LVU12
  92 0038 DF90      		pop r13
  93 003a CF90      		pop r12
  94               	.LVL7:
  95               		.loc 1 74 1 view .LVU13
  96 003c 0895      		ret
  97               	.LVL8:
  98               	.L6:
  63:lib/lufa/LUFA/Drivers/USB/Core/AVR8/EndpointStream_AVR8.c **** 			  return ErrorCode;
  99               		.loc 1 63 4 is_stmt 1 view .LVU14
  63:lib/lufa/LUFA/Drivers/USB/Core/AVR8/EndpointStream_AVR8.c **** 			  return ErrorCode;
 100               		.loc 1 63 21 is_stmt 0 view .LVU15
 101 003e 0E94 0000 		call Endpoint_WaitUntilReady
 102               	.LVL9:
  63:lib/lufa/LUFA/Drivers/USB/Core/AVR8/EndpointStream_AVR8.c **** 			  return ErrorCode;
 103               		.loc 1 63 7 view .LVU16
 104 0042 8823      		tst r24
 105 0044 01F0      		breq .L4
  63:lib/lufa/LUFA/Drivers/USB/Core/AVR8/EndpointStream_AVR8.c **** 			  return ErrorCode;
 106               		.loc 1 63 21 view .LVU17
 107 0046 182F      		mov r17,r24
 108 0048 00C0      		rjmp .L1
 109               	.LVL10:
 110               	.L5:
  68:lib/lufa/LUFA/Drivers/USB/Core/AVR8/EndpointStream_AVR8.c **** 			BytesInTransfer++;
 111               		.loc 1 68 4 is_stmt 1 view .LVU18
 112               	.LBB268:
 113               	.LBI268:
 114               		.file 2 "lib/lufa/LUFA/Drivers/USB/Core/AVR8/../AVR8/../AVR8/Endpoint_AVR8.h"
   1:lib/lufa/LUFA/Drivers/USB/Core/AVR8/../AVR8/../AVR8/Endpoint_AVR8.h **** /*
   2:lib/lufa/LUFA/Drivers/USB/Core/AVR8/../AVR8/../AVR8/Endpoint_AVR8.h ****              LUFA Library
   3:lib/lufa/LUFA/Drivers/USB/Core/AVR8/../AVR8/../AVR8/Endpoint_AVR8.h ****      Copyright (C) Dean Camera, 2019.
   4:lib/lufa/LUFA/Drivers/USB/Core/AVR8/../AVR8/../AVR8/Endpoint_AVR8.h **** 
   5:lib/lufa/LUFA/Drivers/USB/Core/AVR8/../AVR8/../AVR8/Endpoint_AVR8.h ****   dean [at] fourwalledcubicle [dot] com
   6:lib/lufa/LUFA/Drivers/USB/Core/AVR8/../AVR8/../AVR8/Endpoint_AVR8.h ****            www.lufa-lib.org
   7:lib/lufa/LUFA/Drivers/USB/Core/AVR8/../AVR8/../AVR8/Endpoint_AVR8.h **** */
   8:lib/lufa/LUFA/Drivers/USB/Core/AVR8/../AVR8/../AVR8/Endpoint_AVR8.h **** 
   9:lib/lufa/LUFA/Drivers/USB/Core/AVR8/../AVR8/../AVR8/Endpoint_AVR8.h **** /*
  10:lib/lufa/LUFA/Drivers/USB/Core/AVR8/../AVR8/../AVR8/Endpoint_AVR8.h ****   Copyright 2019  Dean Camera (dean [at] fourwalledcubicle [dot] com)
  11:lib/lufa/LUFA/Drivers/USB/Core/AVR8/../AVR8/../AVR8/Endpoint_AVR8.h **** 
  12:lib/lufa/LUFA/Drivers/USB/Core/AVR8/../AVR8/../AVR8/Endpoint_AVR8.h ****   Permission to use, copy, modify, distribute, and sell this
  13:lib/lufa/LUFA/Drivers/USB/Core/AVR8/../AVR8/../AVR8/Endpoint_AVR8.h ****   software and its documentation for any purpose is hereby granted
  14:lib/lufa/LUFA/Drivers/USB/Core/AVR8/../AVR8/../AVR8/Endpoint_AVR8.h ****   without fee, provided that the above copyright notice appear in
  15:lib/lufa/LUFA/Drivers/USB/Core/AVR8/../AVR8/../AVR8/Endpoint_AVR8.h ****   all copies and that both that the copyright notice and this
  16:lib/lufa/LUFA/Drivers/USB/Core/AVR8/../AVR8/../AVR8/Endpoint_AVR8.h ****   permission notice and warranty disclaimer appear in supporting
  17:lib/lufa/LUFA/Drivers/USB/Core/AVR8/../AVR8/../AVR8/Endpoint_AVR8.h ****   documentation, and that the name of the author not be used in
  18:lib/lufa/LUFA/Drivers/USB/Core/AVR8/../AVR8/../AVR8/Endpoint_AVR8.h ****   advertising or publicity pertaining to distribution of the
  19:lib/lufa/LUFA/Drivers/USB/Core/AVR8/../AVR8/../AVR8/Endpoint_AVR8.h ****   software without specific, written prior permission.
  20:lib/lufa/LUFA/Drivers/USB/Core/AVR8/../AVR8/../AVR8/Endpoint_AVR8.h **** 
  21:lib/lufa/LUFA/Drivers/USB/Core/AVR8/../AVR8/../AVR8/Endpoint_AVR8.h ****   The author disclaims all warranties with regard to this
  22:lib/lufa/LUFA/Drivers/USB/Core/AVR8/../AVR8/../AVR8/Endpoint_AVR8.h ****   software, including all implied warranties of merchantability
  23:lib/lufa/LUFA/Drivers/USB/Core/AVR8/../AVR8/../AVR8/Endpoint_AVR8.h ****   and fitness.  In no event shall the author be liable for any
  24:lib/lufa/LUFA/Drivers/USB/Core/AVR8/../AVR8/../AVR8/Endpoint_AVR8.h ****   special, indirect or consequential damages or any damages
  25:lib/lufa/LUFA/Drivers/USB/Core/AVR8/../AVR8/../AVR8/Endpoint_AVR8.h ****   whatsoever resulting from loss of use, data or profits, whether
  26:lib/lufa/LUFA/Drivers/USB/Core/AVR8/../AVR8/../AVR8/Endpoint_AVR8.h ****   in an action of contract, negligence or other tortious action,
  27:lib/lufa/LUFA/Drivers/USB/Core/AVR8/../AVR8/../AVR8/Endpoint_AVR8.h ****   arising out of or in connection with the use or performance of
  28:lib/lufa/LUFA/Drivers/USB/Core/AVR8/../AVR8/../AVR8/Endpoint_AVR8.h ****   this software.
  29:lib/lufa/LUFA/Drivers/USB/Core/AVR8/../AVR8/../AVR8/Endpoint_AVR8.h **** */
  30:lib/lufa/LUFA/Drivers/USB/Core/AVR8/../AVR8/../AVR8/Endpoint_AVR8.h **** 
  31:lib/lufa/LUFA/Drivers/USB/Core/AVR8/../AVR8/../AVR8/Endpoint_AVR8.h **** /** \file
  32:lib/lufa/LUFA/Drivers/USB/Core/AVR8/../AVR8/../AVR8/Endpoint_AVR8.h ****  *  \brief USB Endpoint definitions for the AVR8 microcontrollers.
  33:lib/lufa/LUFA/Drivers/USB/Core/AVR8/../AVR8/../AVR8/Endpoint_AVR8.h ****  *  \copydetails Group_EndpointManagement_AVR8
  34:lib/lufa/LUFA/Drivers/USB/Core/AVR8/../AVR8/../AVR8/Endpoint_AVR8.h ****  *
  35:lib/lufa/LUFA/Drivers/USB/Core/AVR8/../AVR8/../AVR8/Endpoint_AVR8.h ****  *  \note This file should not be included directly. It is automatically included as needed by the 
  36:lib/lufa/LUFA/Drivers/USB/Core/AVR8/../AVR8/../AVR8/Endpoint_AVR8.h ****  *        dispatch header located in LUFA/Drivers/USB/USB.h.
  37:lib/lufa/LUFA/Drivers/USB/Core/AVR8/../AVR8/../AVR8/Endpoint_AVR8.h ****  */
  38:lib/lufa/LUFA/Drivers/USB/Core/AVR8/../AVR8/../AVR8/Endpoint_AVR8.h **** 
  39:lib/lufa/LUFA/Drivers/USB/Core/AVR8/../AVR8/../AVR8/Endpoint_AVR8.h **** /** \ingroup Group_EndpointRW
  40:lib/lufa/LUFA/Drivers/USB/Core/AVR8/../AVR8/../AVR8/Endpoint_AVR8.h ****  *  \defgroup Group_EndpointRW_AVR8 Endpoint Data Reading and Writing (AVR8)
  41:lib/lufa/LUFA/Drivers/USB/Core/AVR8/../AVR8/../AVR8/Endpoint_AVR8.h ****  *  \brief Endpoint data read/write definitions for the Atmel AVR8 architecture.
  42:lib/lufa/LUFA/Drivers/USB/Core/AVR8/../AVR8/../AVR8/Endpoint_AVR8.h ****  *
  43:lib/lufa/LUFA/Drivers/USB/Core/AVR8/../AVR8/../AVR8/Endpoint_AVR8.h ****  *  Functions, macros, variables, enums and types related to data reading and writing from and to e
  44:lib/lufa/LUFA/Drivers/USB/Core/AVR8/../AVR8/../AVR8/Endpoint_AVR8.h ****  */
  45:lib/lufa/LUFA/Drivers/USB/Core/AVR8/../AVR8/../AVR8/Endpoint_AVR8.h **** 
  46:lib/lufa/LUFA/Drivers/USB/Core/AVR8/../AVR8/../AVR8/Endpoint_AVR8.h **** /** \ingroup Group_EndpointPrimitiveRW
  47:lib/lufa/LUFA/Drivers/USB/Core/AVR8/../AVR8/../AVR8/Endpoint_AVR8.h ****  *  \defgroup Group_EndpointPrimitiveRW_AVR8 Read/Write of Primitive Data Types (AVR8)
  48:lib/lufa/LUFA/Drivers/USB/Core/AVR8/../AVR8/../AVR8/Endpoint_AVR8.h ****  *  \brief Endpoint primitive read/write definitions for the Atmel AVR8 architecture.
  49:lib/lufa/LUFA/Drivers/USB/Core/AVR8/../AVR8/../AVR8/Endpoint_AVR8.h ****  *
  50:lib/lufa/LUFA/Drivers/USB/Core/AVR8/../AVR8/../AVR8/Endpoint_AVR8.h ****  *  Functions, macros, variables, enums and types related to data reading and writing of primitive 
  51:lib/lufa/LUFA/Drivers/USB/Core/AVR8/../AVR8/../AVR8/Endpoint_AVR8.h ****  *  from and to endpoints.
  52:lib/lufa/LUFA/Drivers/USB/Core/AVR8/../AVR8/../AVR8/Endpoint_AVR8.h ****  */
  53:lib/lufa/LUFA/Drivers/USB/Core/AVR8/../AVR8/../AVR8/Endpoint_AVR8.h **** 
  54:lib/lufa/LUFA/Drivers/USB/Core/AVR8/../AVR8/../AVR8/Endpoint_AVR8.h **** /** \ingroup Group_EndpointPacketManagement
  55:lib/lufa/LUFA/Drivers/USB/Core/AVR8/../AVR8/../AVR8/Endpoint_AVR8.h ****  *  \defgroup Group_EndpointPacketManagement_AVR8 Endpoint Packet Management (AVR8)
  56:lib/lufa/LUFA/Drivers/USB/Core/AVR8/../AVR8/../AVR8/Endpoint_AVR8.h ****  *  \brief Endpoint packet management definitions for the Atmel AVR8 architecture.
  57:lib/lufa/LUFA/Drivers/USB/Core/AVR8/../AVR8/../AVR8/Endpoint_AVR8.h ****  *
  58:lib/lufa/LUFA/Drivers/USB/Core/AVR8/../AVR8/../AVR8/Endpoint_AVR8.h ****  *  Functions, macros, variables, enums and types related to packet management of endpoints.
  59:lib/lufa/LUFA/Drivers/USB/Core/AVR8/../AVR8/../AVR8/Endpoint_AVR8.h ****  */
  60:lib/lufa/LUFA/Drivers/USB/Core/AVR8/../AVR8/../AVR8/Endpoint_AVR8.h **** 
  61:lib/lufa/LUFA/Drivers/USB/Core/AVR8/../AVR8/../AVR8/Endpoint_AVR8.h **** /** \ingroup Group_EndpointManagement
  62:lib/lufa/LUFA/Drivers/USB/Core/AVR8/../AVR8/../AVR8/Endpoint_AVR8.h ****  *  \defgroup Group_EndpointManagement_AVR8 Endpoint Management (AVR8)
  63:lib/lufa/LUFA/Drivers/USB/Core/AVR8/../AVR8/../AVR8/Endpoint_AVR8.h ****  *  \brief Endpoint management definitions for the Atmel AVR8 architecture.
  64:lib/lufa/LUFA/Drivers/USB/Core/AVR8/../AVR8/../AVR8/Endpoint_AVR8.h ****  *
  65:lib/lufa/LUFA/Drivers/USB/Core/AVR8/../AVR8/../AVR8/Endpoint_AVR8.h ****  *  Functions, macros and enums related to endpoint management when in USB Device mode. This
  66:lib/lufa/LUFA/Drivers/USB/Core/AVR8/../AVR8/../AVR8/Endpoint_AVR8.h ****  *  module contains the endpoint management macros, as well as endpoint interrupt and data
  67:lib/lufa/LUFA/Drivers/USB/Core/AVR8/../AVR8/../AVR8/Endpoint_AVR8.h ****  *  send/receive functions for various data types.
  68:lib/lufa/LUFA/Drivers/USB/Core/AVR8/../AVR8/../AVR8/Endpoint_AVR8.h ****  *
  69:lib/lufa/LUFA/Drivers/USB/Core/AVR8/../AVR8/../AVR8/Endpoint_AVR8.h ****  *  @{
  70:lib/lufa/LUFA/Drivers/USB/Core/AVR8/../AVR8/../AVR8/Endpoint_AVR8.h ****  */
  71:lib/lufa/LUFA/Drivers/USB/Core/AVR8/../AVR8/../AVR8/Endpoint_AVR8.h **** 
  72:lib/lufa/LUFA/Drivers/USB/Core/AVR8/../AVR8/../AVR8/Endpoint_AVR8.h **** #ifndef __ENDPOINT_AVR8_H__
  73:lib/lufa/LUFA/Drivers/USB/Core/AVR8/../AVR8/../AVR8/Endpoint_AVR8.h **** #define __ENDPOINT_AVR8_H__
  74:lib/lufa/LUFA/Drivers/USB/Core/AVR8/../AVR8/../AVR8/Endpoint_AVR8.h **** 
  75:lib/lufa/LUFA/Drivers/USB/Core/AVR8/../AVR8/../AVR8/Endpoint_AVR8.h **** 	/* Includes: */
  76:lib/lufa/LUFA/Drivers/USB/Core/AVR8/../AVR8/../AVR8/Endpoint_AVR8.h **** 		#include "../../../../Common/Common.h"
  77:lib/lufa/LUFA/Drivers/USB/Core/AVR8/../AVR8/../AVR8/Endpoint_AVR8.h **** 		#include "../USBTask.h"
  78:lib/lufa/LUFA/Drivers/USB/Core/AVR8/../AVR8/../AVR8/Endpoint_AVR8.h **** 		#include "../USBInterrupt.h"
  79:lib/lufa/LUFA/Drivers/USB/Core/AVR8/../AVR8/../AVR8/Endpoint_AVR8.h **** 
  80:lib/lufa/LUFA/Drivers/USB/Core/AVR8/../AVR8/../AVR8/Endpoint_AVR8.h **** 	/* Enable C linkage for C++ Compilers: */
  81:lib/lufa/LUFA/Drivers/USB/Core/AVR8/../AVR8/../AVR8/Endpoint_AVR8.h **** 		#if defined(__cplusplus)
  82:lib/lufa/LUFA/Drivers/USB/Core/AVR8/../AVR8/../AVR8/Endpoint_AVR8.h **** 			extern "C" {
  83:lib/lufa/LUFA/Drivers/USB/Core/AVR8/../AVR8/../AVR8/Endpoint_AVR8.h **** 		#endif
  84:lib/lufa/LUFA/Drivers/USB/Core/AVR8/../AVR8/../AVR8/Endpoint_AVR8.h **** 
  85:lib/lufa/LUFA/Drivers/USB/Core/AVR8/../AVR8/../AVR8/Endpoint_AVR8.h **** 	/* Preprocessor Checks: */
  86:lib/lufa/LUFA/Drivers/USB/Core/AVR8/../AVR8/../AVR8/Endpoint_AVR8.h **** 		#if !defined(__INCLUDE_FROM_USB_DRIVER)
  87:lib/lufa/LUFA/Drivers/USB/Core/AVR8/../AVR8/../AVR8/Endpoint_AVR8.h **** 			#error Do not include this file directly. Include LUFA/Drivers/USB/USB.h instead.
  88:lib/lufa/LUFA/Drivers/USB/Core/AVR8/../AVR8/../AVR8/Endpoint_AVR8.h **** 		#endif
  89:lib/lufa/LUFA/Drivers/USB/Core/AVR8/../AVR8/../AVR8/Endpoint_AVR8.h **** 
  90:lib/lufa/LUFA/Drivers/USB/Core/AVR8/../AVR8/../AVR8/Endpoint_AVR8.h **** 	/* Private Interface - For use in library only: */
  91:lib/lufa/LUFA/Drivers/USB/Core/AVR8/../AVR8/../AVR8/Endpoint_AVR8.h **** 	#if !defined(__DOXYGEN__)
  92:lib/lufa/LUFA/Drivers/USB/Core/AVR8/../AVR8/../AVR8/Endpoint_AVR8.h **** 		/* Inline Functions: */
  93:lib/lufa/LUFA/Drivers/USB/Core/AVR8/../AVR8/../AVR8/Endpoint_AVR8.h **** 			static inline uint8_t Endpoint_BytesToEPSizeMask(const uint16_t Bytes) ATTR_WARN_UNUSED_RESULT A
  94:lib/lufa/LUFA/Drivers/USB/Core/AVR8/../AVR8/../AVR8/Endpoint_AVR8.h **** 			                                                                       ATTR_ALWAYS_INLINE;
  95:lib/lufa/LUFA/Drivers/USB/Core/AVR8/../AVR8/../AVR8/Endpoint_AVR8.h **** 			static inline uint8_t Endpoint_BytesToEPSizeMask(const uint16_t Bytes)
  96:lib/lufa/LUFA/Drivers/USB/Core/AVR8/../AVR8/../AVR8/Endpoint_AVR8.h **** 			{
  97:lib/lufa/LUFA/Drivers/USB/Core/AVR8/../AVR8/../AVR8/Endpoint_AVR8.h **** 				uint8_t  MaskVal    = 0;
  98:lib/lufa/LUFA/Drivers/USB/Core/AVR8/../AVR8/../AVR8/Endpoint_AVR8.h **** 				uint16_t CheckBytes = 8;
  99:lib/lufa/LUFA/Drivers/USB/Core/AVR8/../AVR8/../AVR8/Endpoint_AVR8.h **** 
 100:lib/lufa/LUFA/Drivers/USB/Core/AVR8/../AVR8/../AVR8/Endpoint_AVR8.h **** 				while (CheckBytes < Bytes)
 101:lib/lufa/LUFA/Drivers/USB/Core/AVR8/../AVR8/../AVR8/Endpoint_AVR8.h **** 				{
 102:lib/lufa/LUFA/Drivers/USB/Core/AVR8/../AVR8/../AVR8/Endpoint_AVR8.h **** 					MaskVal++;
 103:lib/lufa/LUFA/Drivers/USB/Core/AVR8/../AVR8/../AVR8/Endpoint_AVR8.h **** 					CheckBytes <<= 1;
 104:lib/lufa/LUFA/Drivers/USB/Core/AVR8/../AVR8/../AVR8/Endpoint_AVR8.h **** 				}
 105:lib/lufa/LUFA/Drivers/USB/Core/AVR8/../AVR8/../AVR8/Endpoint_AVR8.h **** 
 106:lib/lufa/LUFA/Drivers/USB/Core/AVR8/../AVR8/../AVR8/Endpoint_AVR8.h **** 				return (MaskVal << EPSIZE0);
 107:lib/lufa/LUFA/Drivers/USB/Core/AVR8/../AVR8/../AVR8/Endpoint_AVR8.h **** 			}
 108:lib/lufa/LUFA/Drivers/USB/Core/AVR8/../AVR8/../AVR8/Endpoint_AVR8.h **** 
 109:lib/lufa/LUFA/Drivers/USB/Core/AVR8/../AVR8/../AVR8/Endpoint_AVR8.h **** 		/* Function Prototypes: */
 110:lib/lufa/LUFA/Drivers/USB/Core/AVR8/../AVR8/../AVR8/Endpoint_AVR8.h **** 			void Endpoint_ClearEndpoints(void);
 111:lib/lufa/LUFA/Drivers/USB/Core/AVR8/../AVR8/../AVR8/Endpoint_AVR8.h **** 			bool Endpoint_ConfigureEndpoint_Prv(const uint8_t Number,
 112:lib/lufa/LUFA/Drivers/USB/Core/AVR8/../AVR8/../AVR8/Endpoint_AVR8.h **** 			                                    const uint8_t UECFG0XData,
 113:lib/lufa/LUFA/Drivers/USB/Core/AVR8/../AVR8/../AVR8/Endpoint_AVR8.h **** 			                                    const uint8_t UECFG1XData);
 114:lib/lufa/LUFA/Drivers/USB/Core/AVR8/../AVR8/../AVR8/Endpoint_AVR8.h **** 
 115:lib/lufa/LUFA/Drivers/USB/Core/AVR8/../AVR8/../AVR8/Endpoint_AVR8.h **** 	#endif
 116:lib/lufa/LUFA/Drivers/USB/Core/AVR8/../AVR8/../AVR8/Endpoint_AVR8.h **** 
 117:lib/lufa/LUFA/Drivers/USB/Core/AVR8/../AVR8/../AVR8/Endpoint_AVR8.h **** 	/* Public Interface - May be used in end-application: */
 118:lib/lufa/LUFA/Drivers/USB/Core/AVR8/../AVR8/../AVR8/Endpoint_AVR8.h **** 		/* Macros: */
 119:lib/lufa/LUFA/Drivers/USB/Core/AVR8/../AVR8/../AVR8/Endpoint_AVR8.h **** 			#if (!defined(FIXED_CONTROL_ENDPOINT_SIZE) || defined(__DOXYGEN__))
 120:lib/lufa/LUFA/Drivers/USB/Core/AVR8/../AVR8/../AVR8/Endpoint_AVR8.h **** 				/** Default size of the default control endpoint's bank, until altered by the control endpoint 
 121:lib/lufa/LUFA/Drivers/USB/Core/AVR8/../AVR8/../AVR8/Endpoint_AVR8.h **** 				 *  value in the device descriptor. Not available if the \c FIXED_CONTROL_ENDPOINT_SIZE token i
 122:lib/lufa/LUFA/Drivers/USB/Core/AVR8/../AVR8/../AVR8/Endpoint_AVR8.h **** 				 */
 123:lib/lufa/LUFA/Drivers/USB/Core/AVR8/../AVR8/../AVR8/Endpoint_AVR8.h **** 				#define ENDPOINT_CONTROLEP_DEFAULT_SIZE     8
 124:lib/lufa/LUFA/Drivers/USB/Core/AVR8/../AVR8/../AVR8/Endpoint_AVR8.h **** 			#endif
 125:lib/lufa/LUFA/Drivers/USB/Core/AVR8/../AVR8/../AVR8/Endpoint_AVR8.h **** 
 126:lib/lufa/LUFA/Drivers/USB/Core/AVR8/../AVR8/../AVR8/Endpoint_AVR8.h **** 			#if !defined(CONTROL_ONLY_DEVICE) || defined(__DOXYGEN__)
 127:lib/lufa/LUFA/Drivers/USB/Core/AVR8/../AVR8/../AVR8/Endpoint_AVR8.h **** 				#if defined(USB_SERIES_4_AVR) || defined(USB_SERIES_6_AVR) || defined(USB_SERIES_7_AVR) || defi
 128:lib/lufa/LUFA/Drivers/USB/Core/AVR8/../AVR8/../AVR8/Endpoint_AVR8.h **** 					/** Total number of endpoints (including the default control endpoint at address 0) which may
 129:lib/lufa/LUFA/Drivers/USB/Core/AVR8/../AVR8/../AVR8/Endpoint_AVR8.h **** 					 *  be used in the device. Different USB AVR models support different amounts of endpoints,
 130:lib/lufa/LUFA/Drivers/USB/Core/AVR8/../AVR8/../AVR8/Endpoint_AVR8.h **** 					 *  this value reflects the maximum number of endpoints for the currently selected AVR model.
 131:lib/lufa/LUFA/Drivers/USB/Core/AVR8/../AVR8/../AVR8/Endpoint_AVR8.h **** 					 */
 132:lib/lufa/LUFA/Drivers/USB/Core/AVR8/../AVR8/../AVR8/Endpoint_AVR8.h **** 					#define ENDPOINT_TOTAL_ENDPOINTS        7
 133:lib/lufa/LUFA/Drivers/USB/Core/AVR8/../AVR8/../AVR8/Endpoint_AVR8.h **** 				#else
 134:lib/lufa/LUFA/Drivers/USB/Core/AVR8/../AVR8/../AVR8/Endpoint_AVR8.h **** 					#define ENDPOINT_TOTAL_ENDPOINTS        5
 135:lib/lufa/LUFA/Drivers/USB/Core/AVR8/../AVR8/../AVR8/Endpoint_AVR8.h **** 				#endif
 136:lib/lufa/LUFA/Drivers/USB/Core/AVR8/../AVR8/../AVR8/Endpoint_AVR8.h **** 			#else
 137:lib/lufa/LUFA/Drivers/USB/Core/AVR8/../AVR8/../AVR8/Endpoint_AVR8.h **** 				#define ENDPOINT_TOTAL_ENDPOINTS            1
 138:lib/lufa/LUFA/Drivers/USB/Core/AVR8/../AVR8/../AVR8/Endpoint_AVR8.h **** 			#endif
 139:lib/lufa/LUFA/Drivers/USB/Core/AVR8/../AVR8/../AVR8/Endpoint_AVR8.h **** 
 140:lib/lufa/LUFA/Drivers/USB/Core/AVR8/../AVR8/../AVR8/Endpoint_AVR8.h **** 		/* Enums: */
 141:lib/lufa/LUFA/Drivers/USB/Core/AVR8/../AVR8/../AVR8/Endpoint_AVR8.h **** 			/** Enum for the possible error return codes of the \ref Endpoint_WaitUntilReady() function.
 142:lib/lufa/LUFA/Drivers/USB/Core/AVR8/../AVR8/../AVR8/Endpoint_AVR8.h **** 			 *
 143:lib/lufa/LUFA/Drivers/USB/Core/AVR8/../AVR8/../AVR8/Endpoint_AVR8.h **** 			 *  \ingroup Group_EndpointRW_AVR8
 144:lib/lufa/LUFA/Drivers/USB/Core/AVR8/../AVR8/../AVR8/Endpoint_AVR8.h **** 			 */
 145:lib/lufa/LUFA/Drivers/USB/Core/AVR8/../AVR8/../AVR8/Endpoint_AVR8.h **** 			enum Endpoint_WaitUntilReady_ErrorCodes_t
 146:lib/lufa/LUFA/Drivers/USB/Core/AVR8/../AVR8/../AVR8/Endpoint_AVR8.h **** 			{
 147:lib/lufa/LUFA/Drivers/USB/Core/AVR8/../AVR8/../AVR8/Endpoint_AVR8.h **** 				ENDPOINT_READYWAIT_NoError                 = 0, /**< Endpoint is ready for next packet, no erro
 148:lib/lufa/LUFA/Drivers/USB/Core/AVR8/../AVR8/../AVR8/Endpoint_AVR8.h **** 				ENDPOINT_READYWAIT_EndpointStalled         = 1, /**< The endpoint was stalled during the stream
 149:lib/lufa/LUFA/Drivers/USB/Core/AVR8/../AVR8/../AVR8/Endpoint_AVR8.h **** 				                                                 *   transfer by the host or device.
 150:lib/lufa/LUFA/Drivers/USB/Core/AVR8/../AVR8/../AVR8/Endpoint_AVR8.h **** 				                                                 */
 151:lib/lufa/LUFA/Drivers/USB/Core/AVR8/../AVR8/../AVR8/Endpoint_AVR8.h **** 				ENDPOINT_READYWAIT_DeviceDisconnected      = 2,	/**< Device was disconnected from the host whil
 152:lib/lufa/LUFA/Drivers/USB/Core/AVR8/../AVR8/../AVR8/Endpoint_AVR8.h **** 				                                                 *   waiting for the endpoint to become ready.
 153:lib/lufa/LUFA/Drivers/USB/Core/AVR8/../AVR8/../AVR8/Endpoint_AVR8.h **** 				                                                 */
 154:lib/lufa/LUFA/Drivers/USB/Core/AVR8/../AVR8/../AVR8/Endpoint_AVR8.h **** 				ENDPOINT_READYWAIT_BusSuspended            = 3, /**< The USB bus has been suspended by the host
 155:lib/lufa/LUFA/Drivers/USB/Core/AVR8/../AVR8/../AVR8/Endpoint_AVR8.h **** 				                                                 *   no USB endpoint traffic can occur until th
 156:lib/lufa/LUFA/Drivers/USB/Core/AVR8/../AVR8/../AVR8/Endpoint_AVR8.h **** 				                                                 *   has resumed.
 157:lib/lufa/LUFA/Drivers/USB/Core/AVR8/../AVR8/../AVR8/Endpoint_AVR8.h **** 				                                                 */
 158:lib/lufa/LUFA/Drivers/USB/Core/AVR8/../AVR8/../AVR8/Endpoint_AVR8.h **** 				ENDPOINT_READYWAIT_Timeout                 = 4, /**< The host failed to accept or send the next
 159:lib/lufa/LUFA/Drivers/USB/Core/AVR8/../AVR8/../AVR8/Endpoint_AVR8.h **** 				                                                 *   within the software timeout period set by 
 160:lib/lufa/LUFA/Drivers/USB/Core/AVR8/../AVR8/../AVR8/Endpoint_AVR8.h **** 				                                                 *   \ref USB_STREAM_TIMEOUT_MS macro.
 161:lib/lufa/LUFA/Drivers/USB/Core/AVR8/../AVR8/../AVR8/Endpoint_AVR8.h **** 				                                                 */
 162:lib/lufa/LUFA/Drivers/USB/Core/AVR8/../AVR8/../AVR8/Endpoint_AVR8.h **** 			};
 163:lib/lufa/LUFA/Drivers/USB/Core/AVR8/../AVR8/../AVR8/Endpoint_AVR8.h **** 
 164:lib/lufa/LUFA/Drivers/USB/Core/AVR8/../AVR8/../AVR8/Endpoint_AVR8.h **** 		/* Inline Functions: */
 165:lib/lufa/LUFA/Drivers/USB/Core/AVR8/../AVR8/../AVR8/Endpoint_AVR8.h **** 			/** Configures the specified endpoint address with the given endpoint type, bank size and number
 166:lib/lufa/LUFA/Drivers/USB/Core/AVR8/../AVR8/../AVR8/Endpoint_AVR8.h **** 			 *  banks. Once configured, the endpoint may be read from or written to, depending on its direct
 167:lib/lufa/LUFA/Drivers/USB/Core/AVR8/../AVR8/../AVR8/Endpoint_AVR8.h **** 			 *
 168:lib/lufa/LUFA/Drivers/USB/Core/AVR8/../AVR8/../AVR8/Endpoint_AVR8.h **** 			 *  \param[in] Address    Endpoint address to configure.
 169:lib/lufa/LUFA/Drivers/USB/Core/AVR8/../AVR8/../AVR8/Endpoint_AVR8.h **** 			 *
 170:lib/lufa/LUFA/Drivers/USB/Core/AVR8/../AVR8/../AVR8/Endpoint_AVR8.h **** 			 *  \param[in] Type       Type of endpoint to configure, a \c EP_TYPE_* mask. Not all endpoint t
 171:lib/lufa/LUFA/Drivers/USB/Core/AVR8/../AVR8/../AVR8/Endpoint_AVR8.h **** 			 *                        are available on Low Speed USB devices - refer to the USB 2.0 specific
 172:lib/lufa/LUFA/Drivers/USB/Core/AVR8/../AVR8/../AVR8/Endpoint_AVR8.h **** 			 *
 173:lib/lufa/LUFA/Drivers/USB/Core/AVR8/../AVR8/../AVR8/Endpoint_AVR8.h **** 			 *  \param[in] Size       Size of the endpoint's bank, where packets are stored before they are 
 174:lib/lufa/LUFA/Drivers/USB/Core/AVR8/../AVR8/../AVR8/Endpoint_AVR8.h **** 			 *                        to the USB host, or after they have been received from the USB host (d
 175:lib/lufa/LUFA/Drivers/USB/Core/AVR8/../AVR8/../AVR8/Endpoint_AVR8.h **** 			 *                        the endpoint's data direction). The bank size must indicate the maximu
 176:lib/lufa/LUFA/Drivers/USB/Core/AVR8/../AVR8/../AVR8/Endpoint_AVR8.h **** 			 *                        that the endpoint can handle.
 177:lib/lufa/LUFA/Drivers/USB/Core/AVR8/../AVR8/../AVR8/Endpoint_AVR8.h **** 			 *
 178:lib/lufa/LUFA/Drivers/USB/Core/AVR8/../AVR8/../AVR8/Endpoint_AVR8.h **** 			 *  \param[in] Banks      Number of banks to use for the endpoint being configured.
 179:lib/lufa/LUFA/Drivers/USB/Core/AVR8/../AVR8/../AVR8/Endpoint_AVR8.h **** 			 *
 180:lib/lufa/LUFA/Drivers/USB/Core/AVR8/../AVR8/../AVR8/Endpoint_AVR8.h **** 			 *  \attention When the \c ORDERED_EP_CONFIG compile time option is used, Endpoints <b>must</b> 
 181:lib/lufa/LUFA/Drivers/USB/Core/AVR8/../AVR8/../AVR8/Endpoint_AVR8.h **** 			 *             ascending order, or bank corruption will occur.
 182:lib/lufa/LUFA/Drivers/USB/Core/AVR8/../AVR8/../AVR8/Endpoint_AVR8.h **** 			 *
 183:lib/lufa/LUFA/Drivers/USB/Core/AVR8/../AVR8/../AVR8/Endpoint_AVR8.h **** 			 *  \note Different endpoints may have different maximum packet sizes based on the endpoint's in
 184:lib/lufa/LUFA/Drivers/USB/Core/AVR8/../AVR8/../AVR8/Endpoint_AVR8.h **** 			 *        refer to the chosen microcontroller model's datasheet to determine the maximum bank si
 185:lib/lufa/LUFA/Drivers/USB/Core/AVR8/../AVR8/../AVR8/Endpoint_AVR8.h **** 			 *        \n\n
 186:lib/lufa/LUFA/Drivers/USB/Core/AVR8/../AVR8/../AVR8/Endpoint_AVR8.h **** 			 *
 187:lib/lufa/LUFA/Drivers/USB/Core/AVR8/../AVR8/../AVR8/Endpoint_AVR8.h **** 			 *  \note The default control endpoint should not be manually configured by the user application
 188:lib/lufa/LUFA/Drivers/USB/Core/AVR8/../AVR8/../AVR8/Endpoint_AVR8.h **** 			 *        it is automatically configured by the library internally.
 189:lib/lufa/LUFA/Drivers/USB/Core/AVR8/../AVR8/../AVR8/Endpoint_AVR8.h **** 			 *        \n\n
 190:lib/lufa/LUFA/Drivers/USB/Core/AVR8/../AVR8/../AVR8/Endpoint_AVR8.h **** 			 *
 191:lib/lufa/LUFA/Drivers/USB/Core/AVR8/../AVR8/../AVR8/Endpoint_AVR8.h **** 			 *  \note This routine will automatically select the specified endpoint upon success. Upon failu
 192:lib/lufa/LUFA/Drivers/USB/Core/AVR8/../AVR8/../AVR8/Endpoint_AVR8.h **** 			 *        which failed to reconfigure correctly will be selected.
 193:lib/lufa/LUFA/Drivers/USB/Core/AVR8/../AVR8/../AVR8/Endpoint_AVR8.h **** 			 *
 194:lib/lufa/LUFA/Drivers/USB/Core/AVR8/../AVR8/../AVR8/Endpoint_AVR8.h **** 			 *  \return Boolean \c true if the configuration succeeded, \c false otherwise.
 195:lib/lufa/LUFA/Drivers/USB/Core/AVR8/../AVR8/../AVR8/Endpoint_AVR8.h **** 			 */
 196:lib/lufa/LUFA/Drivers/USB/Core/AVR8/../AVR8/../AVR8/Endpoint_AVR8.h **** 			static inline bool Endpoint_ConfigureEndpoint(const uint8_t Address,
 197:lib/lufa/LUFA/Drivers/USB/Core/AVR8/../AVR8/../AVR8/Endpoint_AVR8.h **** 			                                              const uint8_t Type,
 198:lib/lufa/LUFA/Drivers/USB/Core/AVR8/../AVR8/../AVR8/Endpoint_AVR8.h **** 			                                              const uint16_t Size,
 199:lib/lufa/LUFA/Drivers/USB/Core/AVR8/../AVR8/../AVR8/Endpoint_AVR8.h **** 			                                              const uint8_t Banks) ATTR_ALWAYS_INLINE;
 200:lib/lufa/LUFA/Drivers/USB/Core/AVR8/../AVR8/../AVR8/Endpoint_AVR8.h **** 			static inline bool Endpoint_ConfigureEndpoint(const uint8_t Address,
 201:lib/lufa/LUFA/Drivers/USB/Core/AVR8/../AVR8/../AVR8/Endpoint_AVR8.h **** 			                                              const uint8_t Type,
 202:lib/lufa/LUFA/Drivers/USB/Core/AVR8/../AVR8/../AVR8/Endpoint_AVR8.h **** 			                                              const uint16_t Size,
 203:lib/lufa/LUFA/Drivers/USB/Core/AVR8/../AVR8/../AVR8/Endpoint_AVR8.h **** 			                                              const uint8_t Banks)
 204:lib/lufa/LUFA/Drivers/USB/Core/AVR8/../AVR8/../AVR8/Endpoint_AVR8.h **** 			{
 205:lib/lufa/LUFA/Drivers/USB/Core/AVR8/../AVR8/../AVR8/Endpoint_AVR8.h **** 				uint8_t Number = (Address & ENDPOINT_EPNUM_MASK);
 206:lib/lufa/LUFA/Drivers/USB/Core/AVR8/../AVR8/../AVR8/Endpoint_AVR8.h **** 
 207:lib/lufa/LUFA/Drivers/USB/Core/AVR8/../AVR8/../AVR8/Endpoint_AVR8.h **** 				if (Number >= ENDPOINT_TOTAL_ENDPOINTS)
 208:lib/lufa/LUFA/Drivers/USB/Core/AVR8/../AVR8/../AVR8/Endpoint_AVR8.h **** 				  return false;
 209:lib/lufa/LUFA/Drivers/USB/Core/AVR8/../AVR8/../AVR8/Endpoint_AVR8.h **** 
 210:lib/lufa/LUFA/Drivers/USB/Core/AVR8/../AVR8/../AVR8/Endpoint_AVR8.h **** 				return Endpoint_ConfigureEndpoint_Prv(Number,
 211:lib/lufa/LUFA/Drivers/USB/Core/AVR8/../AVR8/../AVR8/Endpoint_AVR8.h **** 				                                      ((Type << EPTYPE0) | ((Address & ENDPOINT_DIR_IN) ? (1 <<
 212:lib/lufa/LUFA/Drivers/USB/Core/AVR8/../AVR8/../AVR8/Endpoint_AVR8.h **** 				                                      ((1 << ALLOC) | ((Banks > 1) ? (1 << EPBK0) : 0) | Endpoi
 213:lib/lufa/LUFA/Drivers/USB/Core/AVR8/../AVR8/../AVR8/Endpoint_AVR8.h **** 			}
 214:lib/lufa/LUFA/Drivers/USB/Core/AVR8/../AVR8/../AVR8/Endpoint_AVR8.h **** 
 215:lib/lufa/LUFA/Drivers/USB/Core/AVR8/../AVR8/../AVR8/Endpoint_AVR8.h **** 			/** Indicates the number of bytes currently stored in the current endpoint's selected bank.
 216:lib/lufa/LUFA/Drivers/USB/Core/AVR8/../AVR8/../AVR8/Endpoint_AVR8.h **** 			 *
 217:lib/lufa/LUFA/Drivers/USB/Core/AVR8/../AVR8/../AVR8/Endpoint_AVR8.h **** 			 *  \ingroup Group_EndpointRW_AVR8
 218:lib/lufa/LUFA/Drivers/USB/Core/AVR8/../AVR8/../AVR8/Endpoint_AVR8.h **** 			 *
 219:lib/lufa/LUFA/Drivers/USB/Core/AVR8/../AVR8/../AVR8/Endpoint_AVR8.h **** 			 *  \return Total number of bytes in the currently selected Endpoint's FIFO buffer.
 220:lib/lufa/LUFA/Drivers/USB/Core/AVR8/../AVR8/../AVR8/Endpoint_AVR8.h **** 			 */
 221:lib/lufa/LUFA/Drivers/USB/Core/AVR8/../AVR8/../AVR8/Endpoint_AVR8.h **** 			static inline uint16_t Endpoint_BytesInEndpoint(void) ATTR_WARN_UNUSED_RESULT ATTR_ALWAYS_INLINE
 222:lib/lufa/LUFA/Drivers/USB/Core/AVR8/../AVR8/../AVR8/Endpoint_AVR8.h **** 			static inline uint16_t Endpoint_BytesInEndpoint(void)
 223:lib/lufa/LUFA/Drivers/USB/Core/AVR8/../AVR8/../AVR8/Endpoint_AVR8.h **** 			{
 224:lib/lufa/LUFA/Drivers/USB/Core/AVR8/../AVR8/../AVR8/Endpoint_AVR8.h **** 				#if (defined(USB_SERIES_6_AVR) || defined(USB_SERIES_7_AVR))
 225:lib/lufa/LUFA/Drivers/USB/Core/AVR8/../AVR8/../AVR8/Endpoint_AVR8.h **** 					return UEBCX;
 226:lib/lufa/LUFA/Drivers/USB/Core/AVR8/../AVR8/../AVR8/Endpoint_AVR8.h **** 				#elif defined(USB_SERIES_4_AVR)
 227:lib/lufa/LUFA/Drivers/USB/Core/AVR8/../AVR8/../AVR8/Endpoint_AVR8.h **** 					return (((uint16_t)UEBCHX << 8) | UEBCLX);
 228:lib/lufa/LUFA/Drivers/USB/Core/AVR8/../AVR8/../AVR8/Endpoint_AVR8.h **** 				#elif defined(USB_SERIES_2_AVR)
 229:lib/lufa/LUFA/Drivers/USB/Core/AVR8/../AVR8/../AVR8/Endpoint_AVR8.h **** 					return UEBCLX;
 230:lib/lufa/LUFA/Drivers/USB/Core/AVR8/../AVR8/../AVR8/Endpoint_AVR8.h **** 				#endif
 231:lib/lufa/LUFA/Drivers/USB/Core/AVR8/../AVR8/../AVR8/Endpoint_AVR8.h **** 			}
 232:lib/lufa/LUFA/Drivers/USB/Core/AVR8/../AVR8/../AVR8/Endpoint_AVR8.h **** 
 233:lib/lufa/LUFA/Drivers/USB/Core/AVR8/../AVR8/../AVR8/Endpoint_AVR8.h **** 			/** Determines the currently selected endpoint's direction.
 234:lib/lufa/LUFA/Drivers/USB/Core/AVR8/../AVR8/../AVR8/Endpoint_AVR8.h **** 			 *
 235:lib/lufa/LUFA/Drivers/USB/Core/AVR8/../AVR8/../AVR8/Endpoint_AVR8.h **** 			 *  \return The currently selected endpoint's direction, as a \c ENDPOINT_DIR_* mask.
 236:lib/lufa/LUFA/Drivers/USB/Core/AVR8/../AVR8/../AVR8/Endpoint_AVR8.h **** 			 */
 237:lib/lufa/LUFA/Drivers/USB/Core/AVR8/../AVR8/../AVR8/Endpoint_AVR8.h **** 			static inline uint8_t Endpoint_GetEndpointDirection(void) ATTR_WARN_UNUSED_RESULT ATTR_ALWAYS_IN
 238:lib/lufa/LUFA/Drivers/USB/Core/AVR8/../AVR8/../AVR8/Endpoint_AVR8.h **** 			static inline uint8_t Endpoint_GetEndpointDirection(void)
 239:lib/lufa/LUFA/Drivers/USB/Core/AVR8/../AVR8/../AVR8/Endpoint_AVR8.h **** 			{
 240:lib/lufa/LUFA/Drivers/USB/Core/AVR8/../AVR8/../AVR8/Endpoint_AVR8.h **** 				return (UECFG0X & (1 << EPDIR)) ? ENDPOINT_DIR_IN : ENDPOINT_DIR_OUT;
 241:lib/lufa/LUFA/Drivers/USB/Core/AVR8/../AVR8/../AVR8/Endpoint_AVR8.h **** 			}
 242:lib/lufa/LUFA/Drivers/USB/Core/AVR8/../AVR8/../AVR8/Endpoint_AVR8.h **** 
 243:lib/lufa/LUFA/Drivers/USB/Core/AVR8/../AVR8/../AVR8/Endpoint_AVR8.h **** 			/** Get the endpoint address of the currently selected endpoint. This is typically used to save
 244:lib/lufa/LUFA/Drivers/USB/Core/AVR8/../AVR8/../AVR8/Endpoint_AVR8.h **** 			 *  the currently selected endpoint so that it can be restored after another endpoint has been
 245:lib/lufa/LUFA/Drivers/USB/Core/AVR8/../AVR8/../AVR8/Endpoint_AVR8.h **** 			 *  manipulated.
 246:lib/lufa/LUFA/Drivers/USB/Core/AVR8/../AVR8/../AVR8/Endpoint_AVR8.h **** 			 *
 247:lib/lufa/LUFA/Drivers/USB/Core/AVR8/../AVR8/../AVR8/Endpoint_AVR8.h **** 			 *  \return Index of the currently selected endpoint.
 248:lib/lufa/LUFA/Drivers/USB/Core/AVR8/../AVR8/../AVR8/Endpoint_AVR8.h **** 			 */
 249:lib/lufa/LUFA/Drivers/USB/Core/AVR8/../AVR8/../AVR8/Endpoint_AVR8.h **** 			static inline uint8_t Endpoint_GetCurrentEndpoint(void) ATTR_WARN_UNUSED_RESULT ATTR_ALWAYS_INLI
 250:lib/lufa/LUFA/Drivers/USB/Core/AVR8/../AVR8/../AVR8/Endpoint_AVR8.h **** 			static inline uint8_t Endpoint_GetCurrentEndpoint(void)
 251:lib/lufa/LUFA/Drivers/USB/Core/AVR8/../AVR8/../AVR8/Endpoint_AVR8.h **** 			{
 252:lib/lufa/LUFA/Drivers/USB/Core/AVR8/../AVR8/../AVR8/Endpoint_AVR8.h **** 				#if !defined(CONTROL_ONLY_DEVICE)
 253:lib/lufa/LUFA/Drivers/USB/Core/AVR8/../AVR8/../AVR8/Endpoint_AVR8.h **** 					return ((UENUM & ENDPOINT_EPNUM_MASK) | Endpoint_GetEndpointDirection());
 254:lib/lufa/LUFA/Drivers/USB/Core/AVR8/../AVR8/../AVR8/Endpoint_AVR8.h **** 				#else
 255:lib/lufa/LUFA/Drivers/USB/Core/AVR8/../AVR8/../AVR8/Endpoint_AVR8.h **** 					return ENDPOINT_CONTROLEP;
 256:lib/lufa/LUFA/Drivers/USB/Core/AVR8/../AVR8/../AVR8/Endpoint_AVR8.h **** 				#endif
 257:lib/lufa/LUFA/Drivers/USB/Core/AVR8/../AVR8/../AVR8/Endpoint_AVR8.h **** 			}
 258:lib/lufa/LUFA/Drivers/USB/Core/AVR8/../AVR8/../AVR8/Endpoint_AVR8.h **** 
 259:lib/lufa/LUFA/Drivers/USB/Core/AVR8/../AVR8/../AVR8/Endpoint_AVR8.h **** 			/** Selects the given endpoint address.
 260:lib/lufa/LUFA/Drivers/USB/Core/AVR8/../AVR8/../AVR8/Endpoint_AVR8.h **** 			 *
 261:lib/lufa/LUFA/Drivers/USB/Core/AVR8/../AVR8/../AVR8/Endpoint_AVR8.h **** 			 *  Any endpoint operations which do not require the endpoint address to be indicated will opera
 262:lib/lufa/LUFA/Drivers/USB/Core/AVR8/../AVR8/../AVR8/Endpoint_AVR8.h **** 			 *  the currently selected endpoint.
 263:lib/lufa/LUFA/Drivers/USB/Core/AVR8/../AVR8/../AVR8/Endpoint_AVR8.h **** 			 *
 264:lib/lufa/LUFA/Drivers/USB/Core/AVR8/../AVR8/../AVR8/Endpoint_AVR8.h **** 			 *  \param[in] Address Endpoint address to select.
 265:lib/lufa/LUFA/Drivers/USB/Core/AVR8/../AVR8/../AVR8/Endpoint_AVR8.h **** 			 */
 266:lib/lufa/LUFA/Drivers/USB/Core/AVR8/../AVR8/../AVR8/Endpoint_AVR8.h **** 			static inline void Endpoint_SelectEndpoint(const uint8_t Address) ATTR_ALWAYS_INLINE;
 267:lib/lufa/LUFA/Drivers/USB/Core/AVR8/../AVR8/../AVR8/Endpoint_AVR8.h **** 			static inline void Endpoint_SelectEndpoint(const uint8_t Address)
 268:lib/lufa/LUFA/Drivers/USB/Core/AVR8/../AVR8/../AVR8/Endpoint_AVR8.h **** 			{
 269:lib/lufa/LUFA/Drivers/USB/Core/AVR8/../AVR8/../AVR8/Endpoint_AVR8.h **** 				#if !defined(CONTROL_ONLY_DEVICE)
 270:lib/lufa/LUFA/Drivers/USB/Core/AVR8/../AVR8/../AVR8/Endpoint_AVR8.h **** 					UENUM = (Address & ENDPOINT_EPNUM_MASK);
 271:lib/lufa/LUFA/Drivers/USB/Core/AVR8/../AVR8/../AVR8/Endpoint_AVR8.h **** 				#endif
 272:lib/lufa/LUFA/Drivers/USB/Core/AVR8/../AVR8/../AVR8/Endpoint_AVR8.h **** 			}
 273:lib/lufa/LUFA/Drivers/USB/Core/AVR8/../AVR8/../AVR8/Endpoint_AVR8.h **** 
 274:lib/lufa/LUFA/Drivers/USB/Core/AVR8/../AVR8/../AVR8/Endpoint_AVR8.h **** 			/** Resets the endpoint bank FIFO. This clears all the endpoint banks and resets the USB control
 275:lib/lufa/LUFA/Drivers/USB/Core/AVR8/../AVR8/../AVR8/Endpoint_AVR8.h **** 			 *  data In and Out pointers to the bank's contents.
 276:lib/lufa/LUFA/Drivers/USB/Core/AVR8/../AVR8/../AVR8/Endpoint_AVR8.h **** 			 *
 277:lib/lufa/LUFA/Drivers/USB/Core/AVR8/../AVR8/../AVR8/Endpoint_AVR8.h **** 			 *  \param[in] Address  Endpoint address whose FIFO buffers are to be reset.
 278:lib/lufa/LUFA/Drivers/USB/Core/AVR8/../AVR8/../AVR8/Endpoint_AVR8.h **** 			 */
 279:lib/lufa/LUFA/Drivers/USB/Core/AVR8/../AVR8/../AVR8/Endpoint_AVR8.h **** 			static inline void Endpoint_ResetEndpoint(const uint8_t Address) ATTR_ALWAYS_INLINE;
 280:lib/lufa/LUFA/Drivers/USB/Core/AVR8/../AVR8/../AVR8/Endpoint_AVR8.h **** 			static inline void Endpoint_ResetEndpoint(const uint8_t Address)
 281:lib/lufa/LUFA/Drivers/USB/Core/AVR8/../AVR8/../AVR8/Endpoint_AVR8.h **** 			{
 282:lib/lufa/LUFA/Drivers/USB/Core/AVR8/../AVR8/../AVR8/Endpoint_AVR8.h **** 				UERST = (1 << (Address & ENDPOINT_EPNUM_MASK));
 283:lib/lufa/LUFA/Drivers/USB/Core/AVR8/../AVR8/../AVR8/Endpoint_AVR8.h **** 				UERST = 0;
 284:lib/lufa/LUFA/Drivers/USB/Core/AVR8/../AVR8/../AVR8/Endpoint_AVR8.h **** 			}
 285:lib/lufa/LUFA/Drivers/USB/Core/AVR8/../AVR8/../AVR8/Endpoint_AVR8.h **** 
 286:lib/lufa/LUFA/Drivers/USB/Core/AVR8/../AVR8/../AVR8/Endpoint_AVR8.h **** 			/** Enables the currently selected endpoint so that data can be sent and received through it to
 287:lib/lufa/LUFA/Drivers/USB/Core/AVR8/../AVR8/../AVR8/Endpoint_AVR8.h **** 			 *  and from a host.
 288:lib/lufa/LUFA/Drivers/USB/Core/AVR8/../AVR8/../AVR8/Endpoint_AVR8.h **** 			 *
 289:lib/lufa/LUFA/Drivers/USB/Core/AVR8/../AVR8/../AVR8/Endpoint_AVR8.h **** 			 *  \note Endpoints must first be configured properly via \ref Endpoint_ConfigureEndpoint().
 290:lib/lufa/LUFA/Drivers/USB/Core/AVR8/../AVR8/../AVR8/Endpoint_AVR8.h **** 			 */
 291:lib/lufa/LUFA/Drivers/USB/Core/AVR8/../AVR8/../AVR8/Endpoint_AVR8.h **** 			static inline void Endpoint_EnableEndpoint(void) ATTR_ALWAYS_INLINE;
 292:lib/lufa/LUFA/Drivers/USB/Core/AVR8/../AVR8/../AVR8/Endpoint_AVR8.h **** 			static inline void Endpoint_EnableEndpoint(void)
 293:lib/lufa/LUFA/Drivers/USB/Core/AVR8/../AVR8/../AVR8/Endpoint_AVR8.h **** 			{
 294:lib/lufa/LUFA/Drivers/USB/Core/AVR8/../AVR8/../AVR8/Endpoint_AVR8.h **** 				UECONX |= (1 << EPEN);
 295:lib/lufa/LUFA/Drivers/USB/Core/AVR8/../AVR8/../AVR8/Endpoint_AVR8.h **** 			}
 296:lib/lufa/LUFA/Drivers/USB/Core/AVR8/../AVR8/../AVR8/Endpoint_AVR8.h **** 
 297:lib/lufa/LUFA/Drivers/USB/Core/AVR8/../AVR8/../AVR8/Endpoint_AVR8.h **** 			/** Disables the currently selected endpoint so that data cannot be sent and received through it
 298:lib/lufa/LUFA/Drivers/USB/Core/AVR8/../AVR8/../AVR8/Endpoint_AVR8.h **** 			 *  to and from a host.
 299:lib/lufa/LUFA/Drivers/USB/Core/AVR8/../AVR8/../AVR8/Endpoint_AVR8.h **** 			 */
 300:lib/lufa/LUFA/Drivers/USB/Core/AVR8/../AVR8/../AVR8/Endpoint_AVR8.h **** 			static inline void Endpoint_DisableEndpoint(void) ATTR_ALWAYS_INLINE;
 301:lib/lufa/LUFA/Drivers/USB/Core/AVR8/../AVR8/../AVR8/Endpoint_AVR8.h **** 			static inline void Endpoint_DisableEndpoint(void)
 302:lib/lufa/LUFA/Drivers/USB/Core/AVR8/../AVR8/../AVR8/Endpoint_AVR8.h **** 			{
 303:lib/lufa/LUFA/Drivers/USB/Core/AVR8/../AVR8/../AVR8/Endpoint_AVR8.h **** 				UECONX &= ~(1 << EPEN);
 304:lib/lufa/LUFA/Drivers/USB/Core/AVR8/../AVR8/../AVR8/Endpoint_AVR8.h **** 			}
 305:lib/lufa/LUFA/Drivers/USB/Core/AVR8/../AVR8/../AVR8/Endpoint_AVR8.h **** 
 306:lib/lufa/LUFA/Drivers/USB/Core/AVR8/../AVR8/../AVR8/Endpoint_AVR8.h **** 			/** Determines if the currently selected endpoint is enabled, but not necessarily configured.
 307:lib/lufa/LUFA/Drivers/USB/Core/AVR8/../AVR8/../AVR8/Endpoint_AVR8.h **** 			 *
 308:lib/lufa/LUFA/Drivers/USB/Core/AVR8/../AVR8/../AVR8/Endpoint_AVR8.h **** 			 * \return Boolean \c true if the currently selected endpoint is enabled, \c false otherwise.
 309:lib/lufa/LUFA/Drivers/USB/Core/AVR8/../AVR8/../AVR8/Endpoint_AVR8.h **** 			 */
 310:lib/lufa/LUFA/Drivers/USB/Core/AVR8/../AVR8/../AVR8/Endpoint_AVR8.h **** 			static inline bool Endpoint_IsEnabled(void) ATTR_WARN_UNUSED_RESULT ATTR_ALWAYS_INLINE;
 311:lib/lufa/LUFA/Drivers/USB/Core/AVR8/../AVR8/../AVR8/Endpoint_AVR8.h **** 			static inline bool Endpoint_IsEnabled(void)
 312:lib/lufa/LUFA/Drivers/USB/Core/AVR8/../AVR8/../AVR8/Endpoint_AVR8.h **** 			{
 313:lib/lufa/LUFA/Drivers/USB/Core/AVR8/../AVR8/../AVR8/Endpoint_AVR8.h **** 				return ((UECONX & (1 << EPEN)) ? true : false);
 314:lib/lufa/LUFA/Drivers/USB/Core/AVR8/../AVR8/../AVR8/Endpoint_AVR8.h **** 			}
 315:lib/lufa/LUFA/Drivers/USB/Core/AVR8/../AVR8/../AVR8/Endpoint_AVR8.h **** 
 316:lib/lufa/LUFA/Drivers/USB/Core/AVR8/../AVR8/../AVR8/Endpoint_AVR8.h **** 			/** Retrieves the number of busy banks in the currently selected endpoint, which have been queue
 317:lib/lufa/LUFA/Drivers/USB/Core/AVR8/../AVR8/../AVR8/Endpoint_AVR8.h **** 			 *  transmission via the \ref Endpoint_ClearIN() command, or are awaiting acknowledgment via the
 318:lib/lufa/LUFA/Drivers/USB/Core/AVR8/../AVR8/../AVR8/Endpoint_AVR8.h **** 			 *  \ref Endpoint_ClearOUT() command.
 319:lib/lufa/LUFA/Drivers/USB/Core/AVR8/../AVR8/../AVR8/Endpoint_AVR8.h **** 			 *
 320:lib/lufa/LUFA/Drivers/USB/Core/AVR8/../AVR8/../AVR8/Endpoint_AVR8.h **** 			 *  \ingroup Group_EndpointPacketManagement_AVR8
 321:lib/lufa/LUFA/Drivers/USB/Core/AVR8/../AVR8/../AVR8/Endpoint_AVR8.h **** 			 *
 322:lib/lufa/LUFA/Drivers/USB/Core/AVR8/../AVR8/../AVR8/Endpoint_AVR8.h **** 			 *  \return Total number of busy banks in the selected endpoint.
 323:lib/lufa/LUFA/Drivers/USB/Core/AVR8/../AVR8/../AVR8/Endpoint_AVR8.h **** 			 */
 324:lib/lufa/LUFA/Drivers/USB/Core/AVR8/../AVR8/../AVR8/Endpoint_AVR8.h **** 			static inline uint8_t Endpoint_GetBusyBanks(void) ATTR_ALWAYS_INLINE ATTR_WARN_UNUSED_RESULT;
 325:lib/lufa/LUFA/Drivers/USB/Core/AVR8/../AVR8/../AVR8/Endpoint_AVR8.h **** 			static inline uint8_t Endpoint_GetBusyBanks(void)
 326:lib/lufa/LUFA/Drivers/USB/Core/AVR8/../AVR8/../AVR8/Endpoint_AVR8.h **** 			{
 327:lib/lufa/LUFA/Drivers/USB/Core/AVR8/../AVR8/../AVR8/Endpoint_AVR8.h **** 				return (UESTA0X & (0x03 << NBUSYBK0));
 328:lib/lufa/LUFA/Drivers/USB/Core/AVR8/../AVR8/../AVR8/Endpoint_AVR8.h **** 			}
 329:lib/lufa/LUFA/Drivers/USB/Core/AVR8/../AVR8/../AVR8/Endpoint_AVR8.h **** 
 330:lib/lufa/LUFA/Drivers/USB/Core/AVR8/../AVR8/../AVR8/Endpoint_AVR8.h **** 			/** Aborts all pending IN transactions on the currently selected endpoint, once the bank
 331:lib/lufa/LUFA/Drivers/USB/Core/AVR8/../AVR8/../AVR8/Endpoint_AVR8.h **** 			 *  has been queued for transmission to the host via \ref Endpoint_ClearIN(). This function
 332:lib/lufa/LUFA/Drivers/USB/Core/AVR8/../AVR8/../AVR8/Endpoint_AVR8.h **** 			 *  will terminate all queued transactions, resetting the endpoint banks ready for a new
 333:lib/lufa/LUFA/Drivers/USB/Core/AVR8/../AVR8/../AVR8/Endpoint_AVR8.h **** 			 *  packet.
 334:lib/lufa/LUFA/Drivers/USB/Core/AVR8/../AVR8/../AVR8/Endpoint_AVR8.h **** 			 *
 335:lib/lufa/LUFA/Drivers/USB/Core/AVR8/../AVR8/../AVR8/Endpoint_AVR8.h **** 			 *  \ingroup Group_EndpointPacketManagement_AVR8
 336:lib/lufa/LUFA/Drivers/USB/Core/AVR8/../AVR8/../AVR8/Endpoint_AVR8.h **** 			 */
 337:lib/lufa/LUFA/Drivers/USB/Core/AVR8/../AVR8/../AVR8/Endpoint_AVR8.h **** 			static inline void Endpoint_AbortPendingIN(void)
 338:lib/lufa/LUFA/Drivers/USB/Core/AVR8/../AVR8/../AVR8/Endpoint_AVR8.h **** 			{
 339:lib/lufa/LUFA/Drivers/USB/Core/AVR8/../AVR8/../AVR8/Endpoint_AVR8.h **** 				while (Endpoint_GetBusyBanks() != 0)
 340:lib/lufa/LUFA/Drivers/USB/Core/AVR8/../AVR8/../AVR8/Endpoint_AVR8.h **** 				{
 341:lib/lufa/LUFA/Drivers/USB/Core/AVR8/../AVR8/../AVR8/Endpoint_AVR8.h **** 					UEINTX |= (1 << RXOUTI);
 342:lib/lufa/LUFA/Drivers/USB/Core/AVR8/../AVR8/../AVR8/Endpoint_AVR8.h **** 					while (UEINTX & (1 << RXOUTI));
 343:lib/lufa/LUFA/Drivers/USB/Core/AVR8/../AVR8/../AVR8/Endpoint_AVR8.h **** 				}
 344:lib/lufa/LUFA/Drivers/USB/Core/AVR8/../AVR8/../AVR8/Endpoint_AVR8.h **** 			}
 345:lib/lufa/LUFA/Drivers/USB/Core/AVR8/../AVR8/../AVR8/Endpoint_AVR8.h **** 
 346:lib/lufa/LUFA/Drivers/USB/Core/AVR8/../AVR8/../AVR8/Endpoint_AVR8.h **** 			/** Determines if the currently selected endpoint may be read from (if data is waiting in the en
 347:lib/lufa/LUFA/Drivers/USB/Core/AVR8/../AVR8/../AVR8/Endpoint_AVR8.h **** 			 *  bank and the endpoint is an OUT direction, or if the bank is not yet full if the endpoint is
 348:lib/lufa/LUFA/Drivers/USB/Core/AVR8/../AVR8/../AVR8/Endpoint_AVR8.h **** 			 *  direction). This function will return false if an error has occurred in the endpoint, if the
 349:lib/lufa/LUFA/Drivers/USB/Core/AVR8/../AVR8/../AVR8/Endpoint_AVR8.h **** 			 *  is an OUT direction and no packet (or an empty packet) has been received, or if the endpoint
 350:lib/lufa/LUFA/Drivers/USB/Core/AVR8/../AVR8/../AVR8/Endpoint_AVR8.h **** 			 *  direction and the endpoint bank is full.
 351:lib/lufa/LUFA/Drivers/USB/Core/AVR8/../AVR8/../AVR8/Endpoint_AVR8.h **** 			 *
 352:lib/lufa/LUFA/Drivers/USB/Core/AVR8/../AVR8/../AVR8/Endpoint_AVR8.h **** 			 *  \ingroup Group_EndpointPacketManagement_AVR8
 353:lib/lufa/LUFA/Drivers/USB/Core/AVR8/../AVR8/../AVR8/Endpoint_AVR8.h **** 			 *
 354:lib/lufa/LUFA/Drivers/USB/Core/AVR8/../AVR8/../AVR8/Endpoint_AVR8.h **** 			 *  \return Boolean \c true if the currently selected endpoint may be read from or written to, d
 355:lib/lufa/LUFA/Drivers/USB/Core/AVR8/../AVR8/../AVR8/Endpoint_AVR8.h **** 			 *          on its direction.
 356:lib/lufa/LUFA/Drivers/USB/Core/AVR8/../AVR8/../AVR8/Endpoint_AVR8.h **** 			 */
 357:lib/lufa/LUFA/Drivers/USB/Core/AVR8/../AVR8/../AVR8/Endpoint_AVR8.h **** 			static inline bool Endpoint_IsReadWriteAllowed(void) ATTR_WARN_UNUSED_RESULT ATTR_ALWAYS_INLINE;
 358:lib/lufa/LUFA/Drivers/USB/Core/AVR8/../AVR8/../AVR8/Endpoint_AVR8.h **** 			static inline bool Endpoint_IsReadWriteAllowed(void)
 359:lib/lufa/LUFA/Drivers/USB/Core/AVR8/../AVR8/../AVR8/Endpoint_AVR8.h **** 			{
 360:lib/lufa/LUFA/Drivers/USB/Core/AVR8/../AVR8/../AVR8/Endpoint_AVR8.h **** 				return ((UEINTX & (1 << RWAL)) ? true : false);
 361:lib/lufa/LUFA/Drivers/USB/Core/AVR8/../AVR8/../AVR8/Endpoint_AVR8.h **** 			}
 362:lib/lufa/LUFA/Drivers/USB/Core/AVR8/../AVR8/../AVR8/Endpoint_AVR8.h **** 
 363:lib/lufa/LUFA/Drivers/USB/Core/AVR8/../AVR8/../AVR8/Endpoint_AVR8.h **** 			/** Determines if the currently selected endpoint is configured.
 364:lib/lufa/LUFA/Drivers/USB/Core/AVR8/../AVR8/../AVR8/Endpoint_AVR8.h **** 			 *
 365:lib/lufa/LUFA/Drivers/USB/Core/AVR8/../AVR8/../AVR8/Endpoint_AVR8.h **** 			 *  \return Boolean \c true if the currently selected endpoint has been configured, \c false oth
 366:lib/lufa/LUFA/Drivers/USB/Core/AVR8/../AVR8/../AVR8/Endpoint_AVR8.h **** 			 */
 367:lib/lufa/LUFA/Drivers/USB/Core/AVR8/../AVR8/../AVR8/Endpoint_AVR8.h **** 			static inline bool Endpoint_IsConfigured(void) ATTR_WARN_UNUSED_RESULT ATTR_ALWAYS_INLINE;
 368:lib/lufa/LUFA/Drivers/USB/Core/AVR8/../AVR8/../AVR8/Endpoint_AVR8.h **** 			static inline bool Endpoint_IsConfigured(void)
 369:lib/lufa/LUFA/Drivers/USB/Core/AVR8/../AVR8/../AVR8/Endpoint_AVR8.h **** 			{
 370:lib/lufa/LUFA/Drivers/USB/Core/AVR8/../AVR8/../AVR8/Endpoint_AVR8.h **** 				return ((UESTA0X & (1 << CFGOK)) ? true : false);
 371:lib/lufa/LUFA/Drivers/USB/Core/AVR8/../AVR8/../AVR8/Endpoint_AVR8.h **** 			}
 372:lib/lufa/LUFA/Drivers/USB/Core/AVR8/../AVR8/../AVR8/Endpoint_AVR8.h **** 
 373:lib/lufa/LUFA/Drivers/USB/Core/AVR8/../AVR8/../AVR8/Endpoint_AVR8.h **** 			/** Returns a mask indicating which INTERRUPT type endpoints have interrupted - i.e. their
 374:lib/lufa/LUFA/Drivers/USB/Core/AVR8/../AVR8/../AVR8/Endpoint_AVR8.h **** 			 *  interrupt duration has elapsed. Which endpoints have interrupted can be determined by
 375:lib/lufa/LUFA/Drivers/USB/Core/AVR8/../AVR8/../AVR8/Endpoint_AVR8.h **** 			 *  masking the return value against <tt>(1 << <i>{Endpoint Number}</i>)</tt>.
 376:lib/lufa/LUFA/Drivers/USB/Core/AVR8/../AVR8/../AVR8/Endpoint_AVR8.h **** 			 *
 377:lib/lufa/LUFA/Drivers/USB/Core/AVR8/../AVR8/../AVR8/Endpoint_AVR8.h **** 			 *  \return Mask whose bits indicate which endpoints have interrupted.
 378:lib/lufa/LUFA/Drivers/USB/Core/AVR8/../AVR8/../AVR8/Endpoint_AVR8.h **** 			 */
 379:lib/lufa/LUFA/Drivers/USB/Core/AVR8/../AVR8/../AVR8/Endpoint_AVR8.h **** 			static inline uint8_t Endpoint_GetEndpointInterrupts(void) ATTR_WARN_UNUSED_RESULT ATTR_ALWAYS_I
 380:lib/lufa/LUFA/Drivers/USB/Core/AVR8/../AVR8/../AVR8/Endpoint_AVR8.h **** 			static inline uint8_t Endpoint_GetEndpointInterrupts(void)
 381:lib/lufa/LUFA/Drivers/USB/Core/AVR8/../AVR8/../AVR8/Endpoint_AVR8.h **** 			{
 382:lib/lufa/LUFA/Drivers/USB/Core/AVR8/../AVR8/../AVR8/Endpoint_AVR8.h **** 				return UEINT;
 383:lib/lufa/LUFA/Drivers/USB/Core/AVR8/../AVR8/../AVR8/Endpoint_AVR8.h **** 			}
 384:lib/lufa/LUFA/Drivers/USB/Core/AVR8/../AVR8/../AVR8/Endpoint_AVR8.h **** 
 385:lib/lufa/LUFA/Drivers/USB/Core/AVR8/../AVR8/../AVR8/Endpoint_AVR8.h **** 			/** Determines if the specified endpoint number has interrupted (valid only for INTERRUPT type
 386:lib/lufa/LUFA/Drivers/USB/Core/AVR8/../AVR8/../AVR8/Endpoint_AVR8.h **** 			 *  endpoints).
 387:lib/lufa/LUFA/Drivers/USB/Core/AVR8/../AVR8/../AVR8/Endpoint_AVR8.h **** 			 *
 388:lib/lufa/LUFA/Drivers/USB/Core/AVR8/../AVR8/../AVR8/Endpoint_AVR8.h **** 			 *  \param[in] Address  Address of the endpoint whose interrupt flag should be tested.
 389:lib/lufa/LUFA/Drivers/USB/Core/AVR8/../AVR8/../AVR8/Endpoint_AVR8.h **** 			 *
 390:lib/lufa/LUFA/Drivers/USB/Core/AVR8/../AVR8/../AVR8/Endpoint_AVR8.h **** 			 *  \return Boolean \c true if the specified endpoint has interrupted, \c false otherwise.
 391:lib/lufa/LUFA/Drivers/USB/Core/AVR8/../AVR8/../AVR8/Endpoint_AVR8.h **** 			 */
 392:lib/lufa/LUFA/Drivers/USB/Core/AVR8/../AVR8/../AVR8/Endpoint_AVR8.h **** 			static inline bool Endpoint_HasEndpointInterrupted(const uint8_t Address) ATTR_WARN_UNUSED_RESUL
 393:lib/lufa/LUFA/Drivers/USB/Core/AVR8/../AVR8/../AVR8/Endpoint_AVR8.h **** 			static inline bool Endpoint_HasEndpointInterrupted(const uint8_t Address)
 394:lib/lufa/LUFA/Drivers/USB/Core/AVR8/../AVR8/../AVR8/Endpoint_AVR8.h **** 			{
 395:lib/lufa/LUFA/Drivers/USB/Core/AVR8/../AVR8/../AVR8/Endpoint_AVR8.h **** 				return ((Endpoint_GetEndpointInterrupts() & (1 << (Address & ENDPOINT_EPNUM_MASK))) ? true : fa
 396:lib/lufa/LUFA/Drivers/USB/Core/AVR8/../AVR8/../AVR8/Endpoint_AVR8.h **** 			}
 397:lib/lufa/LUFA/Drivers/USB/Core/AVR8/../AVR8/../AVR8/Endpoint_AVR8.h **** 
 398:lib/lufa/LUFA/Drivers/USB/Core/AVR8/../AVR8/../AVR8/Endpoint_AVR8.h **** 			/** Determines if the selected IN endpoint is ready for a new packet to be sent to the host.
 399:lib/lufa/LUFA/Drivers/USB/Core/AVR8/../AVR8/../AVR8/Endpoint_AVR8.h **** 			 *
 400:lib/lufa/LUFA/Drivers/USB/Core/AVR8/../AVR8/../AVR8/Endpoint_AVR8.h **** 			 *  \ingroup Group_EndpointPacketManagement_AVR8
 401:lib/lufa/LUFA/Drivers/USB/Core/AVR8/../AVR8/../AVR8/Endpoint_AVR8.h **** 			 *
 402:lib/lufa/LUFA/Drivers/USB/Core/AVR8/../AVR8/../AVR8/Endpoint_AVR8.h **** 			 *  \return Boolean \c true if the current endpoint is ready for an IN packet, \c false otherwis
 403:lib/lufa/LUFA/Drivers/USB/Core/AVR8/../AVR8/../AVR8/Endpoint_AVR8.h **** 			 */
 404:lib/lufa/LUFA/Drivers/USB/Core/AVR8/../AVR8/../AVR8/Endpoint_AVR8.h **** 			static inline bool Endpoint_IsINReady(void) ATTR_WARN_UNUSED_RESULT ATTR_ALWAYS_INLINE;
 405:lib/lufa/LUFA/Drivers/USB/Core/AVR8/../AVR8/../AVR8/Endpoint_AVR8.h **** 			static inline bool Endpoint_IsINReady(void)
 406:lib/lufa/LUFA/Drivers/USB/Core/AVR8/../AVR8/../AVR8/Endpoint_AVR8.h **** 			{
 407:lib/lufa/LUFA/Drivers/USB/Core/AVR8/../AVR8/../AVR8/Endpoint_AVR8.h **** 				return ((UEINTX & (1 << TXINI)) ? true : false);
 408:lib/lufa/LUFA/Drivers/USB/Core/AVR8/../AVR8/../AVR8/Endpoint_AVR8.h **** 			}
 409:lib/lufa/LUFA/Drivers/USB/Core/AVR8/../AVR8/../AVR8/Endpoint_AVR8.h **** 
 410:lib/lufa/LUFA/Drivers/USB/Core/AVR8/../AVR8/../AVR8/Endpoint_AVR8.h **** 			/** Determines if the selected OUT endpoint has received new packet from the host.
 411:lib/lufa/LUFA/Drivers/USB/Core/AVR8/../AVR8/../AVR8/Endpoint_AVR8.h **** 			 *
 412:lib/lufa/LUFA/Drivers/USB/Core/AVR8/../AVR8/../AVR8/Endpoint_AVR8.h **** 			 *  \ingroup Group_EndpointPacketManagement_AVR8
 413:lib/lufa/LUFA/Drivers/USB/Core/AVR8/../AVR8/../AVR8/Endpoint_AVR8.h **** 			 *
 414:lib/lufa/LUFA/Drivers/USB/Core/AVR8/../AVR8/../AVR8/Endpoint_AVR8.h **** 			 *  \return Boolean \c true if current endpoint is has received an OUT packet, \c false otherwis
 415:lib/lufa/LUFA/Drivers/USB/Core/AVR8/../AVR8/../AVR8/Endpoint_AVR8.h **** 			 */
 416:lib/lufa/LUFA/Drivers/USB/Core/AVR8/../AVR8/../AVR8/Endpoint_AVR8.h **** 			static inline bool Endpoint_IsOUTReceived(void) ATTR_WARN_UNUSED_RESULT ATTR_ALWAYS_INLINE;
 417:lib/lufa/LUFA/Drivers/USB/Core/AVR8/../AVR8/../AVR8/Endpoint_AVR8.h **** 			static inline bool Endpoint_IsOUTReceived(void)
 418:lib/lufa/LUFA/Drivers/USB/Core/AVR8/../AVR8/../AVR8/Endpoint_AVR8.h **** 			{
 419:lib/lufa/LUFA/Drivers/USB/Core/AVR8/../AVR8/../AVR8/Endpoint_AVR8.h **** 				return ((UEINTX & (1 << RXOUTI)) ? true : false);
 420:lib/lufa/LUFA/Drivers/USB/Core/AVR8/../AVR8/../AVR8/Endpoint_AVR8.h **** 			}
 421:lib/lufa/LUFA/Drivers/USB/Core/AVR8/../AVR8/../AVR8/Endpoint_AVR8.h **** 
 422:lib/lufa/LUFA/Drivers/USB/Core/AVR8/../AVR8/../AVR8/Endpoint_AVR8.h **** 			/** Determines if the current CONTROL type endpoint has received a SETUP packet.
 423:lib/lufa/LUFA/Drivers/USB/Core/AVR8/../AVR8/../AVR8/Endpoint_AVR8.h **** 			 *
 424:lib/lufa/LUFA/Drivers/USB/Core/AVR8/../AVR8/../AVR8/Endpoint_AVR8.h **** 			 *  \ingroup Group_EndpointPacketManagement_AVR8
 425:lib/lufa/LUFA/Drivers/USB/Core/AVR8/../AVR8/../AVR8/Endpoint_AVR8.h **** 			 *
 426:lib/lufa/LUFA/Drivers/USB/Core/AVR8/../AVR8/../AVR8/Endpoint_AVR8.h **** 			 *  \return Boolean \c true if the selected endpoint has received a SETUP packet, \c false other
 427:lib/lufa/LUFA/Drivers/USB/Core/AVR8/../AVR8/../AVR8/Endpoint_AVR8.h **** 			 */
 428:lib/lufa/LUFA/Drivers/USB/Core/AVR8/../AVR8/../AVR8/Endpoint_AVR8.h **** 			static inline bool Endpoint_IsSETUPReceived(void) ATTR_WARN_UNUSED_RESULT ATTR_ALWAYS_INLINE;
 429:lib/lufa/LUFA/Drivers/USB/Core/AVR8/../AVR8/../AVR8/Endpoint_AVR8.h **** 			static inline bool Endpoint_IsSETUPReceived(void)
 430:lib/lufa/LUFA/Drivers/USB/Core/AVR8/../AVR8/../AVR8/Endpoint_AVR8.h **** 			{
 431:lib/lufa/LUFA/Drivers/USB/Core/AVR8/../AVR8/../AVR8/Endpoint_AVR8.h **** 				return ((UEINTX & (1 << RXSTPI)) ? true : false);
 432:lib/lufa/LUFA/Drivers/USB/Core/AVR8/../AVR8/../AVR8/Endpoint_AVR8.h **** 			}
 433:lib/lufa/LUFA/Drivers/USB/Core/AVR8/../AVR8/../AVR8/Endpoint_AVR8.h **** 
 434:lib/lufa/LUFA/Drivers/USB/Core/AVR8/../AVR8/../AVR8/Endpoint_AVR8.h **** 			/** Clears a received SETUP packet on the currently selected CONTROL type endpoint, freeing up t
 435:lib/lufa/LUFA/Drivers/USB/Core/AVR8/../AVR8/../AVR8/Endpoint_AVR8.h **** 			 *  endpoint for the next packet.
 436:lib/lufa/LUFA/Drivers/USB/Core/AVR8/../AVR8/../AVR8/Endpoint_AVR8.h **** 			 *
 437:lib/lufa/LUFA/Drivers/USB/Core/AVR8/../AVR8/../AVR8/Endpoint_AVR8.h **** 			 *  \ingroup Group_EndpointPacketManagement_AVR8
 438:lib/lufa/LUFA/Drivers/USB/Core/AVR8/../AVR8/../AVR8/Endpoint_AVR8.h **** 			 *
 439:lib/lufa/LUFA/Drivers/USB/Core/AVR8/../AVR8/../AVR8/Endpoint_AVR8.h **** 			 *  \note This is not applicable for non CONTROL type endpoints.
 440:lib/lufa/LUFA/Drivers/USB/Core/AVR8/../AVR8/../AVR8/Endpoint_AVR8.h **** 			 */
 441:lib/lufa/LUFA/Drivers/USB/Core/AVR8/../AVR8/../AVR8/Endpoint_AVR8.h **** 			static inline void Endpoint_ClearSETUP(void) ATTR_ALWAYS_INLINE;
 442:lib/lufa/LUFA/Drivers/USB/Core/AVR8/../AVR8/../AVR8/Endpoint_AVR8.h **** 			static inline void Endpoint_ClearSETUP(void)
 443:lib/lufa/LUFA/Drivers/USB/Core/AVR8/../AVR8/../AVR8/Endpoint_AVR8.h **** 			{
 444:lib/lufa/LUFA/Drivers/USB/Core/AVR8/../AVR8/../AVR8/Endpoint_AVR8.h **** 				UEINTX &= ~(1 << RXSTPI);
 445:lib/lufa/LUFA/Drivers/USB/Core/AVR8/../AVR8/../AVR8/Endpoint_AVR8.h **** 			}
 446:lib/lufa/LUFA/Drivers/USB/Core/AVR8/../AVR8/../AVR8/Endpoint_AVR8.h **** 
 447:lib/lufa/LUFA/Drivers/USB/Core/AVR8/../AVR8/../AVR8/Endpoint_AVR8.h **** 			/** Sends an IN packet to the host on the currently selected endpoint, freeing up the endpoint f
 448:lib/lufa/LUFA/Drivers/USB/Core/AVR8/../AVR8/../AVR8/Endpoint_AVR8.h **** 			 *  next packet and switching to the alternative endpoint bank if double banked.
 449:lib/lufa/LUFA/Drivers/USB/Core/AVR8/../AVR8/../AVR8/Endpoint_AVR8.h **** 			 *
 450:lib/lufa/LUFA/Drivers/USB/Core/AVR8/../AVR8/../AVR8/Endpoint_AVR8.h **** 			 *  \ingroup Group_EndpointPacketManagement_AVR8
 451:lib/lufa/LUFA/Drivers/USB/Core/AVR8/../AVR8/../AVR8/Endpoint_AVR8.h **** 			 */
 452:lib/lufa/LUFA/Drivers/USB/Core/AVR8/../AVR8/../AVR8/Endpoint_AVR8.h **** 			static inline void Endpoint_ClearIN(void) ATTR_ALWAYS_INLINE;
 453:lib/lufa/LUFA/Drivers/USB/Core/AVR8/../AVR8/../AVR8/Endpoint_AVR8.h **** 			static inline void Endpoint_ClearIN(void)
 454:lib/lufa/LUFA/Drivers/USB/Core/AVR8/../AVR8/../AVR8/Endpoint_AVR8.h **** 			{
 455:lib/lufa/LUFA/Drivers/USB/Core/AVR8/../AVR8/../AVR8/Endpoint_AVR8.h **** 				#if !defined(CONTROL_ONLY_DEVICE)
 456:lib/lufa/LUFA/Drivers/USB/Core/AVR8/../AVR8/../AVR8/Endpoint_AVR8.h **** 					UEINTX &= ~((1 << TXINI) | (1 << FIFOCON));
 457:lib/lufa/LUFA/Drivers/USB/Core/AVR8/../AVR8/../AVR8/Endpoint_AVR8.h **** 				#else
 458:lib/lufa/LUFA/Drivers/USB/Core/AVR8/../AVR8/../AVR8/Endpoint_AVR8.h **** 					UEINTX &= ~(1 << TXINI);
 459:lib/lufa/LUFA/Drivers/USB/Core/AVR8/../AVR8/../AVR8/Endpoint_AVR8.h **** 				#endif
 460:lib/lufa/LUFA/Drivers/USB/Core/AVR8/../AVR8/../AVR8/Endpoint_AVR8.h **** 			}
 461:lib/lufa/LUFA/Drivers/USB/Core/AVR8/../AVR8/../AVR8/Endpoint_AVR8.h **** 
 462:lib/lufa/LUFA/Drivers/USB/Core/AVR8/../AVR8/../AVR8/Endpoint_AVR8.h **** 			/** Acknowledges an OUT packet to the host on the currently selected endpoint, freeing up the en
 463:lib/lufa/LUFA/Drivers/USB/Core/AVR8/../AVR8/../AVR8/Endpoint_AVR8.h **** 			 *  for the next packet and switching to the alternative endpoint bank if double banked.
 464:lib/lufa/LUFA/Drivers/USB/Core/AVR8/../AVR8/../AVR8/Endpoint_AVR8.h **** 			 *
 465:lib/lufa/LUFA/Drivers/USB/Core/AVR8/../AVR8/../AVR8/Endpoint_AVR8.h **** 			 *  \ingroup Group_EndpointPacketManagement_AVR8
 466:lib/lufa/LUFA/Drivers/USB/Core/AVR8/../AVR8/../AVR8/Endpoint_AVR8.h **** 			 */
 467:lib/lufa/LUFA/Drivers/USB/Core/AVR8/../AVR8/../AVR8/Endpoint_AVR8.h **** 			static inline void Endpoint_ClearOUT(void) ATTR_ALWAYS_INLINE;
 468:lib/lufa/LUFA/Drivers/USB/Core/AVR8/../AVR8/../AVR8/Endpoint_AVR8.h **** 			static inline void Endpoint_ClearOUT(void)
 469:lib/lufa/LUFA/Drivers/USB/Core/AVR8/../AVR8/../AVR8/Endpoint_AVR8.h **** 			{
 470:lib/lufa/LUFA/Drivers/USB/Core/AVR8/../AVR8/../AVR8/Endpoint_AVR8.h **** 				#if !defined(CONTROL_ONLY_DEVICE)
 471:lib/lufa/LUFA/Drivers/USB/Core/AVR8/../AVR8/../AVR8/Endpoint_AVR8.h **** 					UEINTX &= ~((1 << RXOUTI) | (1 << FIFOCON));
 472:lib/lufa/LUFA/Drivers/USB/Core/AVR8/../AVR8/../AVR8/Endpoint_AVR8.h **** 				#else
 473:lib/lufa/LUFA/Drivers/USB/Core/AVR8/../AVR8/../AVR8/Endpoint_AVR8.h **** 					UEINTX &= ~(1 << RXOUTI);
 474:lib/lufa/LUFA/Drivers/USB/Core/AVR8/../AVR8/../AVR8/Endpoint_AVR8.h **** 				#endif
 475:lib/lufa/LUFA/Drivers/USB/Core/AVR8/../AVR8/../AVR8/Endpoint_AVR8.h **** 			}
 476:lib/lufa/LUFA/Drivers/USB/Core/AVR8/../AVR8/../AVR8/Endpoint_AVR8.h **** 
 477:lib/lufa/LUFA/Drivers/USB/Core/AVR8/../AVR8/../AVR8/Endpoint_AVR8.h **** 			/** Stalls the current endpoint, indicating to the host that a logical problem occurred with the
 478:lib/lufa/LUFA/Drivers/USB/Core/AVR8/../AVR8/../AVR8/Endpoint_AVR8.h **** 			 *  indicated endpoint and that the current transfer sequence should be aborted. This provides a
 479:lib/lufa/LUFA/Drivers/USB/Core/AVR8/../AVR8/../AVR8/Endpoint_AVR8.h **** 			 *  way for devices to indicate invalid commands to the host so that the current transfer can be
 480:lib/lufa/LUFA/Drivers/USB/Core/AVR8/../AVR8/../AVR8/Endpoint_AVR8.h **** 			 *  aborted and the host can begin its own recovery sequence.
 481:lib/lufa/LUFA/Drivers/USB/Core/AVR8/../AVR8/../AVR8/Endpoint_AVR8.h **** 			 *
 482:lib/lufa/LUFA/Drivers/USB/Core/AVR8/../AVR8/../AVR8/Endpoint_AVR8.h **** 			 *  The currently selected endpoint remains stalled until either the \ref Endpoint_ClearStall() 
 483:lib/lufa/LUFA/Drivers/USB/Core/AVR8/../AVR8/../AVR8/Endpoint_AVR8.h **** 			 *  is called, or the host issues a CLEAR FEATURE request to the device for the currently select
 484:lib/lufa/LUFA/Drivers/USB/Core/AVR8/../AVR8/../AVR8/Endpoint_AVR8.h **** 			 *  endpoint.
 485:lib/lufa/LUFA/Drivers/USB/Core/AVR8/../AVR8/../AVR8/Endpoint_AVR8.h **** 			 *
 486:lib/lufa/LUFA/Drivers/USB/Core/AVR8/../AVR8/../AVR8/Endpoint_AVR8.h **** 			 *  \ingroup Group_EndpointPacketManagement_AVR8
 487:lib/lufa/LUFA/Drivers/USB/Core/AVR8/../AVR8/../AVR8/Endpoint_AVR8.h **** 			 */
 488:lib/lufa/LUFA/Drivers/USB/Core/AVR8/../AVR8/../AVR8/Endpoint_AVR8.h **** 			static inline void Endpoint_StallTransaction(void) ATTR_ALWAYS_INLINE;
 489:lib/lufa/LUFA/Drivers/USB/Core/AVR8/../AVR8/../AVR8/Endpoint_AVR8.h **** 			static inline void Endpoint_StallTransaction(void)
 490:lib/lufa/LUFA/Drivers/USB/Core/AVR8/../AVR8/../AVR8/Endpoint_AVR8.h **** 			{
 491:lib/lufa/LUFA/Drivers/USB/Core/AVR8/../AVR8/../AVR8/Endpoint_AVR8.h **** 				UECONX |= (1 << STALLRQ);
 492:lib/lufa/LUFA/Drivers/USB/Core/AVR8/../AVR8/../AVR8/Endpoint_AVR8.h **** 			}
 493:lib/lufa/LUFA/Drivers/USB/Core/AVR8/../AVR8/../AVR8/Endpoint_AVR8.h **** 
 494:lib/lufa/LUFA/Drivers/USB/Core/AVR8/../AVR8/../AVR8/Endpoint_AVR8.h **** 			/** Clears the STALL condition on the currently selected endpoint.
 495:lib/lufa/LUFA/Drivers/USB/Core/AVR8/../AVR8/../AVR8/Endpoint_AVR8.h **** 			 *
 496:lib/lufa/LUFA/Drivers/USB/Core/AVR8/../AVR8/../AVR8/Endpoint_AVR8.h **** 			 *  \ingroup Group_EndpointPacketManagement_AVR8
 497:lib/lufa/LUFA/Drivers/USB/Core/AVR8/../AVR8/../AVR8/Endpoint_AVR8.h **** 			 */
 498:lib/lufa/LUFA/Drivers/USB/Core/AVR8/../AVR8/../AVR8/Endpoint_AVR8.h **** 			static inline void Endpoint_ClearStall(void) ATTR_ALWAYS_INLINE;
 499:lib/lufa/LUFA/Drivers/USB/Core/AVR8/../AVR8/../AVR8/Endpoint_AVR8.h **** 			static inline void Endpoint_ClearStall(void)
 500:lib/lufa/LUFA/Drivers/USB/Core/AVR8/../AVR8/../AVR8/Endpoint_AVR8.h **** 			{
 501:lib/lufa/LUFA/Drivers/USB/Core/AVR8/../AVR8/../AVR8/Endpoint_AVR8.h **** 				UECONX |= (1 << STALLRQC);
 502:lib/lufa/LUFA/Drivers/USB/Core/AVR8/../AVR8/../AVR8/Endpoint_AVR8.h **** 			}
 503:lib/lufa/LUFA/Drivers/USB/Core/AVR8/../AVR8/../AVR8/Endpoint_AVR8.h **** 
 504:lib/lufa/LUFA/Drivers/USB/Core/AVR8/../AVR8/../AVR8/Endpoint_AVR8.h **** 			/** Determines if the currently selected endpoint is stalled, \c false otherwise.
 505:lib/lufa/LUFA/Drivers/USB/Core/AVR8/../AVR8/../AVR8/Endpoint_AVR8.h **** 			 *
 506:lib/lufa/LUFA/Drivers/USB/Core/AVR8/../AVR8/../AVR8/Endpoint_AVR8.h **** 			 *  \ingroup Group_EndpointPacketManagement_AVR8
 507:lib/lufa/LUFA/Drivers/USB/Core/AVR8/../AVR8/../AVR8/Endpoint_AVR8.h **** 			 *
 508:lib/lufa/LUFA/Drivers/USB/Core/AVR8/../AVR8/../AVR8/Endpoint_AVR8.h **** 			 *  \return Boolean \c true if the currently selected endpoint is stalled, \c false otherwise.
 509:lib/lufa/LUFA/Drivers/USB/Core/AVR8/../AVR8/../AVR8/Endpoint_AVR8.h **** 			 */
 510:lib/lufa/LUFA/Drivers/USB/Core/AVR8/../AVR8/../AVR8/Endpoint_AVR8.h **** 			static inline bool Endpoint_IsStalled(void) ATTR_WARN_UNUSED_RESULT ATTR_ALWAYS_INLINE;
 511:lib/lufa/LUFA/Drivers/USB/Core/AVR8/../AVR8/../AVR8/Endpoint_AVR8.h **** 			static inline bool Endpoint_IsStalled(void)
 512:lib/lufa/LUFA/Drivers/USB/Core/AVR8/../AVR8/../AVR8/Endpoint_AVR8.h **** 			{
 513:lib/lufa/LUFA/Drivers/USB/Core/AVR8/../AVR8/../AVR8/Endpoint_AVR8.h **** 				return ((UECONX & (1 << STALLRQ)) ? true : false);
 514:lib/lufa/LUFA/Drivers/USB/Core/AVR8/../AVR8/../AVR8/Endpoint_AVR8.h **** 			}
 515:lib/lufa/LUFA/Drivers/USB/Core/AVR8/../AVR8/../AVR8/Endpoint_AVR8.h **** 
 516:lib/lufa/LUFA/Drivers/USB/Core/AVR8/../AVR8/../AVR8/Endpoint_AVR8.h **** 			/** Resets the data toggle of the currently selected endpoint. */
 517:lib/lufa/LUFA/Drivers/USB/Core/AVR8/../AVR8/../AVR8/Endpoint_AVR8.h **** 			static inline void Endpoint_ResetDataToggle(void) ATTR_ALWAYS_INLINE;
 518:lib/lufa/LUFA/Drivers/USB/Core/AVR8/../AVR8/../AVR8/Endpoint_AVR8.h **** 			static inline void Endpoint_ResetDataToggle(void)
 519:lib/lufa/LUFA/Drivers/USB/Core/AVR8/../AVR8/../AVR8/Endpoint_AVR8.h **** 			{
 520:lib/lufa/LUFA/Drivers/USB/Core/AVR8/../AVR8/../AVR8/Endpoint_AVR8.h **** 				UECONX |= (1 << RSTDT);
 521:lib/lufa/LUFA/Drivers/USB/Core/AVR8/../AVR8/../AVR8/Endpoint_AVR8.h **** 			}
 522:lib/lufa/LUFA/Drivers/USB/Core/AVR8/../AVR8/../AVR8/Endpoint_AVR8.h **** 
 523:lib/lufa/LUFA/Drivers/USB/Core/AVR8/../AVR8/../AVR8/Endpoint_AVR8.h **** 			/** Sets the direction of the currently selected endpoint.
 524:lib/lufa/LUFA/Drivers/USB/Core/AVR8/../AVR8/../AVR8/Endpoint_AVR8.h **** 			 *
 525:lib/lufa/LUFA/Drivers/USB/Core/AVR8/../AVR8/../AVR8/Endpoint_AVR8.h **** 			 *  \param[in] DirectionMask  New endpoint direction, as a \c ENDPOINT_DIR_* mask.
 526:lib/lufa/LUFA/Drivers/USB/Core/AVR8/../AVR8/../AVR8/Endpoint_AVR8.h **** 			 */
 527:lib/lufa/LUFA/Drivers/USB/Core/AVR8/../AVR8/../AVR8/Endpoint_AVR8.h **** 			static inline void Endpoint_SetEndpointDirection(const uint8_t DirectionMask) ATTR_ALWAYS_INLINE
 528:lib/lufa/LUFA/Drivers/USB/Core/AVR8/../AVR8/../AVR8/Endpoint_AVR8.h **** 			static inline void Endpoint_SetEndpointDirection(const uint8_t DirectionMask)
 529:lib/lufa/LUFA/Drivers/USB/Core/AVR8/../AVR8/../AVR8/Endpoint_AVR8.h **** 			{
 530:lib/lufa/LUFA/Drivers/USB/Core/AVR8/../AVR8/../AVR8/Endpoint_AVR8.h **** 				UECFG0X = ((UECFG0X & ~(1 << EPDIR)) | (DirectionMask ? (1 << EPDIR) : 0));
 531:lib/lufa/LUFA/Drivers/USB/Core/AVR8/../AVR8/../AVR8/Endpoint_AVR8.h **** 			}
 532:lib/lufa/LUFA/Drivers/USB/Core/AVR8/../AVR8/../AVR8/Endpoint_AVR8.h **** 
 533:lib/lufa/LUFA/Drivers/USB/Core/AVR8/../AVR8/../AVR8/Endpoint_AVR8.h **** 			/** Reads one byte from the currently selected endpoint's bank, for OUT direction endpoints.
 534:lib/lufa/LUFA/Drivers/USB/Core/AVR8/../AVR8/../AVR8/Endpoint_AVR8.h **** 			 *
 535:lib/lufa/LUFA/Drivers/USB/Core/AVR8/../AVR8/../AVR8/Endpoint_AVR8.h **** 			 *  \ingroup Group_EndpointPrimitiveRW_AVR8
 536:lib/lufa/LUFA/Drivers/USB/Core/AVR8/../AVR8/../AVR8/Endpoint_AVR8.h **** 			 *
 537:lib/lufa/LUFA/Drivers/USB/Core/AVR8/../AVR8/../AVR8/Endpoint_AVR8.h **** 			 *  \return Next byte in the currently selected endpoint's FIFO buffer.
 538:lib/lufa/LUFA/Drivers/USB/Core/AVR8/../AVR8/../AVR8/Endpoint_AVR8.h **** 			 */
 539:lib/lufa/LUFA/Drivers/USB/Core/AVR8/../AVR8/../AVR8/Endpoint_AVR8.h **** 			static inline uint8_t Endpoint_Read_8(void) ATTR_WARN_UNUSED_RESULT ATTR_ALWAYS_INLINE;
 540:lib/lufa/LUFA/Drivers/USB/Core/AVR8/../AVR8/../AVR8/Endpoint_AVR8.h **** 			static inline uint8_t Endpoint_Read_8(void)
 541:lib/lufa/LUFA/Drivers/USB/Core/AVR8/../AVR8/../AVR8/Endpoint_AVR8.h **** 			{
 542:lib/lufa/LUFA/Drivers/USB/Core/AVR8/../AVR8/../AVR8/Endpoint_AVR8.h **** 				return UEDATX;
 543:lib/lufa/LUFA/Drivers/USB/Core/AVR8/../AVR8/../AVR8/Endpoint_AVR8.h **** 			}
 544:lib/lufa/LUFA/Drivers/USB/Core/AVR8/../AVR8/../AVR8/Endpoint_AVR8.h **** 
 545:lib/lufa/LUFA/Drivers/USB/Core/AVR8/../AVR8/../AVR8/Endpoint_AVR8.h **** 			/** Writes one byte to the currently selected endpoint's bank, for IN direction endpoints.
 546:lib/lufa/LUFA/Drivers/USB/Core/AVR8/../AVR8/../AVR8/Endpoint_AVR8.h **** 			 *
 547:lib/lufa/LUFA/Drivers/USB/Core/AVR8/../AVR8/../AVR8/Endpoint_AVR8.h **** 			 *  \ingroup Group_EndpointPrimitiveRW_AVR8
 548:lib/lufa/LUFA/Drivers/USB/Core/AVR8/../AVR8/../AVR8/Endpoint_AVR8.h **** 			 *
 549:lib/lufa/LUFA/Drivers/USB/Core/AVR8/../AVR8/../AVR8/Endpoint_AVR8.h **** 			 *  \param[in] Data  Data to write into the the currently selected endpoint's FIFO buffer.
 550:lib/lufa/LUFA/Drivers/USB/Core/AVR8/../AVR8/../AVR8/Endpoint_AVR8.h **** 			 */
 551:lib/lufa/LUFA/Drivers/USB/Core/AVR8/../AVR8/../AVR8/Endpoint_AVR8.h **** 			static inline void Endpoint_Write_8(const uint8_t Data) ATTR_ALWAYS_INLINE;
 552:lib/lufa/LUFA/Drivers/USB/Core/AVR8/../AVR8/../AVR8/Endpoint_AVR8.h **** 			static inline void Endpoint_Write_8(const uint8_t Data)
 553:lib/lufa/LUFA/Drivers/USB/Core/AVR8/../AVR8/../AVR8/Endpoint_AVR8.h **** 			{
 554:lib/lufa/LUFA/Drivers/USB/Core/AVR8/../AVR8/../AVR8/Endpoint_AVR8.h **** 				UEDATX = Data;
 555:lib/lufa/LUFA/Drivers/USB/Core/AVR8/../AVR8/../AVR8/Endpoint_AVR8.h **** 			}
 556:lib/lufa/LUFA/Drivers/USB/Core/AVR8/../AVR8/../AVR8/Endpoint_AVR8.h **** 
 557:lib/lufa/LUFA/Drivers/USB/Core/AVR8/../AVR8/../AVR8/Endpoint_AVR8.h **** 			/** Discards one byte from the currently selected endpoint's bank, for OUT direction endpoints.
 558:lib/lufa/LUFA/Drivers/USB/Core/AVR8/../AVR8/../AVR8/Endpoint_AVR8.h **** 			 *
 559:lib/lufa/LUFA/Drivers/USB/Core/AVR8/../AVR8/../AVR8/Endpoint_AVR8.h **** 			 *  \ingroup Group_EndpointPrimitiveRW_AVR8
 560:lib/lufa/LUFA/Drivers/USB/Core/AVR8/../AVR8/../AVR8/Endpoint_AVR8.h **** 			 */
 561:lib/lufa/LUFA/Drivers/USB/Core/AVR8/../AVR8/../AVR8/Endpoint_AVR8.h **** 			static inline void Endpoint_Discard_8(void) ATTR_ALWAYS_INLINE;
 562:lib/lufa/LUFA/Drivers/USB/Core/AVR8/../AVR8/../AVR8/Endpoint_AVR8.h **** 			static inline void Endpoint_Discard_8(void)
 115               		.loc 2 562 23 view .LVU19
 116               	.LBB269:
 563:lib/lufa/LUFA/Drivers/USB/Core/AVR8/../AVR8/../AVR8/Endpoint_AVR8.h **** 			{
 564:lib/lufa/LUFA/Drivers/USB/Core/AVR8/../AVR8/../AVR8/Endpoint_AVR8.h **** 				uint8_t Dummy;
 117               		.loc 2 564 5 view .LVU20
 565:lib/lufa/LUFA/Drivers/USB/Core/AVR8/../AVR8/../AVR8/Endpoint_AVR8.h **** 
 566:lib/lufa/LUFA/Drivers/USB/Core/AVR8/../AVR8/../AVR8/Endpoint_AVR8.h **** 				Dummy = UEDATX;
 118               		.loc 2 566 5 view .LVU21
 119               		.loc 2 566 11 is_stmt 0 view .LVU22
 120 004a 8091 F100 		lds r24,241
 567:lib/lufa/LUFA/Drivers/USB/Core/AVR8/../AVR8/../AVR8/Endpoint_AVR8.h **** 
 568:lib/lufa/LUFA/Drivers/USB/Core/AVR8/../AVR8/../AVR8/Endpoint_AVR8.h **** 				(void)Dummy;
 121               		.loc 2 568 5 is_stmt 1 view .LVU23
 122               	.LBE269:
 123               	.LBE268:
  69:lib/lufa/LUFA/Drivers/USB/Core/AVR8/EndpointStream_AVR8.c **** 		}
 124               		.loc 1 69 4 view .LVU24
  69:lib/lufa/LUFA/Drivers/USB/Core/AVR8/EndpointStream_AVR8.c **** 		}
 125               		.loc 1 69 19 is_stmt 0 view .LVU25
 126 004e 2196      		adiw r28,1
 127               	.LVL11:
 128               	.L4:
  51:lib/lufa/LUFA/Drivers/USB/Core/AVR8/EndpointStream_AVR8.c **** 	{
 129               		.loc 1 51 8 is_stmt 1 view .LVU26
 130 0050 CC15      		cp r28,r12
 131 0052 DD05      		cpc r29,r13
 132 0054 00F4      		brsh .L1
  53:lib/lufa/LUFA/Drivers/USB/Core/AVR8/EndpointStream_AVR8.c **** 		{
 133               		.loc 1 53 3 view .LVU27
 134               	.LBB270:
 135               	.LBI270:
 358:lib/lufa/LUFA/Drivers/USB/Core/AVR8/../AVR8/../AVR8/Endpoint_AVR8.h **** 			{
 136               		.loc 2 358 23 view .LVU28
 137               	.LBB271:
 360:lib/lufa/LUFA/Drivers/USB/Core/AVR8/../AVR8/../AVR8/Endpoint_AVR8.h **** 			}
 138               		.loc 2 360 5 view .LVU29
 360:lib/lufa/LUFA/Drivers/USB/Core/AVR8/../AVR8/../AVR8/Endpoint_AVR8.h **** 			}
 139               		.loc 2 360 14 is_stmt 0 view .LVU30
 140 0056 8091 E800 		lds r24,232
 141               	.LBE271:
 142               	.LBE270:
  53:lib/lufa/LUFA/Drivers/USB/Core/AVR8/EndpointStream_AVR8.c **** 		{
 143               		.loc 1 53 6 view .LVU31
 144 005a 85FD      		sbrc r24,5
 145 005c 00C0      		rjmp .L5
  55:lib/lufa/LUFA/Drivers/USB/Core/AVR8/EndpointStream_AVR8.c **** 
 146               		.loc 1 55 4 is_stmt 1 view .LVU32
 147               	.LBB272:
 148               	.LBI272:
 468:lib/lufa/LUFA/Drivers/USB/Core/AVR8/../AVR8/../AVR8/Endpoint_AVR8.h **** 			{
 149               		.loc 2 468 23 view .LVU33
 150               	.LBB273:
 471:lib/lufa/LUFA/Drivers/USB/Core/AVR8/../AVR8/../AVR8/Endpoint_AVR8.h **** 				#else
 151               		.loc 2 471 6 view .LVU34
 471:lib/lufa/LUFA/Drivers/USB/Core/AVR8/../AVR8/../AVR8/Endpoint_AVR8.h **** 				#else
 152               		.loc 2 471 13 is_stmt 0 view .LVU35
 153 005e 8091 E800 		lds r24,232
 154 0062 8B77      		andi r24,lo8(123)
 155 0064 8093 E800 		sts 232,r24
 156               	.LBE273:
 157               	.LBE272:
  57:lib/lufa/LUFA/Drivers/USB/Core/AVR8/EndpointStream_AVR8.c **** 			{
 158               		.loc 1 57 4 is_stmt 1 view .LVU36
  57:lib/lufa/LUFA/Drivers/USB/Core/AVR8/EndpointStream_AVR8.c **** 			{
 159               		.loc 1 57 7 is_stmt 0 view .LVU37
 160 0068 E114      		cp r14,__zero_reg__
 161 006a F104      		cpc r15,__zero_reg__
 162 006c 01F0      		breq .L6
  59:lib/lufa/LUFA/Drivers/USB/Core/AVR8/EndpointStream_AVR8.c **** 				return ENDPOINT_RWSTREAM_IncompleteTransfer;
 163               		.loc 1 59 5 is_stmt 1 view .LVU38
  59:lib/lufa/LUFA/Drivers/USB/Core/AVR8/EndpointStream_AVR8.c **** 				return ENDPOINT_RWSTREAM_IncompleteTransfer;
 164               		.loc 1 59 21 is_stmt 0 view .LVU39
 165 006e F701      		movw r30,r14
 166 0070 D183      		std Z+1,r29
 167 0072 C083      		st Z,r28
  60:lib/lufa/LUFA/Drivers/USB/Core/AVR8/EndpointStream_AVR8.c **** 			}
 168               		.loc 1 60 5 is_stmt 1 view .LVU40
  60:lib/lufa/LUFA/Drivers/USB/Core/AVR8/EndpointStream_AVR8.c **** 			}
 169               		.loc 1 60 12 is_stmt 0 view .LVU41
 170 0074 15E0      		ldi r17,lo8(5)
 171 0076 00C0      		rjmp .L1
 172               		.cfi_endproc
 173               	.LFE85:
 175               		.section	.text.Endpoint_Null_Stream,"ax",@progbits
 176               	.global	Endpoint_Null_Stream
 178               	Endpoint_Null_Stream:
 179               	.LVL12:
 180               	.LFB86:
  75:lib/lufa/LUFA/Drivers/USB/Core/AVR8/EndpointStream_AVR8.c **** 
  76:lib/lufa/LUFA/Drivers/USB/Core/AVR8/EndpointStream_AVR8.c **** uint8_t Endpoint_Null_Stream(uint16_t Length,
  77:lib/lufa/LUFA/Drivers/USB/Core/AVR8/EndpointStream_AVR8.c ****                              uint16_t* const BytesProcessed)
  78:lib/lufa/LUFA/Drivers/USB/Core/AVR8/EndpointStream_AVR8.c **** {
 181               		.loc 1 78 1 is_stmt 1 view -0
 182               		.cfi_startproc
 183               		.loc 1 78 1 is_stmt 0 view .LVU43
 184 0000 CF92      		push r12
 185               	.LCFI7:
 186               		.cfi_def_cfa_offset 3
 187               		.cfi_offset 12, -2
 188 0002 DF92      		push r13
 189               	.LCFI8:
 190               		.cfi_def_cfa_offset 4
 191               		.cfi_offset 13, -3
 192 0004 EF92      		push r14
 193               	.LCFI9:
 194               		.cfi_def_cfa_offset 5
 195               		.cfi_offset 14, -4
 196 0006 FF92      		push r15
 197               	.LCFI10:
 198               		.cfi_def_cfa_offset 6
 199               		.cfi_offset 15, -5
 200 0008 1F93      		push r17
 201               	.LCFI11:
 202               		.cfi_def_cfa_offset 7
 203               		.cfi_offset 17, -6
 204 000a CF93      		push r28
 205               	.LCFI12:
 206               		.cfi_def_cfa_offset 8
 207               		.cfi_offset 28, -7
 208 000c DF93      		push r29
 209               	.LCFI13:
 210               		.cfi_def_cfa_offset 9
 211               		.cfi_offset 29, -8
 212               	/* prologue: function */
 213               	/* frame size = 0 */
 214               	/* stack size = 7 */
 215               	.L__stack_usage = 7
 216 000e 6C01      		movw r12,r24
 217 0010 7B01      		movw r14,r22
  79:lib/lufa/LUFA/Drivers/USB/Core/AVR8/EndpointStream_AVR8.c **** 	uint8_t  ErrorCode;
 218               		.loc 1 79 2 is_stmt 1 view .LVU44
  80:lib/lufa/LUFA/Drivers/USB/Core/AVR8/EndpointStream_AVR8.c **** 	uint16_t BytesInTransfer = BytesProcessed ? *BytesProcessed : 0;
 219               		.loc 1 80 2 view .LVU45
 220               		.loc 1 80 62 is_stmt 0 view .LVU46
 221 0012 D0E0      		ldi r29,0
 222 0014 C0E0      		ldi r28,0
 223 0016 6115      		cp r22,__zero_reg__
 224 0018 7105      		cpc r23,__zero_reg__
 225 001a 01F0      		breq .L12
 226               		.loc 1 80 62 discriminator 1 view .LVU47
 227 001c FB01      		movw r30,r22
 228 001e C081      		ld r28,Z
 229 0020 D181      		ldd r29,Z+1
 230               	.LVL13:
 231               	.L12:
  81:lib/lufa/LUFA/Drivers/USB/Core/AVR8/EndpointStream_AVR8.c **** 
  82:lib/lufa/LUFA/Drivers/USB/Core/AVR8/EndpointStream_AVR8.c **** 	if ((ErrorCode = Endpoint_WaitUntilReady()))
 232               		.loc 1 82 2 is_stmt 1 discriminator 4 view .LVU48
 233               		.loc 1 82 19 is_stmt 0 discriminator 4 view .LVU49
 234 0022 0E94 0000 		call Endpoint_WaitUntilReady
 235               	.LVL14:
 236               		.loc 1 82 19 discriminator 4 view .LVU50
 237 0026 182F      		mov r17,r24
 238               	.LVL15:
 239               		.loc 1 82 5 discriminator 4 view .LVU51
 240 0028 8823      		tst r24
 241 002a 01F0      		breq .L14
 242               	.LVL16:
 243               	.L11:
  83:lib/lufa/LUFA/Drivers/USB/Core/AVR8/EndpointStream_AVR8.c **** 	  return ErrorCode;
  84:lib/lufa/LUFA/Drivers/USB/Core/AVR8/EndpointStream_AVR8.c **** 
  85:lib/lufa/LUFA/Drivers/USB/Core/AVR8/EndpointStream_AVR8.c **** 	while (BytesInTransfer < Length)
  86:lib/lufa/LUFA/Drivers/USB/Core/AVR8/EndpointStream_AVR8.c **** 	{
  87:lib/lufa/LUFA/Drivers/USB/Core/AVR8/EndpointStream_AVR8.c **** 		if (!(Endpoint_IsReadWriteAllowed()))
  88:lib/lufa/LUFA/Drivers/USB/Core/AVR8/EndpointStream_AVR8.c **** 		{
  89:lib/lufa/LUFA/Drivers/USB/Core/AVR8/EndpointStream_AVR8.c **** 			Endpoint_ClearIN();
  90:lib/lufa/LUFA/Drivers/USB/Core/AVR8/EndpointStream_AVR8.c **** 
  91:lib/lufa/LUFA/Drivers/USB/Core/AVR8/EndpointStream_AVR8.c **** 			if (BytesProcessed != NULL)
  92:lib/lufa/LUFA/Drivers/USB/Core/AVR8/EndpointStream_AVR8.c **** 			{
  93:lib/lufa/LUFA/Drivers/USB/Core/AVR8/EndpointStream_AVR8.c **** 				*BytesProcessed = BytesInTransfer;
  94:lib/lufa/LUFA/Drivers/USB/Core/AVR8/EndpointStream_AVR8.c **** 				return ENDPOINT_RWSTREAM_IncompleteTransfer;
  95:lib/lufa/LUFA/Drivers/USB/Core/AVR8/EndpointStream_AVR8.c **** 			}
  96:lib/lufa/LUFA/Drivers/USB/Core/AVR8/EndpointStream_AVR8.c **** 
  97:lib/lufa/LUFA/Drivers/USB/Core/AVR8/EndpointStream_AVR8.c **** 			if ((ErrorCode = Endpoint_WaitUntilReady()))
  98:lib/lufa/LUFA/Drivers/USB/Core/AVR8/EndpointStream_AVR8.c **** 			  return ErrorCode;
  99:lib/lufa/LUFA/Drivers/USB/Core/AVR8/EndpointStream_AVR8.c **** 		}
 100:lib/lufa/LUFA/Drivers/USB/Core/AVR8/EndpointStream_AVR8.c **** 		else
 101:lib/lufa/LUFA/Drivers/USB/Core/AVR8/EndpointStream_AVR8.c **** 		{
 102:lib/lufa/LUFA/Drivers/USB/Core/AVR8/EndpointStream_AVR8.c **** 			Endpoint_Write_8(0);
 103:lib/lufa/LUFA/Drivers/USB/Core/AVR8/EndpointStream_AVR8.c **** 			BytesInTransfer++;
 104:lib/lufa/LUFA/Drivers/USB/Core/AVR8/EndpointStream_AVR8.c **** 		}
 105:lib/lufa/LUFA/Drivers/USB/Core/AVR8/EndpointStream_AVR8.c **** 	}
 106:lib/lufa/LUFA/Drivers/USB/Core/AVR8/EndpointStream_AVR8.c **** 
 107:lib/lufa/LUFA/Drivers/USB/Core/AVR8/EndpointStream_AVR8.c **** 	return ENDPOINT_RWSTREAM_NoError;
 108:lib/lufa/LUFA/Drivers/USB/Core/AVR8/EndpointStream_AVR8.c **** }
 244               		.loc 1 108 1 view .LVU52
 245 002c 812F      		mov r24,r17
 246               	/* epilogue start */
 247 002e DF91      		pop r29
 248 0030 CF91      		pop r28
 249               	.LVL17:
 250               		.loc 1 108 1 view .LVU53
 251 0032 1F91      		pop r17
 252 0034 FF90      		pop r15
 253 0036 EF90      		pop r14
 254               	.LVL18:
 255               		.loc 1 108 1 view .LVU54
 256 0038 DF90      		pop r13
 257 003a CF90      		pop r12
 258               	.LVL19:
 259               		.loc 1 108 1 view .LVU55
 260 003c 0895      		ret
 261               	.LVL20:
 262               	.L16:
  97:lib/lufa/LUFA/Drivers/USB/Core/AVR8/EndpointStream_AVR8.c **** 			  return ErrorCode;
 263               		.loc 1 97 4 is_stmt 1 view .LVU56
  97:lib/lufa/LUFA/Drivers/USB/Core/AVR8/EndpointStream_AVR8.c **** 			  return ErrorCode;
 264               		.loc 1 97 21 is_stmt 0 view .LVU57
 265 003e 0E94 0000 		call Endpoint_WaitUntilReady
 266               	.LVL21:
  97:lib/lufa/LUFA/Drivers/USB/Core/AVR8/EndpointStream_AVR8.c **** 			  return ErrorCode;
 267               		.loc 1 97 7 view .LVU58
 268 0042 8823      		tst r24
 269 0044 01F0      		breq .L14
  97:lib/lufa/LUFA/Drivers/USB/Core/AVR8/EndpointStream_AVR8.c **** 			  return ErrorCode;
 270               		.loc 1 97 21 view .LVU59
 271 0046 182F      		mov r17,r24
 272 0048 00C0      		rjmp .L11
 273               	.LVL22:
 274               	.L15:
 102:lib/lufa/LUFA/Drivers/USB/Core/AVR8/EndpointStream_AVR8.c **** 			BytesInTransfer++;
 275               		.loc 1 102 4 is_stmt 1 view .LVU60
 276               	.LBB274:
 277               	.LBI274:
 552:lib/lufa/LUFA/Drivers/USB/Core/AVR8/../AVR8/../AVR8/Endpoint_AVR8.h **** 			{
 278               		.loc 2 552 23 view .LVU61
 279               	.LBB275:
 554:lib/lufa/LUFA/Drivers/USB/Core/AVR8/../AVR8/../AVR8/Endpoint_AVR8.h **** 			}
 280               		.loc 2 554 5 view .LVU62
 554:lib/lufa/LUFA/Drivers/USB/Core/AVR8/../AVR8/../AVR8/Endpoint_AVR8.h **** 			}
 281               		.loc 2 554 12 is_stmt 0 view .LVU63
 282 004a 1092 F100 		sts 241,__zero_reg__
 283               	.LVL23:
 554:lib/lufa/LUFA/Drivers/USB/Core/AVR8/../AVR8/../AVR8/Endpoint_AVR8.h **** 			}
 284               		.loc 2 554 12 view .LVU64
 285               	.LBE275:
 286               	.LBE274:
 103:lib/lufa/LUFA/Drivers/USB/Core/AVR8/EndpointStream_AVR8.c **** 		}
 287               		.loc 1 103 4 is_stmt 1 view .LVU65
 103:lib/lufa/LUFA/Drivers/USB/Core/AVR8/EndpointStream_AVR8.c **** 		}
 288               		.loc 1 103 19 is_stmt 0 view .LVU66
 289 004e 2196      		adiw r28,1
 290               	.LVL24:
 291               	.L14:
  85:lib/lufa/LUFA/Drivers/USB/Core/AVR8/EndpointStream_AVR8.c **** 	{
 292               		.loc 1 85 8 is_stmt 1 view .LVU67
 293 0050 CC15      		cp r28,r12
 294 0052 DD05      		cpc r29,r13
 295 0054 00F4      		brsh .L11
  87:lib/lufa/LUFA/Drivers/USB/Core/AVR8/EndpointStream_AVR8.c **** 		{
 296               		.loc 1 87 3 view .LVU68
 297               	.LBB276:
 298               	.LBI276:
 358:lib/lufa/LUFA/Drivers/USB/Core/AVR8/../AVR8/../AVR8/Endpoint_AVR8.h **** 			{
 299               		.loc 2 358 23 view .LVU69
 300               	.LBB277:
 360:lib/lufa/LUFA/Drivers/USB/Core/AVR8/../AVR8/../AVR8/Endpoint_AVR8.h **** 			}
 301               		.loc 2 360 5 view .LVU70
 360:lib/lufa/LUFA/Drivers/USB/Core/AVR8/../AVR8/../AVR8/Endpoint_AVR8.h **** 			}
 302               		.loc 2 360 14 is_stmt 0 view .LVU71
 303 0056 8091 E800 		lds r24,232
 304               	.LBE277:
 305               	.LBE276:
  87:lib/lufa/LUFA/Drivers/USB/Core/AVR8/EndpointStream_AVR8.c **** 		{
 306               		.loc 1 87 6 view .LVU72
 307 005a 85FD      		sbrc r24,5
 308 005c 00C0      		rjmp .L15
  89:lib/lufa/LUFA/Drivers/USB/Core/AVR8/EndpointStream_AVR8.c **** 
 309               		.loc 1 89 4 is_stmt 1 view .LVU73
 310               	.LBB278:
 311               	.LBI278:
 453:lib/lufa/LUFA/Drivers/USB/Core/AVR8/../AVR8/../AVR8/Endpoint_AVR8.h **** 			{
 312               		.loc 2 453 23 view .LVU74
 313               	.LBB279:
 456:lib/lufa/LUFA/Drivers/USB/Core/AVR8/../AVR8/../AVR8/Endpoint_AVR8.h **** 				#else
 314               		.loc 2 456 6 view .LVU75
 456:lib/lufa/LUFA/Drivers/USB/Core/AVR8/../AVR8/../AVR8/Endpoint_AVR8.h **** 				#else
 315               		.loc 2 456 13 is_stmt 0 view .LVU76
 316 005e 8091 E800 		lds r24,232
 317 0062 8E77      		andi r24,lo8(126)
 318 0064 8093 E800 		sts 232,r24
 319               	.LBE279:
 320               	.LBE278:
  91:lib/lufa/LUFA/Drivers/USB/Core/AVR8/EndpointStream_AVR8.c **** 			{
 321               		.loc 1 91 4 is_stmt 1 view .LVU77
  91:lib/lufa/LUFA/Drivers/USB/Core/AVR8/EndpointStream_AVR8.c **** 			{
 322               		.loc 1 91 7 is_stmt 0 view .LVU78
 323 0068 E114      		cp r14,__zero_reg__
 324 006a F104      		cpc r15,__zero_reg__
 325 006c 01F0      		breq .L16
  93:lib/lufa/LUFA/Drivers/USB/Core/AVR8/EndpointStream_AVR8.c **** 				return ENDPOINT_RWSTREAM_IncompleteTransfer;
 326               		.loc 1 93 5 is_stmt 1 view .LVU79
  93:lib/lufa/LUFA/Drivers/USB/Core/AVR8/EndpointStream_AVR8.c **** 				return ENDPOINT_RWSTREAM_IncompleteTransfer;
 327               		.loc 1 93 21 is_stmt 0 view .LVU80
 328 006e F701      		movw r30,r14
 329 0070 D183      		std Z+1,r29
 330 0072 C083      		st Z,r28
  94:lib/lufa/LUFA/Drivers/USB/Core/AVR8/EndpointStream_AVR8.c **** 			}
 331               		.loc 1 94 5 is_stmt 1 view .LVU81
  94:lib/lufa/LUFA/Drivers/USB/Core/AVR8/EndpointStream_AVR8.c **** 			}
 332               		.loc 1 94 12 is_stmt 0 view .LVU82
 333 0074 15E0      		ldi r17,lo8(5)
 334 0076 00C0      		rjmp .L11
 335               		.cfi_endproc
 336               	.LFE86:
 338               		.section	.text.Endpoint_Write_Stream_LE,"ax",@progbits
 339               	.global	Endpoint_Write_Stream_LE
 341               	Endpoint_Write_Stream_LE:
 342               	.LVL25:
 343               	.LFB87:
 344               		.file 3 "lib/lufa/LUFA/Drivers/USB/Core/AVR8/Template/Template_Endpoint_RW.c"
   1:lib/lufa/LUFA/Drivers/USB/Core/AVR8/Template/Template_Endpoint_RW.c **** /*
   2:lib/lufa/LUFA/Drivers/USB/Core/AVR8/Template/Template_Endpoint_RW.c ****              LUFA Library
   3:lib/lufa/LUFA/Drivers/USB/Core/AVR8/Template/Template_Endpoint_RW.c ****      Copyright (C) Dean Camera, 2019.
   4:lib/lufa/LUFA/Drivers/USB/Core/AVR8/Template/Template_Endpoint_RW.c **** 
   5:lib/lufa/LUFA/Drivers/USB/Core/AVR8/Template/Template_Endpoint_RW.c ****   dean [at] fourwalledcubicle [dot] com
   6:lib/lufa/LUFA/Drivers/USB/Core/AVR8/Template/Template_Endpoint_RW.c ****            www.lufa-lib.org
   7:lib/lufa/LUFA/Drivers/USB/Core/AVR8/Template/Template_Endpoint_RW.c **** */
   8:lib/lufa/LUFA/Drivers/USB/Core/AVR8/Template/Template_Endpoint_RW.c **** 
   9:lib/lufa/LUFA/Drivers/USB/Core/AVR8/Template/Template_Endpoint_RW.c **** /*
  10:lib/lufa/LUFA/Drivers/USB/Core/AVR8/Template/Template_Endpoint_RW.c ****   Copyright 2019  Dean Camera (dean [at] fourwalledcubicle [dot] com)
  11:lib/lufa/LUFA/Drivers/USB/Core/AVR8/Template/Template_Endpoint_RW.c **** 
  12:lib/lufa/LUFA/Drivers/USB/Core/AVR8/Template/Template_Endpoint_RW.c ****   Permission to use, copy, modify, distribute, and sell this
  13:lib/lufa/LUFA/Drivers/USB/Core/AVR8/Template/Template_Endpoint_RW.c ****   software and its documentation for any purpose is hereby granted
  14:lib/lufa/LUFA/Drivers/USB/Core/AVR8/Template/Template_Endpoint_RW.c ****   without fee, provided that the above copyright notice appear in
  15:lib/lufa/LUFA/Drivers/USB/Core/AVR8/Template/Template_Endpoint_RW.c ****   all copies and that both that the copyright notice and this
  16:lib/lufa/LUFA/Drivers/USB/Core/AVR8/Template/Template_Endpoint_RW.c ****   permission notice and warranty disclaimer appear in supporting
  17:lib/lufa/LUFA/Drivers/USB/Core/AVR8/Template/Template_Endpoint_RW.c ****   documentation, and that the name of the author not be used in
  18:lib/lufa/LUFA/Drivers/USB/Core/AVR8/Template/Template_Endpoint_RW.c ****   advertising or publicity pertaining to distribution of the
  19:lib/lufa/LUFA/Drivers/USB/Core/AVR8/Template/Template_Endpoint_RW.c ****   software without specific, written prior permission.
  20:lib/lufa/LUFA/Drivers/USB/Core/AVR8/Template/Template_Endpoint_RW.c **** 
  21:lib/lufa/LUFA/Drivers/USB/Core/AVR8/Template/Template_Endpoint_RW.c ****   The author disclaims all warranties with regard to this
  22:lib/lufa/LUFA/Drivers/USB/Core/AVR8/Template/Template_Endpoint_RW.c ****   software, including all implied warranties of merchantability
  23:lib/lufa/LUFA/Drivers/USB/Core/AVR8/Template/Template_Endpoint_RW.c ****   and fitness.  In no event shall the author be liable for any
  24:lib/lufa/LUFA/Drivers/USB/Core/AVR8/Template/Template_Endpoint_RW.c ****   special, indirect or consequential damages or any damages
  25:lib/lufa/LUFA/Drivers/USB/Core/AVR8/Template/Template_Endpoint_RW.c ****   whatsoever resulting from loss of use, data or profits, whether
  26:lib/lufa/LUFA/Drivers/USB/Core/AVR8/Template/Template_Endpoint_RW.c ****   in an action of contract, negligence or other tortious action,
  27:lib/lufa/LUFA/Drivers/USB/Core/AVR8/Template/Template_Endpoint_RW.c ****   arising out of or in connection with the use or performance of
  28:lib/lufa/LUFA/Drivers/USB/Core/AVR8/Template/Template_Endpoint_RW.c ****   this software.
  29:lib/lufa/LUFA/Drivers/USB/Core/AVR8/Template/Template_Endpoint_RW.c **** */
  30:lib/lufa/LUFA/Drivers/USB/Core/AVR8/Template/Template_Endpoint_RW.c **** 
  31:lib/lufa/LUFA/Drivers/USB/Core/AVR8/Template/Template_Endpoint_RW.c **** #if defined(TEMPLATE_FUNC_NAME)
  32:lib/lufa/LUFA/Drivers/USB/Core/AVR8/Template/Template_Endpoint_RW.c **** 
  33:lib/lufa/LUFA/Drivers/USB/Core/AVR8/Template/Template_Endpoint_RW.c **** uint8_t TEMPLATE_FUNC_NAME (TEMPLATE_BUFFER_TYPE const Buffer,
  34:lib/lufa/LUFA/Drivers/USB/Core/AVR8/Template/Template_Endpoint_RW.c ****                             uint16_t Length,
  35:lib/lufa/LUFA/Drivers/USB/Core/AVR8/Template/Template_Endpoint_RW.c ****                             uint16_t* const BytesProcessed)
  36:lib/lufa/LUFA/Drivers/USB/Core/AVR8/Template/Template_Endpoint_RW.c **** {
 345               		.loc 3 36 1 is_stmt 1 view -0
 346               		.cfi_startproc
 347               		.loc 3 36 1 is_stmt 0 view .LVU84
 348 0000 AF92      		push r10
 349               	.LCFI14:
 350               		.cfi_def_cfa_offset 3
 351               		.cfi_offset 10, -2
 352 0002 BF92      		push r11
 353               	.LCFI15:
 354               		.cfi_def_cfa_offset 4
 355               		.cfi_offset 11, -3
 356 0004 CF92      		push r12
 357               	.LCFI16:
 358               		.cfi_def_cfa_offset 5
 359               		.cfi_offset 12, -4
 360 0006 DF92      		push r13
 361               	.LCFI17:
 362               		.cfi_def_cfa_offset 6
 363               		.cfi_offset 13, -5
 364 0008 FF92      		push r15
 365               	.LCFI18:
 366               		.cfi_def_cfa_offset 7
 367               		.cfi_offset 15, -6
 368 000a 0F93      		push r16
 369               	.LCFI19:
 370               		.cfi_def_cfa_offset 8
 371               		.cfi_offset 16, -7
 372 000c 1F93      		push r17
 373               	.LCFI20:
 374               		.cfi_def_cfa_offset 9
 375               		.cfi_offset 17, -8
 376 000e CF93      		push r28
 377               	.LCFI21:
 378               		.cfi_def_cfa_offset 10
 379               		.cfi_offset 28, -9
 380 0010 DF93      		push r29
 381               	.LCFI22:
 382               		.cfi_def_cfa_offset 11
 383               		.cfi_offset 29, -10
 384               	/* prologue: function */
 385               	/* frame size = 0 */
 386               	/* stack size = 9 */
 387               	.L__stack_usage = 9
 388 0012 6C01      		movw r12,r24
 389 0014 EB01      		movw r28,r22
 390 0016 8A01      		movw r16,r20
  37:lib/lufa/LUFA/Drivers/USB/Core/AVR8/Template/Template_Endpoint_RW.c **** 	uint8_t* DataStream      = ((uint8_t*)Buffer + TEMPLATE_BUFFER_OFFSET(Length));
 391               		.loc 3 37 2 is_stmt 1 view .LVU85
 392               	.LVL26:
  38:lib/lufa/LUFA/Drivers/USB/Core/AVR8/Template/Template_Endpoint_RW.c **** 	uint16_t BytesInTransfer = 0;
 393               		.loc 3 38 2 view .LVU86
  39:lib/lufa/LUFA/Drivers/USB/Core/AVR8/Template/Template_Endpoint_RW.c **** 	uint8_t  ErrorCode;
 394               		.loc 3 39 2 view .LVU87
  40:lib/lufa/LUFA/Drivers/USB/Core/AVR8/Template/Template_Endpoint_RW.c **** 
  41:lib/lufa/LUFA/Drivers/USB/Core/AVR8/Template/Template_Endpoint_RW.c **** 	if ((ErrorCode = Endpoint_WaitUntilReady()))
 395               		.loc 3 41 2 view .LVU88
 396               		.loc 3 41 19 is_stmt 0 view .LVU89
 397 0018 0E94 0000 		call Endpoint_WaitUntilReady
 398               	.LVL27:
 399               		.loc 3 41 19 view .LVU90
 400 001c F82E      		mov r15,r24
 401               	.LVL28:
 402               		.loc 3 41 5 view .LVU91
 403 001e 8111      		cpse r24,__zero_reg__
 404 0020 00C0      		rjmp .L21
  42:lib/lufa/LUFA/Drivers/USB/Core/AVR8/Template/Template_Endpoint_RW.c **** 	  return ErrorCode;
  43:lib/lufa/LUFA/Drivers/USB/Core/AVR8/Template/Template_Endpoint_RW.c **** 
  44:lib/lufa/LUFA/Drivers/USB/Core/AVR8/Template/Template_Endpoint_RW.c **** 	if (BytesProcessed != NULL)
 405               		.loc 3 44 2 is_stmt 1 view .LVU92
 406               		.loc 3 44 5 is_stmt 0 view .LVU93
 407 0022 0115      		cp r16,__zero_reg__
 408 0024 1105      		cpc r17,__zero_reg__
 409 0026 01F0      		breq .L23
  45:lib/lufa/LUFA/Drivers/USB/Core/AVR8/Template/Template_Endpoint_RW.c **** 	{
  46:lib/lufa/LUFA/Drivers/USB/Core/AVR8/Template/Template_Endpoint_RW.c **** 		Length -= *BytesProcessed;
 410               		.loc 3 46 3 is_stmt 1 view .LVU94
 411               		.loc 3 46 13 is_stmt 0 view .LVU95
 412 0028 F801      		movw r30,r16
 413 002a 8081      		ld r24,Z
 414 002c 9181      		ldd r25,Z+1
 415               		.loc 3 46 10 view .LVU96
 416 002e C81B      		sub r28,r24
 417 0030 D90B      		sbc r29,r25
 418               	.LVL29:
  47:lib/lufa/LUFA/Drivers/USB/Core/AVR8/Template/Template_Endpoint_RW.c **** 		TEMPLATE_BUFFER_MOVE(DataStream, *BytesProcessed);
 419               		.loc 3 47 3 is_stmt 1 view .LVU97
 420 0032 C80E      		add r12,r24
 421 0034 D91E      		adc r13,r25
 422               	.LVL30:
 423               	.L23:
  36:lib/lufa/LUFA/Drivers/USB/Core/AVR8/Template/Template_Endpoint_RW.c **** 	uint8_t* DataStream      = ((uint8_t*)Buffer + TEMPLATE_BUFFER_OFFSET(Length));
 424               		.loc 3 36 1 is_stmt 0 view .LVU98
 425 0036 B12C      		mov r11,__zero_reg__
 426 0038 A12C      		mov r10,__zero_reg__
 427               	.LVL31:
 428               	.L24:
  48:lib/lufa/LUFA/Drivers/USB/Core/AVR8/Template/Template_Endpoint_RW.c **** 	}
  49:lib/lufa/LUFA/Drivers/USB/Core/AVR8/Template/Template_Endpoint_RW.c **** 
  50:lib/lufa/LUFA/Drivers/USB/Core/AVR8/Template/Template_Endpoint_RW.c **** 	while (Length)
 429               		.loc 3 50 8 is_stmt 1 view .LVU99
 430 003a 2097      		sbiw r28,0
 431 003c 01F0      		breq .L21
  51:lib/lufa/LUFA/Drivers/USB/Core/AVR8/Template/Template_Endpoint_RW.c **** 	{
  52:lib/lufa/LUFA/Drivers/USB/Core/AVR8/Template/Template_Endpoint_RW.c **** 		if (!(Endpoint_IsReadWriteAllowed()))
 432               		.loc 3 52 3 view .LVU100
 433               	.LBB280:
 434               	.LBI280:
 358:lib/lufa/LUFA/Drivers/USB/Core/AVR8/../AVR8/../AVR8/Endpoint_AVR8.h **** 			{
 435               		.loc 2 358 23 view .LVU101
 436               	.LBB281:
 360:lib/lufa/LUFA/Drivers/USB/Core/AVR8/../AVR8/../AVR8/Endpoint_AVR8.h **** 			}
 437               		.loc 2 360 5 view .LVU102
 360:lib/lufa/LUFA/Drivers/USB/Core/AVR8/../AVR8/../AVR8/Endpoint_AVR8.h **** 			}
 438               		.loc 2 360 14 is_stmt 0 view .LVU103
 439 003e 8091 E800 		lds r24,232
 440               	.LBE281:
 441               	.LBE280:
 442               		.loc 3 52 6 view .LVU104
 443 0042 85FD      		sbrc r24,5
 444 0044 00C0      		rjmp .L25
  53:lib/lufa/LUFA/Drivers/USB/Core/AVR8/Template/Template_Endpoint_RW.c **** 		{
  54:lib/lufa/LUFA/Drivers/USB/Core/AVR8/Template/Template_Endpoint_RW.c **** 			TEMPLATE_CLEAR_ENDPOINT();
 445               		.loc 3 54 4 is_stmt 1 view .LVU105
 446               	.LBB282:
 447               	.LBI282:
 453:lib/lufa/LUFA/Drivers/USB/Core/AVR8/../AVR8/../AVR8/Endpoint_AVR8.h **** 			{
 448               		.loc 2 453 23 view .LVU106
 449               	.LBB283:
 456:lib/lufa/LUFA/Drivers/USB/Core/AVR8/../AVR8/../AVR8/Endpoint_AVR8.h **** 				#else
 450               		.loc 2 456 6 view .LVU107
 456:lib/lufa/LUFA/Drivers/USB/Core/AVR8/../AVR8/../AVR8/Endpoint_AVR8.h **** 				#else
 451               		.loc 2 456 13 is_stmt 0 view .LVU108
 452 0046 8091 E800 		lds r24,232
 453 004a 8E77      		andi r24,lo8(126)
 454 004c 8093 E800 		sts 232,r24
 455               	.LBE283:
 456               	.LBE282:
  55:lib/lufa/LUFA/Drivers/USB/Core/AVR8/Template/Template_Endpoint_RW.c **** 
  56:lib/lufa/LUFA/Drivers/USB/Core/AVR8/Template/Template_Endpoint_RW.c **** 			#if !defined(INTERRUPT_CONTROL_ENDPOINT)
  57:lib/lufa/LUFA/Drivers/USB/Core/AVR8/Template/Template_Endpoint_RW.c **** 			USB_USBTask();
  58:lib/lufa/LUFA/Drivers/USB/Core/AVR8/Template/Template_Endpoint_RW.c **** 			#endif
  59:lib/lufa/LUFA/Drivers/USB/Core/AVR8/Template/Template_Endpoint_RW.c **** 
  60:lib/lufa/LUFA/Drivers/USB/Core/AVR8/Template/Template_Endpoint_RW.c **** 			if (BytesProcessed != NULL)
 457               		.loc 3 60 4 is_stmt 1 view .LVU109
 458               		.loc 3 60 7 is_stmt 0 view .LVU110
 459 0050 0115      		cp r16,__zero_reg__
 460 0052 1105      		cpc r17,__zero_reg__
 461 0054 01F0      		breq .L26
  61:lib/lufa/LUFA/Drivers/USB/Core/AVR8/Template/Template_Endpoint_RW.c **** 			{
  62:lib/lufa/LUFA/Drivers/USB/Core/AVR8/Template/Template_Endpoint_RW.c **** 				*BytesProcessed += BytesInTransfer;
 462               		.loc 3 62 5 is_stmt 1 view .LVU111
 463               		.loc 3 62 21 is_stmt 0 view .LVU112
 464 0056 F801      		movw r30,r16
 465 0058 8081      		ld r24,Z
 466 005a 9181      		ldd r25,Z+1
 467 005c A80E      		add r10,r24
 468 005e B91E      		adc r11,r25
 469               	.LVL32:
 470               		.loc 3 62 21 view .LVU113
 471 0060 B182      		std Z+1,r11
 472 0062 A082      		st Z,r10
  63:lib/lufa/LUFA/Drivers/USB/Core/AVR8/Template/Template_Endpoint_RW.c **** 				return ENDPOINT_RWSTREAM_IncompleteTransfer;
 473               		.loc 3 63 5 is_stmt 1 view .LVU114
 474               		.loc 3 63 12 is_stmt 0 view .LVU115
 475 0064 85E0      		ldi r24,lo8(5)
 476 0066 F82E      		mov r15,r24
 477               	.L21:
  64:lib/lufa/LUFA/Drivers/USB/Core/AVR8/Template/Template_Endpoint_RW.c **** 			}
  65:lib/lufa/LUFA/Drivers/USB/Core/AVR8/Template/Template_Endpoint_RW.c **** 
  66:lib/lufa/LUFA/Drivers/USB/Core/AVR8/Template/Template_Endpoint_RW.c **** 			if ((ErrorCode = Endpoint_WaitUntilReady()))
  67:lib/lufa/LUFA/Drivers/USB/Core/AVR8/Template/Template_Endpoint_RW.c **** 			  return ErrorCode;
  68:lib/lufa/LUFA/Drivers/USB/Core/AVR8/Template/Template_Endpoint_RW.c **** 		}
  69:lib/lufa/LUFA/Drivers/USB/Core/AVR8/Template/Template_Endpoint_RW.c **** 		else
  70:lib/lufa/LUFA/Drivers/USB/Core/AVR8/Template/Template_Endpoint_RW.c **** 		{
  71:lib/lufa/LUFA/Drivers/USB/Core/AVR8/Template/Template_Endpoint_RW.c **** 			TEMPLATE_TRANSFER_BYTE(DataStream);
  72:lib/lufa/LUFA/Drivers/USB/Core/AVR8/Template/Template_Endpoint_RW.c **** 			TEMPLATE_BUFFER_MOVE(DataStream, 1);
  73:lib/lufa/LUFA/Drivers/USB/Core/AVR8/Template/Template_Endpoint_RW.c **** 			Length--;
  74:lib/lufa/LUFA/Drivers/USB/Core/AVR8/Template/Template_Endpoint_RW.c **** 			BytesInTransfer++;
  75:lib/lufa/LUFA/Drivers/USB/Core/AVR8/Template/Template_Endpoint_RW.c **** 		}
  76:lib/lufa/LUFA/Drivers/USB/Core/AVR8/Template/Template_Endpoint_RW.c **** 	}
  77:lib/lufa/LUFA/Drivers/USB/Core/AVR8/Template/Template_Endpoint_RW.c **** 
  78:lib/lufa/LUFA/Drivers/USB/Core/AVR8/Template/Template_Endpoint_RW.c **** 	return ENDPOINT_RWSTREAM_NoError;
  79:lib/lufa/LUFA/Drivers/USB/Core/AVR8/Template/Template_Endpoint_RW.c **** }
 478               		.loc 3 79 1 view .LVU116
 479 0068 8F2D      		mov r24,r15
 480               	/* epilogue start */
 481 006a DF91      		pop r29
 482 006c CF91      		pop r28
 483               	.LVL33:
 484               		.loc 3 79 1 view .LVU117
 485 006e 1F91      		pop r17
 486 0070 0F91      		pop r16
 487               	.LVL34:
 488               		.loc 3 79 1 view .LVU118
 489 0072 FF90      		pop r15
 490 0074 DF90      		pop r13
 491 0076 CF90      		pop r12
 492               	.LVL35:
 493               		.loc 3 79 1 view .LVU119
 494 0078 BF90      		pop r11
 495 007a AF90      		pop r10
 496 007c 0895      		ret
 497               	.LVL36:
 498               	.L26:
  66:lib/lufa/LUFA/Drivers/USB/Core/AVR8/Template/Template_Endpoint_RW.c **** 			  return ErrorCode;
 499               		.loc 3 66 4 is_stmt 1 view .LVU120
  66:lib/lufa/LUFA/Drivers/USB/Core/AVR8/Template/Template_Endpoint_RW.c **** 			  return ErrorCode;
 500               		.loc 3 66 21 is_stmt 0 view .LVU121
 501 007e 0E94 0000 		call Endpoint_WaitUntilReady
 502               	.LVL37:
  66:lib/lufa/LUFA/Drivers/USB/Core/AVR8/Template/Template_Endpoint_RW.c **** 			  return ErrorCode;
 503               		.loc 3 66 7 view .LVU122
 504 0082 8823      		tst r24
 505 0084 01F0      		breq .L24
  66:lib/lufa/LUFA/Drivers/USB/Core/AVR8/Template/Template_Endpoint_RW.c **** 			  return ErrorCode;
 506               		.loc 3 66 21 view .LVU123
 507 0086 F82E      		mov r15,r24
 508 0088 00C0      		rjmp .L21
 509               	.LVL38:
 510               	.L25:
  71:lib/lufa/LUFA/Drivers/USB/Core/AVR8/Template/Template_Endpoint_RW.c **** 			TEMPLATE_BUFFER_MOVE(DataStream, 1);
 511               		.loc 3 71 4 is_stmt 1 view .LVU124
 512 008a F601      		movw r30,r12
 513 008c 8191      		ld r24,Z+
 514 008e 6F01      		movw r12,r30
 515               	.LVL39:
 516               	.LBB284:
 517               	.LBI284:
 552:lib/lufa/LUFA/Drivers/USB/Core/AVR8/../AVR8/../AVR8/Endpoint_AVR8.h **** 			{
 518               		.loc 2 552 23 view .LVU125
 519               	.LBB285:
 554:lib/lufa/LUFA/Drivers/USB/Core/AVR8/../AVR8/../AVR8/Endpoint_AVR8.h **** 			}
 520               		.loc 2 554 5 view .LVU126
 554:lib/lufa/LUFA/Drivers/USB/Core/AVR8/../AVR8/../AVR8/Endpoint_AVR8.h **** 			}
 521               		.loc 2 554 12 is_stmt 0 view .LVU127
 522 0090 8093 F100 		sts 241,r24
 523               	.LVL40:
 554:lib/lufa/LUFA/Drivers/USB/Core/AVR8/../AVR8/../AVR8/Endpoint_AVR8.h **** 			}
 524               		.loc 2 554 12 view .LVU128
 525               	.LBE285:
 526               	.LBE284:
  72:lib/lufa/LUFA/Drivers/USB/Core/AVR8/Template/Template_Endpoint_RW.c **** 			Length--;
 527               		.loc 3 72 4 is_stmt 1 view .LVU129
  73:lib/lufa/LUFA/Drivers/USB/Core/AVR8/Template/Template_Endpoint_RW.c **** 			BytesInTransfer++;
 528               		.loc 3 73 4 view .LVU130
  73:lib/lufa/LUFA/Drivers/USB/Core/AVR8/Template/Template_Endpoint_RW.c **** 			BytesInTransfer++;
 529               		.loc 3 73 10 is_stmt 0 view .LVU131
 530 0094 2197      		sbiw r28,1
 531               	.LVL41:
  74:lib/lufa/LUFA/Drivers/USB/Core/AVR8/Template/Template_Endpoint_RW.c **** 		}
 532               		.loc 3 74 4 is_stmt 1 view .LVU132
  74:lib/lufa/LUFA/Drivers/USB/Core/AVR8/Template/Template_Endpoint_RW.c **** 		}
 533               		.loc 3 74 19 is_stmt 0 view .LVU133
 534 0096 FFEF      		ldi r31,-1
 535 0098 AF1A      		sub r10,r31
 536 009a BF0A      		sbc r11,r31
 537               	.LVL42:
  74:lib/lufa/LUFA/Drivers/USB/Core/AVR8/Template/Template_Endpoint_RW.c **** 		}
 538               		.loc 3 74 19 view .LVU134
 539 009c 00C0      		rjmp .L24
 540               		.cfi_endproc
 541               	.LFE87:
 543               		.section	.text.Endpoint_Write_Stream_BE,"ax",@progbits
 544               	.global	Endpoint_Write_Stream_BE
 546               	Endpoint_Write_Stream_BE:
 547               	.LVL43:
 548               	.LFB88:
  36:lib/lufa/LUFA/Drivers/USB/Core/AVR8/Template/Template_Endpoint_RW.c **** 	uint8_t* DataStream      = ((uint8_t*)Buffer + TEMPLATE_BUFFER_OFFSET(Length));
 549               		.loc 3 36 1 is_stmt 1 view -0
 550               		.cfi_startproc
  36:lib/lufa/LUFA/Drivers/USB/Core/AVR8/Template/Template_Endpoint_RW.c **** 	uint8_t* DataStream      = ((uint8_t*)Buffer + TEMPLATE_BUFFER_OFFSET(Length));
 551               		.loc 3 36 1 is_stmt 0 view .LVU136
 552 0000 AF92      		push r10
 553               	.LCFI23:
 554               		.cfi_def_cfa_offset 3
 555               		.cfi_offset 10, -2
 556 0002 BF92      		push r11
 557               	.LCFI24:
 558               		.cfi_def_cfa_offset 4
 559               		.cfi_offset 11, -3
 560 0004 DF92      		push r13
 561               	.LCFI25:
 562               		.cfi_def_cfa_offset 5
 563               		.cfi_offset 13, -4
 564 0006 EF92      		push r14
 565               	.LCFI26:
 566               		.cfi_def_cfa_offset 6
 567               		.cfi_offset 14, -5
 568 0008 FF92      		push r15
 569               	.LCFI27:
 570               		.cfi_def_cfa_offset 7
 571               		.cfi_offset 15, -6
 572 000a 0F93      		push r16
 573               	.LCFI28:
 574               		.cfi_def_cfa_offset 8
 575               		.cfi_offset 16, -7
 576 000c 1F93      		push r17
 577               	.LCFI29:
 578               		.cfi_def_cfa_offset 9
 579               		.cfi_offset 17, -8
 580 000e CF93      		push r28
 581               	.LCFI30:
 582               		.cfi_def_cfa_offset 10
 583               		.cfi_offset 28, -9
 584 0010 DF93      		push r29
 585               	.LCFI31:
 586               		.cfi_def_cfa_offset 11
 587               		.cfi_offset 29, -10
 588               	/* prologue: function */
 589               	/* frame size = 0 */
 590               	/* stack size = 9 */
 591               	.L__stack_usage = 9
 592 0012 EC01      		movw r28,r24
 593 0014 8B01      		movw r16,r22
 594 0016 7A01      		movw r14,r20
  37:lib/lufa/LUFA/Drivers/USB/Core/AVR8/Template/Template_Endpoint_RW.c **** 	uint16_t BytesInTransfer = 0;
 595               		.loc 3 37 2 is_stmt 1 view .LVU137
 596               	.LVL44:
  38:lib/lufa/LUFA/Drivers/USB/Core/AVR8/Template/Template_Endpoint_RW.c **** 	uint8_t  ErrorCode;
 597               		.loc 3 38 2 view .LVU138
  39:lib/lufa/LUFA/Drivers/USB/Core/AVR8/Template/Template_Endpoint_RW.c **** 
 598               		.loc 3 39 2 view .LVU139
  41:lib/lufa/LUFA/Drivers/USB/Core/AVR8/Template/Template_Endpoint_RW.c **** 	  return ErrorCode;
 599               		.loc 3 41 2 view .LVU140
  41:lib/lufa/LUFA/Drivers/USB/Core/AVR8/Template/Template_Endpoint_RW.c **** 	  return ErrorCode;
 600               		.loc 3 41 19 is_stmt 0 view .LVU141
 601 0018 0E94 0000 		call Endpoint_WaitUntilReady
 602               	.LVL45:
  41:lib/lufa/LUFA/Drivers/USB/Core/AVR8/Template/Template_Endpoint_RW.c **** 	  return ErrorCode;
 603               		.loc 3 41 19 view .LVU142
 604 001c D82E      		mov r13,r24
 605               	.LVL46:
  41:lib/lufa/LUFA/Drivers/USB/Core/AVR8/Template/Template_Endpoint_RW.c **** 	  return ErrorCode;
 606               		.loc 3 41 5 view .LVU143
 607 001e 8111      		cpse r24,__zero_reg__
 608 0020 00C0      		rjmp .L33
  37:lib/lufa/LUFA/Drivers/USB/Core/AVR8/Template/Template_Endpoint_RW.c **** 	uint16_t BytesInTransfer = 0;
 609               		.loc 3 37 47 view .LVU144
 610 0022 C801      		movw r24,r16
 611 0024 0197      		sbiw r24,1
 612               	.LVL47:
  37:lib/lufa/LUFA/Drivers/USB/Core/AVR8/Template/Template_Endpoint_RW.c **** 	uint16_t BytesInTransfer = 0;
 613               		.loc 3 37 11 view .LVU145
 614 0026 C80F      		add r28,r24
 615 0028 D91F      		adc r29,r25
 616               	.LVL48:
  44:lib/lufa/LUFA/Drivers/USB/Core/AVR8/Template/Template_Endpoint_RW.c **** 	{
 617               		.loc 3 44 2 is_stmt 1 view .LVU146
  44:lib/lufa/LUFA/Drivers/USB/Core/AVR8/Template/Template_Endpoint_RW.c **** 	{
 618               		.loc 3 44 5 is_stmt 0 view .LVU147
 619 002a E114      		cp r14,__zero_reg__
 620 002c F104      		cpc r15,__zero_reg__
 621 002e 01F0      		breq .L35
  46:lib/lufa/LUFA/Drivers/USB/Core/AVR8/Template/Template_Endpoint_RW.c **** 		TEMPLATE_BUFFER_MOVE(DataStream, *BytesProcessed);
 622               		.loc 3 46 3 is_stmt 1 view .LVU148
  46:lib/lufa/LUFA/Drivers/USB/Core/AVR8/Template/Template_Endpoint_RW.c **** 		TEMPLATE_BUFFER_MOVE(DataStream, *BytesProcessed);
 623               		.loc 3 46 13 is_stmt 0 view .LVU149
 624 0030 F701      		movw r30,r14
 625 0032 8081      		ld r24,Z
 626 0034 9181      		ldd r25,Z+1
 627               	.LVL49:
  46:lib/lufa/LUFA/Drivers/USB/Core/AVR8/Template/Template_Endpoint_RW.c **** 		TEMPLATE_BUFFER_MOVE(DataStream, *BytesProcessed);
 628               		.loc 3 46 10 view .LVU150
 629 0036 081B      		sub r16,r24
 630 0038 190B      		sbc r17,r25
 631               	.LVL50:
  47:lib/lufa/LUFA/Drivers/USB/Core/AVR8/Template/Template_Endpoint_RW.c **** 	}
 632               		.loc 3 47 3 is_stmt 1 view .LVU151
 633 003a C81B      		sub r28,r24
 634 003c D90B      		sbc r29,r25
 635               	.LVL51:
 636               	.L35:
  36:lib/lufa/LUFA/Drivers/USB/Core/AVR8/Template/Template_Endpoint_RW.c **** 	uint8_t* DataStream      = ((uint8_t*)Buffer + TEMPLATE_BUFFER_OFFSET(Length));
 637               		.loc 3 36 1 is_stmt 0 view .LVU152
 638 003e B12C      		mov r11,__zero_reg__
 639 0040 A12C      		mov r10,__zero_reg__
 640               	.LVL52:
 641               	.L36:
  50:lib/lufa/LUFA/Drivers/USB/Core/AVR8/Template/Template_Endpoint_RW.c **** 	{
 642               		.loc 3 50 8 is_stmt 1 view .LVU153
 643 0042 0115      		cp r16,__zero_reg__
 644 0044 1105      		cpc r17,__zero_reg__
 645 0046 01F0      		breq .L33
  52:lib/lufa/LUFA/Drivers/USB/Core/AVR8/Template/Template_Endpoint_RW.c **** 		{
 646               		.loc 3 52 3 view .LVU154
 647               	.LBB286:
 648               	.LBI286:
 358:lib/lufa/LUFA/Drivers/USB/Core/AVR8/../AVR8/../AVR8/Endpoint_AVR8.h **** 			{
 649               		.loc 2 358 23 view .LVU155
 650               	.LBB287:
 360:lib/lufa/LUFA/Drivers/USB/Core/AVR8/../AVR8/../AVR8/Endpoint_AVR8.h **** 			}
 651               		.loc 2 360 5 view .LVU156
 360:lib/lufa/LUFA/Drivers/USB/Core/AVR8/../AVR8/../AVR8/Endpoint_AVR8.h **** 			}
 652               		.loc 2 360 14 is_stmt 0 view .LVU157
 653 0048 8091 E800 		lds r24,232
 654               	.LBE287:
 655               	.LBE286:
  52:lib/lufa/LUFA/Drivers/USB/Core/AVR8/Template/Template_Endpoint_RW.c **** 		{
 656               		.loc 3 52 6 view .LVU158
 657 004c 85FD      		sbrc r24,5
 658 004e 00C0      		rjmp .L37
  54:lib/lufa/LUFA/Drivers/USB/Core/AVR8/Template/Template_Endpoint_RW.c **** 
 659               		.loc 3 54 4 is_stmt 1 view .LVU159
 660               	.LBB288:
 661               	.LBI288:
 453:lib/lufa/LUFA/Drivers/USB/Core/AVR8/../AVR8/../AVR8/Endpoint_AVR8.h **** 			{
 662               		.loc 2 453 23 view .LVU160
 663               	.LBB289:
 456:lib/lufa/LUFA/Drivers/USB/Core/AVR8/../AVR8/../AVR8/Endpoint_AVR8.h **** 				#else
 664               		.loc 2 456 6 view .LVU161
 456:lib/lufa/LUFA/Drivers/USB/Core/AVR8/../AVR8/../AVR8/Endpoint_AVR8.h **** 				#else
 665               		.loc 2 456 13 is_stmt 0 view .LVU162
 666 0050 8091 E800 		lds r24,232
 667 0054 8E77      		andi r24,lo8(126)
 668 0056 8093 E800 		sts 232,r24
 669               	.LBE289:
 670               	.LBE288:
  60:lib/lufa/LUFA/Drivers/USB/Core/AVR8/Template/Template_Endpoint_RW.c **** 			{
 671               		.loc 3 60 4 is_stmt 1 view .LVU163
  60:lib/lufa/LUFA/Drivers/USB/Core/AVR8/Template/Template_Endpoint_RW.c **** 			{
 672               		.loc 3 60 7 is_stmt 0 view .LVU164
 673 005a E114      		cp r14,__zero_reg__
 674 005c F104      		cpc r15,__zero_reg__
 675 005e 01F0      		breq .L38
  62:lib/lufa/LUFA/Drivers/USB/Core/AVR8/Template/Template_Endpoint_RW.c **** 				return ENDPOINT_RWSTREAM_IncompleteTransfer;
 676               		.loc 3 62 5 is_stmt 1 view .LVU165
  62:lib/lufa/LUFA/Drivers/USB/Core/AVR8/Template/Template_Endpoint_RW.c **** 				return ENDPOINT_RWSTREAM_IncompleteTransfer;
 677               		.loc 3 62 21 is_stmt 0 view .LVU166
 678 0060 F701      		movw r30,r14
 679 0062 8081      		ld r24,Z
 680 0064 9181      		ldd r25,Z+1
 681 0066 A80E      		add r10,r24
 682 0068 B91E      		adc r11,r25
 683               	.LVL53:
  62:lib/lufa/LUFA/Drivers/USB/Core/AVR8/Template/Template_Endpoint_RW.c **** 				return ENDPOINT_RWSTREAM_IncompleteTransfer;
 684               		.loc 3 62 21 view .LVU167
 685 006a B182      		std Z+1,r11
 686 006c A082      		st Z,r10
  63:lib/lufa/LUFA/Drivers/USB/Core/AVR8/Template/Template_Endpoint_RW.c **** 			}
 687               		.loc 3 63 5 is_stmt 1 view .LVU168
  63:lib/lufa/LUFA/Drivers/USB/Core/AVR8/Template/Template_Endpoint_RW.c **** 			}
 688               		.loc 3 63 12 is_stmt 0 view .LVU169
 689 006e 85E0      		ldi r24,lo8(5)
 690 0070 D82E      		mov r13,r24
 691               	.LVL54:
 692               	.L33:
 693               		.loc 3 79 1 view .LVU170
 694 0072 8D2D      		mov r24,r13
 695               	/* epilogue start */
 696 0074 DF91      		pop r29
 697 0076 CF91      		pop r28
 698 0078 1F91      		pop r17
 699 007a 0F91      		pop r16
 700               	.LVL55:
 701               		.loc 3 79 1 view .LVU171
 702 007c FF90      		pop r15
 703 007e EF90      		pop r14
 704               	.LVL56:
 705               		.loc 3 79 1 view .LVU172
 706 0080 DF90      		pop r13
 707 0082 BF90      		pop r11
 708 0084 AF90      		pop r10
 709 0086 0895      		ret
 710               	.LVL57:
 711               	.L38:
  66:lib/lufa/LUFA/Drivers/USB/Core/AVR8/Template/Template_Endpoint_RW.c **** 			  return ErrorCode;
 712               		.loc 3 66 4 is_stmt 1 view .LVU173
  66:lib/lufa/LUFA/Drivers/USB/Core/AVR8/Template/Template_Endpoint_RW.c **** 			  return ErrorCode;
 713               		.loc 3 66 21 is_stmt 0 view .LVU174
 714 0088 0E94 0000 		call Endpoint_WaitUntilReady
 715               	.LVL58:
  66:lib/lufa/LUFA/Drivers/USB/Core/AVR8/Template/Template_Endpoint_RW.c **** 			  return ErrorCode;
 716               		.loc 3 66 7 view .LVU175
 717 008c 8823      		tst r24
 718 008e 01F0      		breq .L36
  66:lib/lufa/LUFA/Drivers/USB/Core/AVR8/Template/Template_Endpoint_RW.c **** 			  return ErrorCode;
 719               		.loc 3 66 21 view .LVU176
 720 0090 D82E      		mov r13,r24
 721 0092 00C0      		rjmp .L33
 722               	.LVL59:
 723               	.L37:
  71:lib/lufa/LUFA/Drivers/USB/Core/AVR8/Template/Template_Endpoint_RW.c **** 			TEMPLATE_BUFFER_MOVE(DataStream, 1);
 724               		.loc 3 71 4 is_stmt 1 view .LVU177
 725 0094 8881      		ld r24,Y
 726               	.LVL60:
 727               	.LBB290:
 728               	.LBI290:
 552:lib/lufa/LUFA/Drivers/USB/Core/AVR8/../AVR8/../AVR8/Endpoint_AVR8.h **** 			{
 729               		.loc 2 552 23 view .LVU178
 730               	.LBB291:
 554:lib/lufa/LUFA/Drivers/USB/Core/AVR8/../AVR8/../AVR8/Endpoint_AVR8.h **** 			}
 731               		.loc 2 554 5 view .LVU179
 554:lib/lufa/LUFA/Drivers/USB/Core/AVR8/../AVR8/../AVR8/Endpoint_AVR8.h **** 			}
 732               		.loc 2 554 12 is_stmt 0 view .LVU180
 733 0096 8093 F100 		sts 241,r24
 734               	.LVL61:
 554:lib/lufa/LUFA/Drivers/USB/Core/AVR8/../AVR8/../AVR8/Endpoint_AVR8.h **** 			}
 735               		.loc 2 554 12 view .LVU181
 736               	.LBE291:
 737               	.LBE290:
  72:lib/lufa/LUFA/Drivers/USB/Core/AVR8/Template/Template_Endpoint_RW.c **** 			Length--;
 738               		.loc 3 72 4 is_stmt 1 view .LVU182
 739 009a 2197      		sbiw r28,1
 740               	.LVL62:
  73:lib/lufa/LUFA/Drivers/USB/Core/AVR8/Template/Template_Endpoint_RW.c **** 			BytesInTransfer++;
 741               		.loc 3 73 4 view .LVU183
  73:lib/lufa/LUFA/Drivers/USB/Core/AVR8/Template/Template_Endpoint_RW.c **** 			BytesInTransfer++;
 742               		.loc 3 73 10 is_stmt 0 view .LVU184
 743 009c 0150      		subi r16,1
 744 009e 1109      		sbc r17,__zero_reg__
 745               	.LVL63:
  74:lib/lufa/LUFA/Drivers/USB/Core/AVR8/Template/Template_Endpoint_RW.c **** 		}
 746               		.loc 3 74 4 is_stmt 1 view .LVU185
  74:lib/lufa/LUFA/Drivers/USB/Core/AVR8/Template/Template_Endpoint_RW.c **** 		}
 747               		.loc 3 74 19 is_stmt 0 view .LVU186
 748 00a0 FFEF      		ldi r31,-1
 749 00a2 AF1A      		sub r10,r31
 750 00a4 BF0A      		sbc r11,r31
 751               	.LVL64:
  74:lib/lufa/LUFA/Drivers/USB/Core/AVR8/Template/Template_Endpoint_RW.c **** 		}
 752               		.loc 3 74 19 view .LVU187
 753 00a6 00C0      		rjmp .L36
 754               		.cfi_endproc
 755               	.LFE88:
 757               		.section	.text.Endpoint_Read_Stream_LE,"ax",@progbits
 758               	.global	Endpoint_Read_Stream_LE
 760               	Endpoint_Read_Stream_LE:
 761               	.LVL65:
 762               	.LFB89:
  36:lib/lufa/LUFA/Drivers/USB/Core/AVR8/Template/Template_Endpoint_RW.c **** 	uint8_t* DataStream      = ((uint8_t*)Buffer + TEMPLATE_BUFFER_OFFSET(Length));
 763               		.loc 3 36 1 is_stmt 1 view -0
 764               		.cfi_startproc
  36:lib/lufa/LUFA/Drivers/USB/Core/AVR8/Template/Template_Endpoint_RW.c **** 	uint8_t* DataStream      = ((uint8_t*)Buffer + TEMPLATE_BUFFER_OFFSET(Length));
 765               		.loc 3 36 1 is_stmt 0 view .LVU189
 766 0000 AF92      		push r10
 767               	.LCFI32:
 768               		.cfi_def_cfa_offset 3
 769               		.cfi_offset 10, -2
 770 0002 BF92      		push r11
 771               	.LCFI33:
 772               		.cfi_def_cfa_offset 4
 773               		.cfi_offset 11, -3
 774 0004 CF92      		push r12
 775               	.LCFI34:
 776               		.cfi_def_cfa_offset 5
 777               		.cfi_offset 12, -4
 778 0006 DF92      		push r13
 779               	.LCFI35:
 780               		.cfi_def_cfa_offset 6
 781               		.cfi_offset 13, -5
 782 0008 FF92      		push r15
 783               	.LCFI36:
 784               		.cfi_def_cfa_offset 7
 785               		.cfi_offset 15, -6
 786 000a 0F93      		push r16
 787               	.LCFI37:
 788               		.cfi_def_cfa_offset 8
 789               		.cfi_offset 16, -7
 790 000c 1F93      		push r17
 791               	.LCFI38:
 792               		.cfi_def_cfa_offset 9
 793               		.cfi_offset 17, -8
 794 000e CF93      		push r28
 795               	.LCFI39:
 796               		.cfi_def_cfa_offset 10
 797               		.cfi_offset 28, -9
 798 0010 DF93      		push r29
 799               	.LCFI40:
 800               		.cfi_def_cfa_offset 11
 801               		.cfi_offset 29, -10
 802               	/* prologue: function */
 803               	/* frame size = 0 */
 804               	/* stack size = 9 */
 805               	.L__stack_usage = 9
 806 0012 6C01      		movw r12,r24
 807 0014 EB01      		movw r28,r22
 808 0016 8A01      		movw r16,r20
  37:lib/lufa/LUFA/Drivers/USB/Core/AVR8/Template/Template_Endpoint_RW.c **** 	uint16_t BytesInTransfer = 0;
 809               		.loc 3 37 2 is_stmt 1 view .LVU190
 810               	.LVL66:
  38:lib/lufa/LUFA/Drivers/USB/Core/AVR8/Template/Template_Endpoint_RW.c **** 	uint8_t  ErrorCode;
 811               		.loc 3 38 2 view .LVU191
  39:lib/lufa/LUFA/Drivers/USB/Core/AVR8/Template/Template_Endpoint_RW.c **** 
 812               		.loc 3 39 2 view .LVU192
  41:lib/lufa/LUFA/Drivers/USB/Core/AVR8/Template/Template_Endpoint_RW.c **** 	  return ErrorCode;
 813               		.loc 3 41 2 view .LVU193
  41:lib/lufa/LUFA/Drivers/USB/Core/AVR8/Template/Template_Endpoint_RW.c **** 	  return ErrorCode;
 814               		.loc 3 41 19 is_stmt 0 view .LVU194
 815 0018 0E94 0000 		call Endpoint_WaitUntilReady
 816               	.LVL67:
  41:lib/lufa/LUFA/Drivers/USB/Core/AVR8/Template/Template_Endpoint_RW.c **** 	  return ErrorCode;
 817               		.loc 3 41 19 view .LVU195
 818 001c F82E      		mov r15,r24
 819               	.LVL68:
  41:lib/lufa/LUFA/Drivers/USB/Core/AVR8/Template/Template_Endpoint_RW.c **** 	  return ErrorCode;
 820               		.loc 3 41 5 view .LVU196
 821 001e 8111      		cpse r24,__zero_reg__
 822 0020 00C0      		rjmp .L45
  44:lib/lufa/LUFA/Drivers/USB/Core/AVR8/Template/Template_Endpoint_RW.c **** 	{
 823               		.loc 3 44 2 is_stmt 1 view .LVU197
  44:lib/lufa/LUFA/Drivers/USB/Core/AVR8/Template/Template_Endpoint_RW.c **** 	{
 824               		.loc 3 44 5 is_stmt 0 view .LVU198
 825 0022 0115      		cp r16,__zero_reg__
 826 0024 1105      		cpc r17,__zero_reg__
 827 0026 01F0      		breq .L47
  46:lib/lufa/LUFA/Drivers/USB/Core/AVR8/Template/Template_Endpoint_RW.c **** 		TEMPLATE_BUFFER_MOVE(DataStream, *BytesProcessed);
 828               		.loc 3 46 3 is_stmt 1 view .LVU199
  46:lib/lufa/LUFA/Drivers/USB/Core/AVR8/Template/Template_Endpoint_RW.c **** 		TEMPLATE_BUFFER_MOVE(DataStream, *BytesProcessed);
 829               		.loc 3 46 13 is_stmt 0 view .LVU200
 830 0028 F801      		movw r30,r16
 831 002a 8081      		ld r24,Z
 832 002c 9181      		ldd r25,Z+1
  46:lib/lufa/LUFA/Drivers/USB/Core/AVR8/Template/Template_Endpoint_RW.c **** 		TEMPLATE_BUFFER_MOVE(DataStream, *BytesProcessed);
 833               		.loc 3 46 10 view .LVU201
 834 002e C81B      		sub r28,r24
 835 0030 D90B      		sbc r29,r25
 836               	.LVL69:
  47:lib/lufa/LUFA/Drivers/USB/Core/AVR8/Template/Template_Endpoint_RW.c **** 	}
 837               		.loc 3 47 3 is_stmt 1 view .LVU202
 838 0032 C80E      		add r12,r24
 839 0034 D91E      		adc r13,r25
 840               	.LVL70:
 841               	.L47:
  36:lib/lufa/LUFA/Drivers/USB/Core/AVR8/Template/Template_Endpoint_RW.c **** 	uint8_t* DataStream      = ((uint8_t*)Buffer + TEMPLATE_BUFFER_OFFSET(Length));
 842               		.loc 3 36 1 is_stmt 0 view .LVU203
 843 0036 B12C      		mov r11,__zero_reg__
 844 0038 A12C      		mov r10,__zero_reg__
 845               	.LVL71:
 846               	.L48:
  50:lib/lufa/LUFA/Drivers/USB/Core/AVR8/Template/Template_Endpoint_RW.c **** 	{
 847               		.loc 3 50 8 is_stmt 1 view .LVU204
 848 003a 2097      		sbiw r28,0
 849 003c 01F0      		breq .L45
  52:lib/lufa/LUFA/Drivers/USB/Core/AVR8/Template/Template_Endpoint_RW.c **** 		{
 850               		.loc 3 52 3 view .LVU205
 851               	.LBB292:
 852               	.LBI292:
 358:lib/lufa/LUFA/Drivers/USB/Core/AVR8/../AVR8/../AVR8/Endpoint_AVR8.h **** 			{
 853               		.loc 2 358 23 view .LVU206
 854               	.LBB293:
 360:lib/lufa/LUFA/Drivers/USB/Core/AVR8/../AVR8/../AVR8/Endpoint_AVR8.h **** 			}
 855               		.loc 2 360 5 view .LVU207
 360:lib/lufa/LUFA/Drivers/USB/Core/AVR8/../AVR8/../AVR8/Endpoint_AVR8.h **** 			}
 856               		.loc 2 360 14 is_stmt 0 view .LVU208
 857 003e 8091 E800 		lds r24,232
 858               	.LBE293:
 859               	.LBE292:
  52:lib/lufa/LUFA/Drivers/USB/Core/AVR8/Template/Template_Endpoint_RW.c **** 		{
 860               		.loc 3 52 6 view .LVU209
 861 0042 85FD      		sbrc r24,5
 862 0044 00C0      		rjmp .L49
  54:lib/lufa/LUFA/Drivers/USB/Core/AVR8/Template/Template_Endpoint_RW.c **** 
 863               		.loc 3 54 4 is_stmt 1 view .LVU210
 864               	.LBB294:
 865               	.LBI294:
 468:lib/lufa/LUFA/Drivers/USB/Core/AVR8/../AVR8/../AVR8/Endpoint_AVR8.h **** 			{
 866               		.loc 2 468 23 view .LVU211
 867               	.LBB295:
 471:lib/lufa/LUFA/Drivers/USB/Core/AVR8/../AVR8/../AVR8/Endpoint_AVR8.h **** 				#else
 868               		.loc 2 471 6 view .LVU212
 471:lib/lufa/LUFA/Drivers/USB/Core/AVR8/../AVR8/../AVR8/Endpoint_AVR8.h **** 				#else
 869               		.loc 2 471 13 is_stmt 0 view .LVU213
 870 0046 8091 E800 		lds r24,232
 871 004a 8B77      		andi r24,lo8(123)
 872 004c 8093 E800 		sts 232,r24
 873               	.LBE295:
 874               	.LBE294:
  60:lib/lufa/LUFA/Drivers/USB/Core/AVR8/Template/Template_Endpoint_RW.c **** 			{
 875               		.loc 3 60 4 is_stmt 1 view .LVU214
  60:lib/lufa/LUFA/Drivers/USB/Core/AVR8/Template/Template_Endpoint_RW.c **** 			{
 876               		.loc 3 60 7 is_stmt 0 view .LVU215
 877 0050 0115      		cp r16,__zero_reg__
 878 0052 1105      		cpc r17,__zero_reg__
 879 0054 01F0      		breq .L50
  62:lib/lufa/LUFA/Drivers/USB/Core/AVR8/Template/Template_Endpoint_RW.c **** 				return ENDPOINT_RWSTREAM_IncompleteTransfer;
 880               		.loc 3 62 5 is_stmt 1 view .LVU216
  62:lib/lufa/LUFA/Drivers/USB/Core/AVR8/Template/Template_Endpoint_RW.c **** 				return ENDPOINT_RWSTREAM_IncompleteTransfer;
 881               		.loc 3 62 21 is_stmt 0 view .LVU217
 882 0056 F801      		movw r30,r16
 883 0058 8081      		ld r24,Z
 884 005a 9181      		ldd r25,Z+1
 885 005c A80E      		add r10,r24
 886 005e B91E      		adc r11,r25
 887               	.LVL72:
  62:lib/lufa/LUFA/Drivers/USB/Core/AVR8/Template/Template_Endpoint_RW.c **** 				return ENDPOINT_RWSTREAM_IncompleteTransfer;
 888               		.loc 3 62 21 view .LVU218
 889 0060 B182      		std Z+1,r11
 890 0062 A082      		st Z,r10
  63:lib/lufa/LUFA/Drivers/USB/Core/AVR8/Template/Template_Endpoint_RW.c **** 			}
 891               		.loc 3 63 5 is_stmt 1 view .LVU219
  63:lib/lufa/LUFA/Drivers/USB/Core/AVR8/Template/Template_Endpoint_RW.c **** 			}
 892               		.loc 3 63 12 is_stmt 0 view .LVU220
 893 0064 85E0      		ldi r24,lo8(5)
 894 0066 F82E      		mov r15,r24
 895               	.L45:
 896               		.loc 3 79 1 view .LVU221
 897 0068 8F2D      		mov r24,r15
 898               	/* epilogue start */
 899 006a DF91      		pop r29
 900 006c CF91      		pop r28
 901               	.LVL73:
 902               		.loc 3 79 1 view .LVU222
 903 006e 1F91      		pop r17
 904 0070 0F91      		pop r16
 905               	.LVL74:
 906               		.loc 3 79 1 view .LVU223
 907 0072 FF90      		pop r15
 908 0074 DF90      		pop r13
 909 0076 CF90      		pop r12
 910               	.LVL75:
 911               		.loc 3 79 1 view .LVU224
 912 0078 BF90      		pop r11
 913 007a AF90      		pop r10
 914 007c 0895      		ret
 915               	.LVL76:
 916               	.L50:
  66:lib/lufa/LUFA/Drivers/USB/Core/AVR8/Template/Template_Endpoint_RW.c **** 			  return ErrorCode;
 917               		.loc 3 66 4 is_stmt 1 view .LVU225
  66:lib/lufa/LUFA/Drivers/USB/Core/AVR8/Template/Template_Endpoint_RW.c **** 			  return ErrorCode;
 918               		.loc 3 66 21 is_stmt 0 view .LVU226
 919 007e 0E94 0000 		call Endpoint_WaitUntilReady
 920               	.LVL77:
  66:lib/lufa/LUFA/Drivers/USB/Core/AVR8/Template/Template_Endpoint_RW.c **** 			  return ErrorCode;
 921               		.loc 3 66 7 view .LVU227
 922 0082 8823      		tst r24
 923 0084 01F0      		breq .L48
  66:lib/lufa/LUFA/Drivers/USB/Core/AVR8/Template/Template_Endpoint_RW.c **** 			  return ErrorCode;
 924               		.loc 3 66 21 view .LVU228
 925 0086 F82E      		mov r15,r24
 926 0088 00C0      		rjmp .L45
 927               	.LVL78:
 928               	.L49:
  71:lib/lufa/LUFA/Drivers/USB/Core/AVR8/Template/Template_Endpoint_RW.c **** 			TEMPLATE_BUFFER_MOVE(DataStream, 1);
 929               		.loc 3 71 4 is_stmt 1 view .LVU229
 930               	.LBB296:
 931               	.LBI296:
 540:lib/lufa/LUFA/Drivers/USB/Core/AVR8/../AVR8/../AVR8/Endpoint_AVR8.h **** 			{
 932               		.loc 2 540 26 view .LVU230
 933               	.LBB297:
 542:lib/lufa/LUFA/Drivers/USB/Core/AVR8/../AVR8/../AVR8/Endpoint_AVR8.h **** 			}
 934               		.loc 2 542 5 view .LVU231
 542:lib/lufa/LUFA/Drivers/USB/Core/AVR8/../AVR8/../AVR8/Endpoint_AVR8.h **** 			}
 935               		.loc 2 542 12 is_stmt 0 view .LVU232
 936 008a 8091 F100 		lds r24,241
 937               	.LBE297:
 938               	.LBE296:
  71:lib/lufa/LUFA/Drivers/USB/Core/AVR8/Template/Template_Endpoint_RW.c **** 			TEMPLATE_BUFFER_MOVE(DataStream, 1);
 939               		.loc 3 71 4 view .LVU233
 940 008e F601      		movw r30,r12
 941 0090 8193      		st Z+,r24
 942 0092 6F01      		movw r12,r30
 943               	.LVL79:
  72:lib/lufa/LUFA/Drivers/USB/Core/AVR8/Template/Template_Endpoint_RW.c **** 			Length--;
 944               		.loc 3 72 4 is_stmt 1 view .LVU234
  73:lib/lufa/LUFA/Drivers/USB/Core/AVR8/Template/Template_Endpoint_RW.c **** 			BytesInTransfer++;
 945               		.loc 3 73 4 view .LVU235
  73:lib/lufa/LUFA/Drivers/USB/Core/AVR8/Template/Template_Endpoint_RW.c **** 			BytesInTransfer++;
 946               		.loc 3 73 10 is_stmt 0 view .LVU236
 947 0094 2197      		sbiw r28,1
 948               	.LVL80:
  74:lib/lufa/LUFA/Drivers/USB/Core/AVR8/Template/Template_Endpoint_RW.c **** 		}
 949               		.loc 3 74 4 is_stmt 1 view .LVU237
  74:lib/lufa/LUFA/Drivers/USB/Core/AVR8/Template/Template_Endpoint_RW.c **** 		}
 950               		.loc 3 74 19 is_stmt 0 view .LVU238
 951 0096 FFEF      		ldi r31,-1
 952 0098 AF1A      		sub r10,r31
 953 009a BF0A      		sbc r11,r31
 954               	.LVL81:
  74:lib/lufa/LUFA/Drivers/USB/Core/AVR8/Template/Template_Endpoint_RW.c **** 		}
 955               		.loc 3 74 19 view .LVU239
 956 009c 00C0      		rjmp .L48
 957               		.cfi_endproc
 958               	.LFE89:
 960               		.section	.text.Endpoint_Read_Stream_BE,"ax",@progbits
 961               	.global	Endpoint_Read_Stream_BE
 963               	Endpoint_Read_Stream_BE:
 964               	.LVL82:
 965               	.LFB90:
  36:lib/lufa/LUFA/Drivers/USB/Core/AVR8/Template/Template_Endpoint_RW.c **** 	uint8_t* DataStream      = ((uint8_t*)Buffer + TEMPLATE_BUFFER_OFFSET(Length));
 966               		.loc 3 36 1 is_stmt 1 view -0
 967               		.cfi_startproc
  36:lib/lufa/LUFA/Drivers/USB/Core/AVR8/Template/Template_Endpoint_RW.c **** 	uint8_t* DataStream      = ((uint8_t*)Buffer + TEMPLATE_BUFFER_OFFSET(Length));
 968               		.loc 3 36 1 is_stmt 0 view .LVU241
 969 0000 AF92      		push r10
 970               	.LCFI41:
 971               		.cfi_def_cfa_offset 3
 972               		.cfi_offset 10, -2
 973 0002 BF92      		push r11
 974               	.LCFI42:
 975               		.cfi_def_cfa_offset 4
 976               		.cfi_offset 11, -3
 977 0004 DF92      		push r13
 978               	.LCFI43:
 979               		.cfi_def_cfa_offset 5
 980               		.cfi_offset 13, -4
 981 0006 EF92      		push r14
 982               	.LCFI44:
 983               		.cfi_def_cfa_offset 6
 984               		.cfi_offset 14, -5
 985 0008 FF92      		push r15
 986               	.LCFI45:
 987               		.cfi_def_cfa_offset 7
 988               		.cfi_offset 15, -6
 989 000a 0F93      		push r16
 990               	.LCFI46:
 991               		.cfi_def_cfa_offset 8
 992               		.cfi_offset 16, -7
 993 000c 1F93      		push r17
 994               	.LCFI47:
 995               		.cfi_def_cfa_offset 9
 996               		.cfi_offset 17, -8
 997 000e CF93      		push r28
 998               	.LCFI48:
 999               		.cfi_def_cfa_offset 10
 1000               		.cfi_offset 28, -9
 1001 0010 DF93      		push r29
 1002               	.LCFI49:
 1003               		.cfi_def_cfa_offset 11
 1004               		.cfi_offset 29, -10
 1005               	/* prologue: function */
 1006               	/* frame size = 0 */
 1007               	/* stack size = 9 */
 1008               	.L__stack_usage = 9
 1009 0012 EC01      		movw r28,r24
 1010 0014 8B01      		movw r16,r22
 1011 0016 7A01      		movw r14,r20
  37:lib/lufa/LUFA/Drivers/USB/Core/AVR8/Template/Template_Endpoint_RW.c **** 	uint16_t BytesInTransfer = 0;
 1012               		.loc 3 37 2 is_stmt 1 view .LVU242
 1013               	.LVL83:
  38:lib/lufa/LUFA/Drivers/USB/Core/AVR8/Template/Template_Endpoint_RW.c **** 	uint8_t  ErrorCode;
 1014               		.loc 3 38 2 view .LVU243
  39:lib/lufa/LUFA/Drivers/USB/Core/AVR8/Template/Template_Endpoint_RW.c **** 
 1015               		.loc 3 39 2 view .LVU244
  41:lib/lufa/LUFA/Drivers/USB/Core/AVR8/Template/Template_Endpoint_RW.c **** 	  return ErrorCode;
 1016               		.loc 3 41 2 view .LVU245
  41:lib/lufa/LUFA/Drivers/USB/Core/AVR8/Template/Template_Endpoint_RW.c **** 	  return ErrorCode;
 1017               		.loc 3 41 19 is_stmt 0 view .LVU246
 1018 0018 0E94 0000 		call Endpoint_WaitUntilReady
 1019               	.LVL84:
  41:lib/lufa/LUFA/Drivers/USB/Core/AVR8/Template/Template_Endpoint_RW.c **** 	  return ErrorCode;
 1020               		.loc 3 41 19 view .LVU247
 1021 001c D82E      		mov r13,r24
 1022               	.LVL85:
  41:lib/lufa/LUFA/Drivers/USB/Core/AVR8/Template/Template_Endpoint_RW.c **** 	  return ErrorCode;
 1023               		.loc 3 41 5 view .LVU248
 1024 001e 8111      		cpse r24,__zero_reg__
 1025 0020 00C0      		rjmp .L57
  37:lib/lufa/LUFA/Drivers/USB/Core/AVR8/Template/Template_Endpoint_RW.c **** 	uint16_t BytesInTransfer = 0;
 1026               		.loc 3 37 47 view .LVU249
 1027 0022 C801      		movw r24,r16
 1028 0024 0197      		sbiw r24,1
 1029               	.LVL86:
  37:lib/lufa/LUFA/Drivers/USB/Core/AVR8/Template/Template_Endpoint_RW.c **** 	uint16_t BytesInTransfer = 0;
 1030               		.loc 3 37 11 view .LVU250
 1031 0026 C80F      		add r28,r24
 1032 0028 D91F      		adc r29,r25
 1033               	.LVL87:
  44:lib/lufa/LUFA/Drivers/USB/Core/AVR8/Template/Template_Endpoint_RW.c **** 	{
 1034               		.loc 3 44 2 is_stmt 1 view .LVU251
  44:lib/lufa/LUFA/Drivers/USB/Core/AVR8/Template/Template_Endpoint_RW.c **** 	{
 1035               		.loc 3 44 5 is_stmt 0 view .LVU252
 1036 002a E114      		cp r14,__zero_reg__
 1037 002c F104      		cpc r15,__zero_reg__
 1038 002e 01F0      		breq .L59
  46:lib/lufa/LUFA/Drivers/USB/Core/AVR8/Template/Template_Endpoint_RW.c **** 		TEMPLATE_BUFFER_MOVE(DataStream, *BytesProcessed);
 1039               		.loc 3 46 3 is_stmt 1 view .LVU253
  46:lib/lufa/LUFA/Drivers/USB/Core/AVR8/Template/Template_Endpoint_RW.c **** 		TEMPLATE_BUFFER_MOVE(DataStream, *BytesProcessed);
 1040               		.loc 3 46 13 is_stmt 0 view .LVU254
 1041 0030 F701      		movw r30,r14
 1042 0032 8081      		ld r24,Z
 1043 0034 9181      		ldd r25,Z+1
 1044               	.LVL88:
  46:lib/lufa/LUFA/Drivers/USB/Core/AVR8/Template/Template_Endpoint_RW.c **** 		TEMPLATE_BUFFER_MOVE(DataStream, *BytesProcessed);
 1045               		.loc 3 46 10 view .LVU255
 1046 0036 081B      		sub r16,r24
 1047 0038 190B      		sbc r17,r25
 1048               	.LVL89:
  47:lib/lufa/LUFA/Drivers/USB/Core/AVR8/Template/Template_Endpoint_RW.c **** 	}
 1049               		.loc 3 47 3 is_stmt 1 view .LVU256
 1050 003a C81B      		sub r28,r24
 1051 003c D90B      		sbc r29,r25
 1052               	.LVL90:
 1053               	.L59:
  36:lib/lufa/LUFA/Drivers/USB/Core/AVR8/Template/Template_Endpoint_RW.c **** 	uint8_t* DataStream      = ((uint8_t*)Buffer + TEMPLATE_BUFFER_OFFSET(Length));
 1054               		.loc 3 36 1 is_stmt 0 view .LVU257
 1055 003e B12C      		mov r11,__zero_reg__
 1056 0040 A12C      		mov r10,__zero_reg__
 1057               	.LVL91:
 1058               	.L60:
  50:lib/lufa/LUFA/Drivers/USB/Core/AVR8/Template/Template_Endpoint_RW.c **** 	{
 1059               		.loc 3 50 8 is_stmt 1 view .LVU258
 1060 0042 0115      		cp r16,__zero_reg__
 1061 0044 1105      		cpc r17,__zero_reg__
 1062 0046 01F0      		breq .L57
  52:lib/lufa/LUFA/Drivers/USB/Core/AVR8/Template/Template_Endpoint_RW.c **** 		{
 1063               		.loc 3 52 3 view .LVU259
 1064               	.LBB298:
 1065               	.LBI298:
 358:lib/lufa/LUFA/Drivers/USB/Core/AVR8/../AVR8/../AVR8/Endpoint_AVR8.h **** 			{
 1066               		.loc 2 358 23 view .LVU260
 1067               	.LBB299:
 360:lib/lufa/LUFA/Drivers/USB/Core/AVR8/../AVR8/../AVR8/Endpoint_AVR8.h **** 			}
 1068               		.loc 2 360 5 view .LVU261
 360:lib/lufa/LUFA/Drivers/USB/Core/AVR8/../AVR8/../AVR8/Endpoint_AVR8.h **** 			}
 1069               		.loc 2 360 14 is_stmt 0 view .LVU262
 1070 0048 8091 E800 		lds r24,232
 1071               	.LBE299:
 1072               	.LBE298:
  52:lib/lufa/LUFA/Drivers/USB/Core/AVR8/Template/Template_Endpoint_RW.c **** 		{
 1073               		.loc 3 52 6 view .LVU263
 1074 004c 85FD      		sbrc r24,5
 1075 004e 00C0      		rjmp .L61
  54:lib/lufa/LUFA/Drivers/USB/Core/AVR8/Template/Template_Endpoint_RW.c **** 
 1076               		.loc 3 54 4 is_stmt 1 view .LVU264
 1077               	.LBB300:
 1078               	.LBI300:
 468:lib/lufa/LUFA/Drivers/USB/Core/AVR8/../AVR8/../AVR8/Endpoint_AVR8.h **** 			{
 1079               		.loc 2 468 23 view .LVU265
 1080               	.LBB301:
 471:lib/lufa/LUFA/Drivers/USB/Core/AVR8/../AVR8/../AVR8/Endpoint_AVR8.h **** 				#else
 1081               		.loc 2 471 6 view .LVU266
 471:lib/lufa/LUFA/Drivers/USB/Core/AVR8/../AVR8/../AVR8/Endpoint_AVR8.h **** 				#else
 1082               		.loc 2 471 13 is_stmt 0 view .LVU267
 1083 0050 8091 E800 		lds r24,232
 1084 0054 8B77      		andi r24,lo8(123)
 1085 0056 8093 E800 		sts 232,r24
 1086               	.LBE301:
 1087               	.LBE300:
  60:lib/lufa/LUFA/Drivers/USB/Core/AVR8/Template/Template_Endpoint_RW.c **** 			{
 1088               		.loc 3 60 4 is_stmt 1 view .LVU268
  60:lib/lufa/LUFA/Drivers/USB/Core/AVR8/Template/Template_Endpoint_RW.c **** 			{
 1089               		.loc 3 60 7 is_stmt 0 view .LVU269
 1090 005a E114      		cp r14,__zero_reg__
 1091 005c F104      		cpc r15,__zero_reg__
 1092 005e 01F0      		breq .L62
  62:lib/lufa/LUFA/Drivers/USB/Core/AVR8/Template/Template_Endpoint_RW.c **** 				return ENDPOINT_RWSTREAM_IncompleteTransfer;
 1093               		.loc 3 62 5 is_stmt 1 view .LVU270
  62:lib/lufa/LUFA/Drivers/USB/Core/AVR8/Template/Template_Endpoint_RW.c **** 				return ENDPOINT_RWSTREAM_IncompleteTransfer;
 1094               		.loc 3 62 21 is_stmt 0 view .LVU271
 1095 0060 F701      		movw r30,r14
 1096 0062 8081      		ld r24,Z
 1097 0064 9181      		ldd r25,Z+1
 1098 0066 A80E      		add r10,r24
 1099 0068 B91E      		adc r11,r25
 1100               	.LVL92:
  62:lib/lufa/LUFA/Drivers/USB/Core/AVR8/Template/Template_Endpoint_RW.c **** 				return ENDPOINT_RWSTREAM_IncompleteTransfer;
 1101               		.loc 3 62 21 view .LVU272
 1102 006a B182      		std Z+1,r11
 1103 006c A082      		st Z,r10
  63:lib/lufa/LUFA/Drivers/USB/Core/AVR8/Template/Template_Endpoint_RW.c **** 			}
 1104               		.loc 3 63 5 is_stmt 1 view .LVU273
  63:lib/lufa/LUFA/Drivers/USB/Core/AVR8/Template/Template_Endpoint_RW.c **** 			}
 1105               		.loc 3 63 12 is_stmt 0 view .LVU274
 1106 006e 85E0      		ldi r24,lo8(5)
 1107 0070 D82E      		mov r13,r24
 1108               	.LVL93:
 1109               	.L57:
 1110               		.loc 3 79 1 view .LVU275
 1111 0072 8D2D      		mov r24,r13
 1112               	/* epilogue start */
 1113 0074 DF91      		pop r29
 1114 0076 CF91      		pop r28
 1115 0078 1F91      		pop r17
 1116 007a 0F91      		pop r16
 1117               	.LVL94:
 1118               		.loc 3 79 1 view .LVU276
 1119 007c FF90      		pop r15
 1120 007e EF90      		pop r14
 1121               	.LVL95:
 1122               		.loc 3 79 1 view .LVU277
 1123 0080 DF90      		pop r13
 1124 0082 BF90      		pop r11
 1125 0084 AF90      		pop r10
 1126 0086 0895      		ret
 1127               	.LVL96:
 1128               	.L62:
  66:lib/lufa/LUFA/Drivers/USB/Core/AVR8/Template/Template_Endpoint_RW.c **** 			  return ErrorCode;
 1129               		.loc 3 66 4 is_stmt 1 view .LVU278
  66:lib/lufa/LUFA/Drivers/USB/Core/AVR8/Template/Template_Endpoint_RW.c **** 			  return ErrorCode;
 1130               		.loc 3 66 21 is_stmt 0 view .LVU279
 1131 0088 0E94 0000 		call Endpoint_WaitUntilReady
 1132               	.LVL97:
  66:lib/lufa/LUFA/Drivers/USB/Core/AVR8/Template/Template_Endpoint_RW.c **** 			  return ErrorCode;
 1133               		.loc 3 66 7 view .LVU280
 1134 008c 8823      		tst r24
 1135 008e 01F0      		breq .L60
  66:lib/lufa/LUFA/Drivers/USB/Core/AVR8/Template/Template_Endpoint_RW.c **** 			  return ErrorCode;
 1136               		.loc 3 66 21 view .LVU281
 1137 0090 D82E      		mov r13,r24
 1138 0092 00C0      		rjmp .L57
 1139               	.LVL98:
 1140               	.L61:
  71:lib/lufa/LUFA/Drivers/USB/Core/AVR8/Template/Template_Endpoint_RW.c **** 			TEMPLATE_BUFFER_MOVE(DataStream, 1);
 1141               		.loc 3 71 4 is_stmt 1 view .LVU282
 1142               	.LBB302:
 1143               	.LBI302:
 540:lib/lufa/LUFA/Drivers/USB/Core/AVR8/../AVR8/../AVR8/Endpoint_AVR8.h **** 			{
 1144               		.loc 2 540 26 view .LVU283
 1145               	.LBB303:
 542:lib/lufa/LUFA/Drivers/USB/Core/AVR8/../AVR8/../AVR8/Endpoint_AVR8.h **** 			}
 1146               		.loc 2 542 5 view .LVU284
 542:lib/lufa/LUFA/Drivers/USB/Core/AVR8/../AVR8/../AVR8/Endpoint_AVR8.h **** 			}
 1147               		.loc 2 542 12 is_stmt 0 view .LVU285
 1148 0094 8091 F100 		lds r24,241
 1149               	.LBE303:
 1150               	.LBE302:
  71:lib/lufa/LUFA/Drivers/USB/Core/AVR8/Template/Template_Endpoint_RW.c **** 			TEMPLATE_BUFFER_MOVE(DataStream, 1);
 1151               		.loc 3 71 4 view .LVU286
 1152 0098 8883      		st Y,r24
  72:lib/lufa/LUFA/Drivers/USB/Core/AVR8/Template/Template_Endpoint_RW.c **** 			Length--;
 1153               		.loc 3 72 4 is_stmt 1 view .LVU287
 1154 009a 2197      		sbiw r28,1
 1155               	.LVL99:
  73:lib/lufa/LUFA/Drivers/USB/Core/AVR8/Template/Template_Endpoint_RW.c **** 			BytesInTransfer++;
 1156               		.loc 3 73 4 view .LVU288
  73:lib/lufa/LUFA/Drivers/USB/Core/AVR8/Template/Template_Endpoint_RW.c **** 			BytesInTransfer++;
 1157               		.loc 3 73 10 is_stmt 0 view .LVU289
 1158 009c 0150      		subi r16,1
 1159 009e 1109      		sbc r17,__zero_reg__
 1160               	.LVL100:
  74:lib/lufa/LUFA/Drivers/USB/Core/AVR8/Template/Template_Endpoint_RW.c **** 		}
 1161               		.loc 3 74 4 is_stmt 1 view .LVU290
  74:lib/lufa/LUFA/Drivers/USB/Core/AVR8/Template/Template_Endpoint_RW.c **** 		}
 1162               		.loc 3 74 19 is_stmt 0 view .LVU291
 1163 00a0 FFEF      		ldi r31,-1
 1164 00a2 AF1A      		sub r10,r31
 1165 00a4 BF0A      		sbc r11,r31
 1166               	.LVL101:
  74:lib/lufa/LUFA/Drivers/USB/Core/AVR8/Template/Template_Endpoint_RW.c **** 		}
 1167               		.loc 3 74 19 view .LVU292
 1168 00a6 00C0      		rjmp .L60
 1169               		.cfi_endproc
 1170               	.LFE90:
 1172               		.section	.text.Endpoint_Write_PStream_LE,"ax",@progbits
 1173               	.global	Endpoint_Write_PStream_LE
 1175               	Endpoint_Write_PStream_LE:
 1176               	.LVL102:
 1177               	.LFB91:
  36:lib/lufa/LUFA/Drivers/USB/Core/AVR8/Template/Template_Endpoint_RW.c **** 	uint8_t* DataStream      = ((uint8_t*)Buffer + TEMPLATE_BUFFER_OFFSET(Length));
 1178               		.loc 3 36 1 is_stmt 1 view -0
 1179               		.cfi_startproc
  36:lib/lufa/LUFA/Drivers/USB/Core/AVR8/Template/Template_Endpoint_RW.c **** 	uint8_t* DataStream      = ((uint8_t*)Buffer + TEMPLATE_BUFFER_OFFSET(Length));
 1180               		.loc 3 36 1 is_stmt 0 view .LVU294
 1181 0000 AF92      		push r10
 1182               	.LCFI50:
 1183               		.cfi_def_cfa_offset 3
 1184               		.cfi_offset 10, -2
 1185 0002 BF92      		push r11
 1186               	.LCFI51:
 1187               		.cfi_def_cfa_offset 4
 1188               		.cfi_offset 11, -3
 1189 0004 DF92      		push r13
 1190               	.LCFI52:
 1191               		.cfi_def_cfa_offset 5
 1192               		.cfi_offset 13, -4
 1193 0006 EF92      		push r14
 1194               	.LCFI53:
 1195               		.cfi_def_cfa_offset 6
 1196               		.cfi_offset 14, -5
 1197 0008 FF92      		push r15
 1198               	.LCFI54:
 1199               		.cfi_def_cfa_offset 7
 1200               		.cfi_offset 15, -6
 1201 000a 0F93      		push r16
 1202               	.LCFI55:
 1203               		.cfi_def_cfa_offset 8
 1204               		.cfi_offset 16, -7
 1205 000c 1F93      		push r17
 1206               	.LCFI56:
 1207               		.cfi_def_cfa_offset 9
 1208               		.cfi_offset 17, -8
 1209 000e CF93      		push r28
 1210               	.LCFI57:
 1211               		.cfi_def_cfa_offset 10
 1212               		.cfi_offset 28, -9
 1213 0010 DF93      		push r29
 1214               	.LCFI58:
 1215               		.cfi_def_cfa_offset 11
 1216               		.cfi_offset 29, -10
 1217               	/* prologue: function */
 1218               	/* frame size = 0 */
 1219               	/* stack size = 9 */
 1220               	.L__stack_usage = 9
 1221 0012 8C01      		movw r16,r24
 1222 0014 EB01      		movw r28,r22
 1223 0016 7A01      		movw r14,r20
  37:lib/lufa/LUFA/Drivers/USB/Core/AVR8/Template/Template_Endpoint_RW.c **** 	uint16_t BytesInTransfer = 0;
 1224               		.loc 3 37 2 is_stmt 1 view .LVU295
 1225               	.LVL103:
  38:lib/lufa/LUFA/Drivers/USB/Core/AVR8/Template/Template_Endpoint_RW.c **** 	uint8_t  ErrorCode;
 1226               		.loc 3 38 2 view .LVU296
  39:lib/lufa/LUFA/Drivers/USB/Core/AVR8/Template/Template_Endpoint_RW.c **** 
 1227               		.loc 3 39 2 view .LVU297
  41:lib/lufa/LUFA/Drivers/USB/Core/AVR8/Template/Template_Endpoint_RW.c **** 	  return ErrorCode;
 1228               		.loc 3 41 2 view .LVU298
  41:lib/lufa/LUFA/Drivers/USB/Core/AVR8/Template/Template_Endpoint_RW.c **** 	  return ErrorCode;
 1229               		.loc 3 41 19 is_stmt 0 view .LVU299
 1230 0018 0E94 0000 		call Endpoint_WaitUntilReady
 1231               	.LVL104:
  41:lib/lufa/LUFA/Drivers/USB/Core/AVR8/Template/Template_Endpoint_RW.c **** 	  return ErrorCode;
 1232               		.loc 3 41 19 view .LVU300
 1233 001c D82E      		mov r13,r24
 1234               	.LVL105:
  41:lib/lufa/LUFA/Drivers/USB/Core/AVR8/Template/Template_Endpoint_RW.c **** 	  return ErrorCode;
 1235               		.loc 3 41 5 view .LVU301
 1236 001e 8111      		cpse r24,__zero_reg__
 1237 0020 00C0      		rjmp .L69
  44:lib/lufa/LUFA/Drivers/USB/Core/AVR8/Template/Template_Endpoint_RW.c **** 	{
 1238               		.loc 3 44 2 is_stmt 1 view .LVU302
  44:lib/lufa/LUFA/Drivers/USB/Core/AVR8/Template/Template_Endpoint_RW.c **** 	{
 1239               		.loc 3 44 5 is_stmt 0 view .LVU303
 1240 0022 E114      		cp r14,__zero_reg__
 1241 0024 F104      		cpc r15,__zero_reg__
 1242 0026 01F0      		breq .L71
  46:lib/lufa/LUFA/Drivers/USB/Core/AVR8/Template/Template_Endpoint_RW.c **** 		TEMPLATE_BUFFER_MOVE(DataStream, *BytesProcessed);
 1243               		.loc 3 46 3 is_stmt 1 view .LVU304
  46:lib/lufa/LUFA/Drivers/USB/Core/AVR8/Template/Template_Endpoint_RW.c **** 		TEMPLATE_BUFFER_MOVE(DataStream, *BytesProcessed);
 1244               		.loc 3 46 13 is_stmt 0 view .LVU305
 1245 0028 F701      		movw r30,r14
 1246 002a 8081      		ld r24,Z
 1247 002c 9181      		ldd r25,Z+1
  46:lib/lufa/LUFA/Drivers/USB/Core/AVR8/Template/Template_Endpoint_RW.c **** 		TEMPLATE_BUFFER_MOVE(DataStream, *BytesProcessed);
 1248               		.loc 3 46 10 view .LVU306
 1249 002e C81B      		sub r28,r24
 1250 0030 D90B      		sbc r29,r25
 1251               	.LVL106:
  47:lib/lufa/LUFA/Drivers/USB/Core/AVR8/Template/Template_Endpoint_RW.c **** 	}
 1252               		.loc 3 47 3 is_stmt 1 view .LVU307
 1253 0032 080F      		add r16,r24
 1254 0034 191F      		adc r17,r25
 1255               	.LVL107:
 1256               	.L71:
  36:lib/lufa/LUFA/Drivers/USB/Core/AVR8/Template/Template_Endpoint_RW.c **** 	uint8_t* DataStream      = ((uint8_t*)Buffer + TEMPLATE_BUFFER_OFFSET(Length));
 1257               		.loc 3 36 1 is_stmt 0 view .LVU308
 1258 0036 B12C      		mov r11,__zero_reg__
 1259 0038 A12C      		mov r10,__zero_reg__
 1260               	.LVL108:
 1261               	.L72:
  50:lib/lufa/LUFA/Drivers/USB/Core/AVR8/Template/Template_Endpoint_RW.c **** 	{
 1262               		.loc 3 50 8 is_stmt 1 view .LVU309
 1263 003a 2097      		sbiw r28,0
 1264 003c 01F0      		breq .L69
  52:lib/lufa/LUFA/Drivers/USB/Core/AVR8/Template/Template_Endpoint_RW.c **** 		{
 1265               		.loc 3 52 3 view .LVU310
 1266               	.LBB304:
 1267               	.LBI304:
 358:lib/lufa/LUFA/Drivers/USB/Core/AVR8/../AVR8/../AVR8/Endpoint_AVR8.h **** 			{
 1268               		.loc 2 358 23 view .LVU311
 1269               	.LBB305:
 360:lib/lufa/LUFA/Drivers/USB/Core/AVR8/../AVR8/../AVR8/Endpoint_AVR8.h **** 			}
 1270               		.loc 2 360 5 view .LVU312
 360:lib/lufa/LUFA/Drivers/USB/Core/AVR8/../AVR8/../AVR8/Endpoint_AVR8.h **** 			}
 1271               		.loc 2 360 14 is_stmt 0 view .LVU313
 1272 003e 8091 E800 		lds r24,232
 1273               	.LBE305:
 1274               	.LBE304:
  52:lib/lufa/LUFA/Drivers/USB/Core/AVR8/Template/Template_Endpoint_RW.c **** 		{
 1275               		.loc 3 52 6 view .LVU314
 1276 0042 85FD      		sbrc r24,5
 1277 0044 00C0      		rjmp .L73
  54:lib/lufa/LUFA/Drivers/USB/Core/AVR8/Template/Template_Endpoint_RW.c **** 
 1278               		.loc 3 54 4 is_stmt 1 view .LVU315
 1279               	.LBB306:
 1280               	.LBI306:
 453:lib/lufa/LUFA/Drivers/USB/Core/AVR8/../AVR8/../AVR8/Endpoint_AVR8.h **** 			{
 1281               		.loc 2 453 23 view .LVU316
 1282               	.LBB307:
 456:lib/lufa/LUFA/Drivers/USB/Core/AVR8/../AVR8/../AVR8/Endpoint_AVR8.h **** 				#else
 1283               		.loc 2 456 6 view .LVU317
 456:lib/lufa/LUFA/Drivers/USB/Core/AVR8/../AVR8/../AVR8/Endpoint_AVR8.h **** 				#else
 1284               		.loc 2 456 13 is_stmt 0 view .LVU318
 1285 0046 8091 E800 		lds r24,232
 1286 004a 8E77      		andi r24,lo8(126)
 1287 004c 8093 E800 		sts 232,r24
 1288               	.LBE307:
 1289               	.LBE306:
  60:lib/lufa/LUFA/Drivers/USB/Core/AVR8/Template/Template_Endpoint_RW.c **** 			{
 1290               		.loc 3 60 4 is_stmt 1 view .LVU319
  60:lib/lufa/LUFA/Drivers/USB/Core/AVR8/Template/Template_Endpoint_RW.c **** 			{
 1291               		.loc 3 60 7 is_stmt 0 view .LVU320
 1292 0050 E114      		cp r14,__zero_reg__
 1293 0052 F104      		cpc r15,__zero_reg__
 1294 0054 01F0      		breq .L74
  62:lib/lufa/LUFA/Drivers/USB/Core/AVR8/Template/Template_Endpoint_RW.c **** 				return ENDPOINT_RWSTREAM_IncompleteTransfer;
 1295               		.loc 3 62 5 is_stmt 1 view .LVU321
  62:lib/lufa/LUFA/Drivers/USB/Core/AVR8/Template/Template_Endpoint_RW.c **** 				return ENDPOINT_RWSTREAM_IncompleteTransfer;
 1296               		.loc 3 62 21 is_stmt 0 view .LVU322
 1297 0056 F701      		movw r30,r14
 1298 0058 8081      		ld r24,Z
 1299 005a 9181      		ldd r25,Z+1
 1300 005c A80E      		add r10,r24
 1301 005e B91E      		adc r11,r25
 1302               	.LVL109:
  62:lib/lufa/LUFA/Drivers/USB/Core/AVR8/Template/Template_Endpoint_RW.c **** 				return ENDPOINT_RWSTREAM_IncompleteTransfer;
 1303               		.loc 3 62 21 view .LVU323
 1304 0060 B182      		std Z+1,r11
 1305 0062 A082      		st Z,r10
  63:lib/lufa/LUFA/Drivers/USB/Core/AVR8/Template/Template_Endpoint_RW.c **** 			}
 1306               		.loc 3 63 5 is_stmt 1 view .LVU324
  63:lib/lufa/LUFA/Drivers/USB/Core/AVR8/Template/Template_Endpoint_RW.c **** 			}
 1307               		.loc 3 63 12 is_stmt 0 view .LVU325
 1308 0064 85E0      		ldi r24,lo8(5)
 1309 0066 D82E      		mov r13,r24
 1310               	.L69:
 1311               		.loc 3 79 1 view .LVU326
 1312 0068 8D2D      		mov r24,r13
 1313               	/* epilogue start */
 1314 006a DF91      		pop r29
 1315 006c CF91      		pop r28
 1316               	.LVL110:
 1317               		.loc 3 79 1 view .LVU327
 1318 006e 1F91      		pop r17
 1319 0070 0F91      		pop r16
 1320               	.LVL111:
 1321               		.loc 3 79 1 view .LVU328
 1322 0072 FF90      		pop r15
 1323 0074 EF90      		pop r14
 1324               	.LVL112:
 1325               		.loc 3 79 1 view .LVU329
 1326 0076 DF90      		pop r13
 1327 0078 BF90      		pop r11
 1328 007a AF90      		pop r10
 1329 007c 0895      		ret
 1330               	.LVL113:
 1331               	.L74:
  66:lib/lufa/LUFA/Drivers/USB/Core/AVR8/Template/Template_Endpoint_RW.c **** 			  return ErrorCode;
 1332               		.loc 3 66 4 is_stmt 1 view .LVU330
  66:lib/lufa/LUFA/Drivers/USB/Core/AVR8/Template/Template_Endpoint_RW.c **** 			  return ErrorCode;
 1333               		.loc 3 66 21 is_stmt 0 view .LVU331
 1334 007e 0E94 0000 		call Endpoint_WaitUntilReady
 1335               	.LVL114:
  66:lib/lufa/LUFA/Drivers/USB/Core/AVR8/Template/Template_Endpoint_RW.c **** 			  return ErrorCode;
 1336               		.loc 3 66 7 view .LVU332
 1337 0082 8823      		tst r24
 1338 0084 01F0      		breq .L72
  66:lib/lufa/LUFA/Drivers/USB/Core/AVR8/Template/Template_Endpoint_RW.c **** 			  return ErrorCode;
 1339               		.loc 3 66 21 view .LVU333
 1340 0086 D82E      		mov r13,r24
 1341 0088 00C0      		rjmp .L69
 1342               	.LVL115:
 1343               	.L73:
  71:lib/lufa/LUFA/Drivers/USB/Core/AVR8/Template/Template_Endpoint_RW.c **** 			TEMPLATE_BUFFER_MOVE(DataStream, 1);
 1344               		.loc 3 71 4 is_stmt 1 view .LVU334
 1345               	.LBB308:
  71:lib/lufa/LUFA/Drivers/USB/Core/AVR8/Template/Template_Endpoint_RW.c **** 			TEMPLATE_BUFFER_MOVE(DataStream, 1);
 1346               		.loc 3 71 4 view .LVU335
  71:lib/lufa/LUFA/Drivers/USB/Core/AVR8/Template/Template_Endpoint_RW.c **** 			TEMPLATE_BUFFER_MOVE(DataStream, 1);
 1347               		.loc 3 71 4 view .LVU336
  71:lib/lufa/LUFA/Drivers/USB/Core/AVR8/Template/Template_Endpoint_RW.c **** 			TEMPLATE_BUFFER_MOVE(DataStream, 1);
 1348               		.loc 3 71 4 view .LVU337
 1349 008a F801      		movw r30,r16
 1350               	/* #APP */
 1351               	 ;  71 "lib/lufa/LUFA/Drivers/USB/Core/AVR8/Template/Template_Endpoint_RW.c" 1
 1352 008c 8491      		lpm r24, Z
 1353               		
 1354               	 ;  0 "" 2
 1355               	.LVL116:
  71:lib/lufa/LUFA/Drivers/USB/Core/AVR8/Template/Template_Endpoint_RW.c **** 			TEMPLATE_BUFFER_MOVE(DataStream, 1);
 1356               		.loc 3 71 4 view .LVU338
  71:lib/lufa/LUFA/Drivers/USB/Core/AVR8/Template/Template_Endpoint_RW.c **** 			TEMPLATE_BUFFER_MOVE(DataStream, 1);
 1357               		.loc 3 71 4 is_stmt 0 view .LVU339
 1358               	/* #NOAPP */
 1359               	.LBE308:
 1360               	.LBB309:
 1361               	.LBI309:
 552:lib/lufa/LUFA/Drivers/USB/Core/AVR8/../AVR8/../AVR8/Endpoint_AVR8.h **** 			{
 1362               		.loc 2 552 23 is_stmt 1 view .LVU340
 1363               	.LBB310:
 554:lib/lufa/LUFA/Drivers/USB/Core/AVR8/../AVR8/../AVR8/Endpoint_AVR8.h **** 			}
 1364               		.loc 2 554 5 view .LVU341
 554:lib/lufa/LUFA/Drivers/USB/Core/AVR8/../AVR8/../AVR8/Endpoint_AVR8.h **** 			}
 1365               		.loc 2 554 12 is_stmt 0 view .LVU342
 1366 008e 8093 F100 		sts 241,r24
 1367               	.LVL117:
 554:lib/lufa/LUFA/Drivers/USB/Core/AVR8/../AVR8/../AVR8/Endpoint_AVR8.h **** 			}
 1368               		.loc 2 554 12 view .LVU343
 1369               	.LBE310:
 1370               	.LBE309:
  72:lib/lufa/LUFA/Drivers/USB/Core/AVR8/Template/Template_Endpoint_RW.c **** 			Length--;
 1371               		.loc 3 72 4 is_stmt 1 view .LVU344
 1372 0092 0F5F      		subi r16,-1
 1373 0094 1F4F      		sbci r17,-1
 1374               	.LVL118:
  73:lib/lufa/LUFA/Drivers/USB/Core/AVR8/Template/Template_Endpoint_RW.c **** 			BytesInTransfer++;
 1375               		.loc 3 73 4 view .LVU345
  73:lib/lufa/LUFA/Drivers/USB/Core/AVR8/Template/Template_Endpoint_RW.c **** 			BytesInTransfer++;
 1376               		.loc 3 73 10 is_stmt 0 view .LVU346
 1377 0096 2197      		sbiw r28,1
 1378               	.LVL119:
  74:lib/lufa/LUFA/Drivers/USB/Core/AVR8/Template/Template_Endpoint_RW.c **** 		}
 1379               		.loc 3 74 4 is_stmt 1 view .LVU347
  74:lib/lufa/LUFA/Drivers/USB/Core/AVR8/Template/Template_Endpoint_RW.c **** 		}
 1380               		.loc 3 74 19 is_stmt 0 view .LVU348
 1381 0098 FFEF      		ldi r31,-1
 1382 009a AF1A      		sub r10,r31
 1383 009c BF0A      		sbc r11,r31
 1384               	.LVL120:
  74:lib/lufa/LUFA/Drivers/USB/Core/AVR8/Template/Template_Endpoint_RW.c **** 		}
 1385               		.loc 3 74 19 view .LVU349
 1386 009e 00C0      		rjmp .L72
 1387               		.cfi_endproc
 1388               	.LFE91:
 1390               		.section	.text.Endpoint_Write_PStream_BE,"ax",@progbits
 1391               	.global	Endpoint_Write_PStream_BE
 1393               	Endpoint_Write_PStream_BE:
 1394               	.LVL121:
 1395               	.LFB92:
  36:lib/lufa/LUFA/Drivers/USB/Core/AVR8/Template/Template_Endpoint_RW.c **** 	uint8_t* DataStream      = ((uint8_t*)Buffer + TEMPLATE_BUFFER_OFFSET(Length));
 1396               		.loc 3 36 1 is_stmt 1 view -0
 1397               		.cfi_startproc
  36:lib/lufa/LUFA/Drivers/USB/Core/AVR8/Template/Template_Endpoint_RW.c **** 	uint8_t* DataStream      = ((uint8_t*)Buffer + TEMPLATE_BUFFER_OFFSET(Length));
 1398               		.loc 3 36 1 is_stmt 0 view .LVU351
 1399 0000 AF92      		push r10
 1400               	.LCFI59:
 1401               		.cfi_def_cfa_offset 3
 1402               		.cfi_offset 10, -2
 1403 0002 BF92      		push r11
 1404               	.LCFI60:
 1405               		.cfi_def_cfa_offset 4
 1406               		.cfi_offset 11, -3
 1407 0004 DF92      		push r13
 1408               	.LCFI61:
 1409               		.cfi_def_cfa_offset 5
 1410               		.cfi_offset 13, -4
 1411 0006 EF92      		push r14
 1412               	.LCFI62:
 1413               		.cfi_def_cfa_offset 6
 1414               		.cfi_offset 14, -5
 1415 0008 FF92      		push r15
 1416               	.LCFI63:
 1417               		.cfi_def_cfa_offset 7
 1418               		.cfi_offset 15, -6
 1419 000a 0F93      		push r16
 1420               	.LCFI64:
 1421               		.cfi_def_cfa_offset 8
 1422               		.cfi_offset 16, -7
 1423 000c 1F93      		push r17
 1424               	.LCFI65:
 1425               		.cfi_def_cfa_offset 9
 1426               		.cfi_offset 17, -8
 1427 000e CF93      		push r28
 1428               	.LCFI66:
 1429               		.cfi_def_cfa_offset 10
 1430               		.cfi_offset 28, -9
 1431 0010 DF93      		push r29
 1432               	.LCFI67:
 1433               		.cfi_def_cfa_offset 11
 1434               		.cfi_offset 29, -10
 1435               	/* prologue: function */
 1436               	/* frame size = 0 */
 1437               	/* stack size = 9 */
 1438               	.L__stack_usage = 9
 1439 0012 EC01      		movw r28,r24
 1440 0014 8B01      		movw r16,r22
 1441 0016 7A01      		movw r14,r20
  37:lib/lufa/LUFA/Drivers/USB/Core/AVR8/Template/Template_Endpoint_RW.c **** 	uint16_t BytesInTransfer = 0;
 1442               		.loc 3 37 2 is_stmt 1 view .LVU352
 1443               	.LVL122:
  38:lib/lufa/LUFA/Drivers/USB/Core/AVR8/Template/Template_Endpoint_RW.c **** 	uint8_t  ErrorCode;
 1444               		.loc 3 38 2 view .LVU353
  39:lib/lufa/LUFA/Drivers/USB/Core/AVR8/Template/Template_Endpoint_RW.c **** 
 1445               		.loc 3 39 2 view .LVU354
  41:lib/lufa/LUFA/Drivers/USB/Core/AVR8/Template/Template_Endpoint_RW.c **** 	  return ErrorCode;
 1446               		.loc 3 41 2 view .LVU355
  41:lib/lufa/LUFA/Drivers/USB/Core/AVR8/Template/Template_Endpoint_RW.c **** 	  return ErrorCode;
 1447               		.loc 3 41 19 is_stmt 0 view .LVU356
 1448 0018 0E94 0000 		call Endpoint_WaitUntilReady
 1449               	.LVL123:
  41:lib/lufa/LUFA/Drivers/USB/Core/AVR8/Template/Template_Endpoint_RW.c **** 	  return ErrorCode;
 1450               		.loc 3 41 19 view .LVU357
 1451 001c D82E      		mov r13,r24
 1452               	.LVL124:
  41:lib/lufa/LUFA/Drivers/USB/Core/AVR8/Template/Template_Endpoint_RW.c **** 	  return ErrorCode;
 1453               		.loc 3 41 5 view .LVU358
 1454 001e 8111      		cpse r24,__zero_reg__
 1455 0020 00C0      		rjmp .L81
  37:lib/lufa/LUFA/Drivers/USB/Core/AVR8/Template/Template_Endpoint_RW.c **** 	uint16_t BytesInTransfer = 0;
 1456               		.loc 3 37 47 view .LVU359
 1457 0022 C801      		movw r24,r16
 1458 0024 0197      		sbiw r24,1
 1459               	.LVL125:
  37:lib/lufa/LUFA/Drivers/USB/Core/AVR8/Template/Template_Endpoint_RW.c **** 	uint16_t BytesInTransfer = 0;
 1460               		.loc 3 37 11 view .LVU360
 1461 0026 C80F      		add r28,r24
 1462 0028 D91F      		adc r29,r25
 1463               	.LVL126:
  44:lib/lufa/LUFA/Drivers/USB/Core/AVR8/Template/Template_Endpoint_RW.c **** 	{
 1464               		.loc 3 44 2 is_stmt 1 view .LVU361
  44:lib/lufa/LUFA/Drivers/USB/Core/AVR8/Template/Template_Endpoint_RW.c **** 	{
 1465               		.loc 3 44 5 is_stmt 0 view .LVU362
 1466 002a E114      		cp r14,__zero_reg__
 1467 002c F104      		cpc r15,__zero_reg__
 1468 002e 01F0      		breq .L83
  46:lib/lufa/LUFA/Drivers/USB/Core/AVR8/Template/Template_Endpoint_RW.c **** 		TEMPLATE_BUFFER_MOVE(DataStream, *BytesProcessed);
 1469               		.loc 3 46 3 is_stmt 1 view .LVU363
  46:lib/lufa/LUFA/Drivers/USB/Core/AVR8/Template/Template_Endpoint_RW.c **** 		TEMPLATE_BUFFER_MOVE(DataStream, *BytesProcessed);
 1470               		.loc 3 46 13 is_stmt 0 view .LVU364
 1471 0030 F701      		movw r30,r14
 1472 0032 8081      		ld r24,Z
 1473 0034 9181      		ldd r25,Z+1
 1474               	.LVL127:
  46:lib/lufa/LUFA/Drivers/USB/Core/AVR8/Template/Template_Endpoint_RW.c **** 		TEMPLATE_BUFFER_MOVE(DataStream, *BytesProcessed);
 1475               		.loc 3 46 10 view .LVU365
 1476 0036 081B      		sub r16,r24
 1477 0038 190B      		sbc r17,r25
 1478               	.LVL128:
  47:lib/lufa/LUFA/Drivers/USB/Core/AVR8/Template/Template_Endpoint_RW.c **** 	}
 1479               		.loc 3 47 3 is_stmt 1 view .LVU366
 1480 003a C81B      		sub r28,r24
 1481 003c D90B      		sbc r29,r25
 1482               	.LVL129:
 1483               	.L83:
  36:lib/lufa/LUFA/Drivers/USB/Core/AVR8/Template/Template_Endpoint_RW.c **** 	uint8_t* DataStream      = ((uint8_t*)Buffer + TEMPLATE_BUFFER_OFFSET(Length));
 1484               		.loc 3 36 1 is_stmt 0 view .LVU367
 1485 003e B12C      		mov r11,__zero_reg__
 1486 0040 A12C      		mov r10,__zero_reg__
 1487               	.LVL130:
 1488               	.L84:
  50:lib/lufa/LUFA/Drivers/USB/Core/AVR8/Template/Template_Endpoint_RW.c **** 	{
 1489               		.loc 3 50 8 is_stmt 1 view .LVU368
 1490 0042 0115      		cp r16,__zero_reg__
 1491 0044 1105      		cpc r17,__zero_reg__
 1492 0046 01F0      		breq .L81
  52:lib/lufa/LUFA/Drivers/USB/Core/AVR8/Template/Template_Endpoint_RW.c **** 		{
 1493               		.loc 3 52 3 view .LVU369
 1494               	.LBB311:
 1495               	.LBI311:
 358:lib/lufa/LUFA/Drivers/USB/Core/AVR8/../AVR8/../AVR8/Endpoint_AVR8.h **** 			{
 1496               		.loc 2 358 23 view .LVU370
 1497               	.LBB312:
 360:lib/lufa/LUFA/Drivers/USB/Core/AVR8/../AVR8/../AVR8/Endpoint_AVR8.h **** 			}
 1498               		.loc 2 360 5 view .LVU371
 360:lib/lufa/LUFA/Drivers/USB/Core/AVR8/../AVR8/../AVR8/Endpoint_AVR8.h **** 			}
 1499               		.loc 2 360 14 is_stmt 0 view .LVU372
 1500 0048 8091 E800 		lds r24,232
 1501               	.LBE312:
 1502               	.LBE311:
  52:lib/lufa/LUFA/Drivers/USB/Core/AVR8/Template/Template_Endpoint_RW.c **** 		{
 1503               		.loc 3 52 6 view .LVU373
 1504 004c 85FD      		sbrc r24,5
 1505 004e 00C0      		rjmp .L85
  54:lib/lufa/LUFA/Drivers/USB/Core/AVR8/Template/Template_Endpoint_RW.c **** 
 1506               		.loc 3 54 4 is_stmt 1 view .LVU374
 1507               	.LBB313:
 1508               	.LBI313:
 453:lib/lufa/LUFA/Drivers/USB/Core/AVR8/../AVR8/../AVR8/Endpoint_AVR8.h **** 			{
 1509               		.loc 2 453 23 view .LVU375
 1510               	.LBB314:
 456:lib/lufa/LUFA/Drivers/USB/Core/AVR8/../AVR8/../AVR8/Endpoint_AVR8.h **** 				#else
 1511               		.loc 2 456 6 view .LVU376
 456:lib/lufa/LUFA/Drivers/USB/Core/AVR8/../AVR8/../AVR8/Endpoint_AVR8.h **** 				#else
 1512               		.loc 2 456 13 is_stmt 0 view .LVU377
 1513 0050 8091 E800 		lds r24,232
 1514 0054 8E77      		andi r24,lo8(126)
 1515 0056 8093 E800 		sts 232,r24
 1516               	.LBE314:
 1517               	.LBE313:
  60:lib/lufa/LUFA/Drivers/USB/Core/AVR8/Template/Template_Endpoint_RW.c **** 			{
 1518               		.loc 3 60 4 is_stmt 1 view .LVU378
  60:lib/lufa/LUFA/Drivers/USB/Core/AVR8/Template/Template_Endpoint_RW.c **** 			{
 1519               		.loc 3 60 7 is_stmt 0 view .LVU379
 1520 005a E114      		cp r14,__zero_reg__
 1521 005c F104      		cpc r15,__zero_reg__
 1522 005e 01F0      		breq .L86
  62:lib/lufa/LUFA/Drivers/USB/Core/AVR8/Template/Template_Endpoint_RW.c **** 				return ENDPOINT_RWSTREAM_IncompleteTransfer;
 1523               		.loc 3 62 5 is_stmt 1 view .LVU380
  62:lib/lufa/LUFA/Drivers/USB/Core/AVR8/Template/Template_Endpoint_RW.c **** 				return ENDPOINT_RWSTREAM_IncompleteTransfer;
 1524               		.loc 3 62 21 is_stmt 0 view .LVU381
 1525 0060 F701      		movw r30,r14
 1526 0062 8081      		ld r24,Z
 1527 0064 9181      		ldd r25,Z+1
 1528 0066 A80E      		add r10,r24
 1529 0068 B91E      		adc r11,r25
 1530               	.LVL131:
  62:lib/lufa/LUFA/Drivers/USB/Core/AVR8/Template/Template_Endpoint_RW.c **** 				return ENDPOINT_RWSTREAM_IncompleteTransfer;
 1531               		.loc 3 62 21 view .LVU382
 1532 006a B182      		std Z+1,r11
 1533 006c A082      		st Z,r10
  63:lib/lufa/LUFA/Drivers/USB/Core/AVR8/Template/Template_Endpoint_RW.c **** 			}
 1534               		.loc 3 63 5 is_stmt 1 view .LVU383
  63:lib/lufa/LUFA/Drivers/USB/Core/AVR8/Template/Template_Endpoint_RW.c **** 			}
 1535               		.loc 3 63 12 is_stmt 0 view .LVU384
 1536 006e 85E0      		ldi r24,lo8(5)
 1537 0070 D82E      		mov r13,r24
 1538               	.LVL132:
 1539               	.L81:
 1540               		.loc 3 79 1 view .LVU385
 1541 0072 8D2D      		mov r24,r13
 1542               	/* epilogue start */
 1543 0074 DF91      		pop r29
 1544 0076 CF91      		pop r28
 1545 0078 1F91      		pop r17
 1546 007a 0F91      		pop r16
 1547               	.LVL133:
 1548               		.loc 3 79 1 view .LVU386
 1549 007c FF90      		pop r15
 1550 007e EF90      		pop r14
 1551               	.LVL134:
 1552               		.loc 3 79 1 view .LVU387
 1553 0080 DF90      		pop r13
 1554 0082 BF90      		pop r11
 1555 0084 AF90      		pop r10
 1556 0086 0895      		ret
 1557               	.LVL135:
 1558               	.L86:
  66:lib/lufa/LUFA/Drivers/USB/Core/AVR8/Template/Template_Endpoint_RW.c **** 			  return ErrorCode;
 1559               		.loc 3 66 4 is_stmt 1 view .LVU388
  66:lib/lufa/LUFA/Drivers/USB/Core/AVR8/Template/Template_Endpoint_RW.c **** 			  return ErrorCode;
 1560               		.loc 3 66 21 is_stmt 0 view .LVU389
 1561 0088 0E94 0000 		call Endpoint_WaitUntilReady
 1562               	.LVL136:
  66:lib/lufa/LUFA/Drivers/USB/Core/AVR8/Template/Template_Endpoint_RW.c **** 			  return ErrorCode;
 1563               		.loc 3 66 7 view .LVU390
 1564 008c 8823      		tst r24
 1565 008e 01F0      		breq .L84
  66:lib/lufa/LUFA/Drivers/USB/Core/AVR8/Template/Template_Endpoint_RW.c **** 			  return ErrorCode;
 1566               		.loc 3 66 21 view .LVU391
 1567 0090 D82E      		mov r13,r24
 1568 0092 00C0      		rjmp .L81
 1569               	.LVL137:
 1570               	.L85:
  71:lib/lufa/LUFA/Drivers/USB/Core/AVR8/Template/Template_Endpoint_RW.c **** 			TEMPLATE_BUFFER_MOVE(DataStream, 1);
 1571               		.loc 3 71 4 is_stmt 1 view .LVU392
 1572               	.LBB315:
  71:lib/lufa/LUFA/Drivers/USB/Core/AVR8/Template/Template_Endpoint_RW.c **** 			TEMPLATE_BUFFER_MOVE(DataStream, 1);
 1573               		.loc 3 71 4 view .LVU393
  71:lib/lufa/LUFA/Drivers/USB/Core/AVR8/Template/Template_Endpoint_RW.c **** 			TEMPLATE_BUFFER_MOVE(DataStream, 1);
 1574               		.loc 3 71 4 view .LVU394
  71:lib/lufa/LUFA/Drivers/USB/Core/AVR8/Template/Template_Endpoint_RW.c **** 			TEMPLATE_BUFFER_MOVE(DataStream, 1);
 1575               		.loc 3 71 4 view .LVU395
 1576 0094 FE01      		movw r30,r28
 1577               	/* #APP */
 1578               	 ;  71 "lib/lufa/LUFA/Drivers/USB/Core/AVR8/Template/Template_Endpoint_RW.c" 1
 1579 0096 8491      		lpm r24, Z
 1580               		
 1581               	 ;  0 "" 2
 1582               	.LVL138:
  71:lib/lufa/LUFA/Drivers/USB/Core/AVR8/Template/Template_Endpoint_RW.c **** 			TEMPLATE_BUFFER_MOVE(DataStream, 1);
 1583               		.loc 3 71 4 view .LVU396
  71:lib/lufa/LUFA/Drivers/USB/Core/AVR8/Template/Template_Endpoint_RW.c **** 			TEMPLATE_BUFFER_MOVE(DataStream, 1);
 1584               		.loc 3 71 4 is_stmt 0 view .LVU397
 1585               	/* #NOAPP */
 1586               	.LBE315:
 1587               	.LBB316:
 1588               	.LBI316:
 552:lib/lufa/LUFA/Drivers/USB/Core/AVR8/../AVR8/../AVR8/Endpoint_AVR8.h **** 			{
 1589               		.loc 2 552 23 is_stmt 1 view .LVU398
 1590               	.LBB317:
 554:lib/lufa/LUFA/Drivers/USB/Core/AVR8/../AVR8/../AVR8/Endpoint_AVR8.h **** 			}
 1591               		.loc 2 554 5 view .LVU399
 554:lib/lufa/LUFA/Drivers/USB/Core/AVR8/../AVR8/../AVR8/Endpoint_AVR8.h **** 			}
 1592               		.loc 2 554 12 is_stmt 0 view .LVU400
 1593 0098 8093 F100 		sts 241,r24
 1594               	.LVL139:
 554:lib/lufa/LUFA/Drivers/USB/Core/AVR8/../AVR8/../AVR8/Endpoint_AVR8.h **** 			}
 1595               		.loc 2 554 12 view .LVU401
 1596               	.LBE317:
 1597               	.LBE316:
  72:lib/lufa/LUFA/Drivers/USB/Core/AVR8/Template/Template_Endpoint_RW.c **** 			Length--;
 1598               		.loc 3 72 4 is_stmt 1 view .LVU402
 1599 009c 2197      		sbiw r28,1
 1600               	.LVL140:
  73:lib/lufa/LUFA/Drivers/USB/Core/AVR8/Template/Template_Endpoint_RW.c **** 			BytesInTransfer++;
 1601               		.loc 3 73 4 view .LVU403
  73:lib/lufa/LUFA/Drivers/USB/Core/AVR8/Template/Template_Endpoint_RW.c **** 			BytesInTransfer++;
 1602               		.loc 3 73 10 is_stmt 0 view .LVU404
 1603 009e 0150      		subi r16,1
 1604 00a0 1109      		sbc r17,__zero_reg__
 1605               	.LVL141:
  74:lib/lufa/LUFA/Drivers/USB/Core/AVR8/Template/Template_Endpoint_RW.c **** 		}
 1606               		.loc 3 74 4 is_stmt 1 view .LVU405
  74:lib/lufa/LUFA/Drivers/USB/Core/AVR8/Template/Template_Endpoint_RW.c **** 		}
 1607               		.loc 3 74 19 is_stmt 0 view .LVU406
 1608 00a2 FFEF      		ldi r31,-1
 1609 00a4 AF1A      		sub r10,r31
 1610 00a6 BF0A      		sbc r11,r31
 1611               	.LVL142:
  74:lib/lufa/LUFA/Drivers/USB/Core/AVR8/Template/Template_Endpoint_RW.c **** 		}
 1612               		.loc 3 74 19 view .LVU407
 1613 00a8 00C0      		rjmp .L84
 1614               		.cfi_endproc
 1615               	.LFE92:
 1617               		.section	.text.Endpoint_Write_EStream_LE,"ax",@progbits
 1618               	.global	Endpoint_Write_EStream_LE
 1620               	Endpoint_Write_EStream_LE:
 1621               	.LVL143:
 1622               	.LFB93:
  36:lib/lufa/LUFA/Drivers/USB/Core/AVR8/Template/Template_Endpoint_RW.c **** 	uint8_t* DataStream      = ((uint8_t*)Buffer + TEMPLATE_BUFFER_OFFSET(Length));
 1623               		.loc 3 36 1 is_stmt 1 view -0
 1624               		.cfi_startproc
  36:lib/lufa/LUFA/Drivers/USB/Core/AVR8/Template/Template_Endpoint_RW.c **** 	uint8_t* DataStream      = ((uint8_t*)Buffer + TEMPLATE_BUFFER_OFFSET(Length));
 1625               		.loc 3 36 1 is_stmt 0 view .LVU409
 1626 0000 AF92      		push r10
 1627               	.LCFI68:
 1628               		.cfi_def_cfa_offset 3
 1629               		.cfi_offset 10, -2
 1630 0002 BF92      		push r11
 1631               	.LCFI69:
 1632               		.cfi_def_cfa_offset 4
 1633               		.cfi_offset 11, -3
 1634 0004 DF92      		push r13
 1635               	.LCFI70:
 1636               		.cfi_def_cfa_offset 5
 1637               		.cfi_offset 13, -4
 1638 0006 EF92      		push r14
 1639               	.LCFI71:
 1640               		.cfi_def_cfa_offset 6
 1641               		.cfi_offset 14, -5
 1642 0008 FF92      		push r15
 1643               	.LCFI72:
 1644               		.cfi_def_cfa_offset 7
 1645               		.cfi_offset 15, -6
 1646 000a 0F93      		push r16
 1647               	.LCFI73:
 1648               		.cfi_def_cfa_offset 8
 1649               		.cfi_offset 16, -7
 1650 000c 1F93      		push r17
 1651               	.LCFI74:
 1652               		.cfi_def_cfa_offset 9
 1653               		.cfi_offset 17, -8
 1654 000e CF93      		push r28
 1655               	.LCFI75:
 1656               		.cfi_def_cfa_offset 10
 1657               		.cfi_offset 28, -9
 1658 0010 DF93      		push r29
 1659               	.LCFI76:
 1660               		.cfi_def_cfa_offset 11
 1661               		.cfi_offset 29, -10
 1662               	/* prologue: function */
 1663               	/* frame size = 0 */
 1664               	/* stack size = 9 */
 1665               	.L__stack_usage = 9
 1666 0012 8C01      		movw r16,r24
 1667 0014 EB01      		movw r28,r22
 1668 0016 7A01      		movw r14,r20
  37:lib/lufa/LUFA/Drivers/USB/Core/AVR8/Template/Template_Endpoint_RW.c **** 	uint16_t BytesInTransfer = 0;
 1669               		.loc 3 37 2 is_stmt 1 view .LVU410
 1670               	.LVL144:
  38:lib/lufa/LUFA/Drivers/USB/Core/AVR8/Template/Template_Endpoint_RW.c **** 	uint8_t  ErrorCode;
 1671               		.loc 3 38 2 view .LVU411
  39:lib/lufa/LUFA/Drivers/USB/Core/AVR8/Template/Template_Endpoint_RW.c **** 
 1672               		.loc 3 39 2 view .LVU412
  41:lib/lufa/LUFA/Drivers/USB/Core/AVR8/Template/Template_Endpoint_RW.c **** 	  return ErrorCode;
 1673               		.loc 3 41 2 view .LVU413
  41:lib/lufa/LUFA/Drivers/USB/Core/AVR8/Template/Template_Endpoint_RW.c **** 	  return ErrorCode;
 1674               		.loc 3 41 19 is_stmt 0 view .LVU414
 1675 0018 0E94 0000 		call Endpoint_WaitUntilReady
 1676               	.LVL145:
  41:lib/lufa/LUFA/Drivers/USB/Core/AVR8/Template/Template_Endpoint_RW.c **** 	  return ErrorCode;
 1677               		.loc 3 41 19 view .LVU415
 1678 001c D82E      		mov r13,r24
 1679               	.LVL146:
  41:lib/lufa/LUFA/Drivers/USB/Core/AVR8/Template/Template_Endpoint_RW.c **** 	  return ErrorCode;
 1680               		.loc 3 41 5 view .LVU416
 1681 001e 8111      		cpse r24,__zero_reg__
 1682 0020 00C0      		rjmp .L93
  44:lib/lufa/LUFA/Drivers/USB/Core/AVR8/Template/Template_Endpoint_RW.c **** 	{
 1683               		.loc 3 44 2 is_stmt 1 view .LVU417
  44:lib/lufa/LUFA/Drivers/USB/Core/AVR8/Template/Template_Endpoint_RW.c **** 	{
 1684               		.loc 3 44 5 is_stmt 0 view .LVU418
 1685 0022 E114      		cp r14,__zero_reg__
 1686 0024 F104      		cpc r15,__zero_reg__
 1687 0026 01F0      		breq .L95
  46:lib/lufa/LUFA/Drivers/USB/Core/AVR8/Template/Template_Endpoint_RW.c **** 		TEMPLATE_BUFFER_MOVE(DataStream, *BytesProcessed);
 1688               		.loc 3 46 3 is_stmt 1 view .LVU419
  46:lib/lufa/LUFA/Drivers/USB/Core/AVR8/Template/Template_Endpoint_RW.c **** 		TEMPLATE_BUFFER_MOVE(DataStream, *BytesProcessed);
 1689               		.loc 3 46 13 is_stmt 0 view .LVU420
 1690 0028 F701      		movw r30,r14
 1691 002a 8081      		ld r24,Z
 1692 002c 9181      		ldd r25,Z+1
  46:lib/lufa/LUFA/Drivers/USB/Core/AVR8/Template/Template_Endpoint_RW.c **** 		TEMPLATE_BUFFER_MOVE(DataStream, *BytesProcessed);
 1693               		.loc 3 46 10 view .LVU421
 1694 002e C81B      		sub r28,r24
 1695 0030 D90B      		sbc r29,r25
 1696               	.LVL147:
  47:lib/lufa/LUFA/Drivers/USB/Core/AVR8/Template/Template_Endpoint_RW.c **** 	}
 1697               		.loc 3 47 3 is_stmt 1 view .LVU422
 1698 0032 080F      		add r16,r24
 1699 0034 191F      		adc r17,r25
 1700               	.LVL148:
 1701               	.L95:
  36:lib/lufa/LUFA/Drivers/USB/Core/AVR8/Template/Template_Endpoint_RW.c **** 	uint8_t* DataStream      = ((uint8_t*)Buffer + TEMPLATE_BUFFER_OFFSET(Length));
 1702               		.loc 3 36 1 is_stmt 0 view .LVU423
 1703 0036 B12C      		mov r11,__zero_reg__
 1704 0038 A12C      		mov r10,__zero_reg__
 1705               	.LVL149:
 1706               	.L96:
  50:lib/lufa/LUFA/Drivers/USB/Core/AVR8/Template/Template_Endpoint_RW.c **** 	{
 1707               		.loc 3 50 8 is_stmt 1 view .LVU424
 1708 003a 2097      		sbiw r28,0
 1709 003c 01F0      		breq .L93
  52:lib/lufa/LUFA/Drivers/USB/Core/AVR8/Template/Template_Endpoint_RW.c **** 		{
 1710               		.loc 3 52 3 view .LVU425
 1711               	.LBB318:
 1712               	.LBI318:
 358:lib/lufa/LUFA/Drivers/USB/Core/AVR8/../AVR8/../AVR8/Endpoint_AVR8.h **** 			{
 1713               		.loc 2 358 23 view .LVU426
 1714               	.LBB319:
 360:lib/lufa/LUFA/Drivers/USB/Core/AVR8/../AVR8/../AVR8/Endpoint_AVR8.h **** 			}
 1715               		.loc 2 360 5 view .LVU427
 360:lib/lufa/LUFA/Drivers/USB/Core/AVR8/../AVR8/../AVR8/Endpoint_AVR8.h **** 			}
 1716               		.loc 2 360 14 is_stmt 0 view .LVU428
 1717 003e 8091 E800 		lds r24,232
 1718               	.LBE319:
 1719               	.LBE318:
  52:lib/lufa/LUFA/Drivers/USB/Core/AVR8/Template/Template_Endpoint_RW.c **** 		{
 1720               		.loc 3 52 6 view .LVU429
 1721 0042 85FD      		sbrc r24,5
 1722 0044 00C0      		rjmp .L97
  54:lib/lufa/LUFA/Drivers/USB/Core/AVR8/Template/Template_Endpoint_RW.c **** 
 1723               		.loc 3 54 4 is_stmt 1 view .LVU430
 1724               	.LBB320:
 1725               	.LBI320:
 453:lib/lufa/LUFA/Drivers/USB/Core/AVR8/../AVR8/../AVR8/Endpoint_AVR8.h **** 			{
 1726               		.loc 2 453 23 view .LVU431
 1727               	.LBB321:
 456:lib/lufa/LUFA/Drivers/USB/Core/AVR8/../AVR8/../AVR8/Endpoint_AVR8.h **** 				#else
 1728               		.loc 2 456 6 view .LVU432
 456:lib/lufa/LUFA/Drivers/USB/Core/AVR8/../AVR8/../AVR8/Endpoint_AVR8.h **** 				#else
 1729               		.loc 2 456 13 is_stmt 0 view .LVU433
 1730 0046 8091 E800 		lds r24,232
 1731 004a 8E77      		andi r24,lo8(126)
 1732 004c 8093 E800 		sts 232,r24
 1733               	.LBE321:
 1734               	.LBE320:
  60:lib/lufa/LUFA/Drivers/USB/Core/AVR8/Template/Template_Endpoint_RW.c **** 			{
 1735               		.loc 3 60 4 is_stmt 1 view .LVU434
  60:lib/lufa/LUFA/Drivers/USB/Core/AVR8/Template/Template_Endpoint_RW.c **** 			{
 1736               		.loc 3 60 7 is_stmt 0 view .LVU435
 1737 0050 E114      		cp r14,__zero_reg__
 1738 0052 F104      		cpc r15,__zero_reg__
 1739 0054 01F0      		breq .L98
  62:lib/lufa/LUFA/Drivers/USB/Core/AVR8/Template/Template_Endpoint_RW.c **** 				return ENDPOINT_RWSTREAM_IncompleteTransfer;
 1740               		.loc 3 62 5 is_stmt 1 view .LVU436
  62:lib/lufa/LUFA/Drivers/USB/Core/AVR8/Template/Template_Endpoint_RW.c **** 				return ENDPOINT_RWSTREAM_IncompleteTransfer;
 1741               		.loc 3 62 21 is_stmt 0 view .LVU437
 1742 0056 F701      		movw r30,r14
 1743 0058 8081      		ld r24,Z
 1744 005a 9181      		ldd r25,Z+1
 1745 005c A80E      		add r10,r24
 1746 005e B91E      		adc r11,r25
 1747               	.LVL150:
  62:lib/lufa/LUFA/Drivers/USB/Core/AVR8/Template/Template_Endpoint_RW.c **** 				return ENDPOINT_RWSTREAM_IncompleteTransfer;
 1748               		.loc 3 62 21 view .LVU438
 1749 0060 B182      		std Z+1,r11
 1750 0062 A082      		st Z,r10
  63:lib/lufa/LUFA/Drivers/USB/Core/AVR8/Template/Template_Endpoint_RW.c **** 			}
 1751               		.loc 3 63 5 is_stmt 1 view .LVU439
  63:lib/lufa/LUFA/Drivers/USB/Core/AVR8/Template/Template_Endpoint_RW.c **** 			}
 1752               		.loc 3 63 12 is_stmt 0 view .LVU440
 1753 0064 85E0      		ldi r24,lo8(5)
 1754 0066 D82E      		mov r13,r24
 1755               	.L93:
 1756               		.loc 3 79 1 view .LVU441
 1757 0068 8D2D      		mov r24,r13
 1758               	/* epilogue start */
 1759 006a DF91      		pop r29
 1760 006c CF91      		pop r28
 1761               	.LVL151:
 1762               		.loc 3 79 1 view .LVU442
 1763 006e 1F91      		pop r17
 1764 0070 0F91      		pop r16
 1765               	.LVL152:
 1766               		.loc 3 79 1 view .LVU443
 1767 0072 FF90      		pop r15
 1768 0074 EF90      		pop r14
 1769               	.LVL153:
 1770               		.loc 3 79 1 view .LVU444
 1771 0076 DF90      		pop r13
 1772 0078 BF90      		pop r11
 1773 007a AF90      		pop r10
 1774 007c 0895      		ret
 1775               	.LVL154:
 1776               	.L98:
  66:lib/lufa/LUFA/Drivers/USB/Core/AVR8/Template/Template_Endpoint_RW.c **** 			  return ErrorCode;
 1777               		.loc 3 66 4 is_stmt 1 view .LVU445
  66:lib/lufa/LUFA/Drivers/USB/Core/AVR8/Template/Template_Endpoint_RW.c **** 			  return ErrorCode;
 1778               		.loc 3 66 21 is_stmt 0 view .LVU446
 1779 007e 0E94 0000 		call Endpoint_WaitUntilReady
 1780               	.LVL155:
  66:lib/lufa/LUFA/Drivers/USB/Core/AVR8/Template/Template_Endpoint_RW.c **** 			  return ErrorCode;
 1781               		.loc 3 66 7 view .LVU447
 1782 0082 8823      		tst r24
 1783 0084 01F0      		breq .L96
  66:lib/lufa/LUFA/Drivers/USB/Core/AVR8/Template/Template_Endpoint_RW.c **** 			  return ErrorCode;
 1784               		.loc 3 66 21 view .LVU448
 1785 0086 D82E      		mov r13,r24
 1786 0088 00C0      		rjmp .L93
 1787               	.LVL156:
 1788               	.L97:
  71:lib/lufa/LUFA/Drivers/USB/Core/AVR8/Template/Template_Endpoint_RW.c **** 			TEMPLATE_BUFFER_MOVE(DataStream, 1);
 1789               		.loc 3 71 4 is_stmt 1 view .LVU449
 1790 008a C801      		movw r24,r16
 1791 008c 0E94 0000 		call eeprom_read_byte
 1792               	.LVL157:
 1793               	.LBB322:
 1794               	.LBI322:
 552:lib/lufa/LUFA/Drivers/USB/Core/AVR8/../AVR8/../AVR8/Endpoint_AVR8.h **** 			{
 1795               		.loc 2 552 23 view .LVU450
 1796               	.LBB323:
 554:lib/lufa/LUFA/Drivers/USB/Core/AVR8/../AVR8/../AVR8/Endpoint_AVR8.h **** 			}
 1797               		.loc 2 554 5 view .LVU451
 554:lib/lufa/LUFA/Drivers/USB/Core/AVR8/../AVR8/../AVR8/Endpoint_AVR8.h **** 			}
 1798               		.loc 2 554 12 is_stmt 0 view .LVU452
 1799 0090 8093 F100 		sts 241,r24
 1800               	.LVL158:
 554:lib/lufa/LUFA/Drivers/USB/Core/AVR8/../AVR8/../AVR8/Endpoint_AVR8.h **** 			}
 1801               		.loc 2 554 12 view .LVU453
 1802               	.LBE323:
 1803               	.LBE322:
  72:lib/lufa/LUFA/Drivers/USB/Core/AVR8/Template/Template_Endpoint_RW.c **** 			Length--;
 1804               		.loc 3 72 4 is_stmt 1 view .LVU454
 1805 0094 0F5F      		subi r16,-1
 1806 0096 1F4F      		sbci r17,-1
 1807               	.LVL159:
  73:lib/lufa/LUFA/Drivers/USB/Core/AVR8/Template/Template_Endpoint_RW.c **** 			BytesInTransfer++;
 1808               		.loc 3 73 4 view .LVU455
  73:lib/lufa/LUFA/Drivers/USB/Core/AVR8/Template/Template_Endpoint_RW.c **** 			BytesInTransfer++;
 1809               		.loc 3 73 10 is_stmt 0 view .LVU456
 1810 0098 2197      		sbiw r28,1
 1811               	.LVL160:
  74:lib/lufa/LUFA/Drivers/USB/Core/AVR8/Template/Template_Endpoint_RW.c **** 		}
 1812               		.loc 3 74 4 is_stmt 1 view .LVU457
  74:lib/lufa/LUFA/Drivers/USB/Core/AVR8/Template/Template_Endpoint_RW.c **** 		}
 1813               		.loc 3 74 19 is_stmt 0 view .LVU458
 1814 009a FFEF      		ldi r31,-1
 1815 009c AF1A      		sub r10,r31
 1816 009e BF0A      		sbc r11,r31
 1817               	.LVL161:
  74:lib/lufa/LUFA/Drivers/USB/Core/AVR8/Template/Template_Endpoint_RW.c **** 		}
 1818               		.loc 3 74 19 view .LVU459
 1819 00a0 00C0      		rjmp .L96
 1820               		.cfi_endproc
 1821               	.LFE93:
 1823               		.section	.text.Endpoint_Write_EStream_BE,"ax",@progbits
 1824               	.global	Endpoint_Write_EStream_BE
 1826               	Endpoint_Write_EStream_BE:
 1827               	.LVL162:
 1828               	.LFB94:
  36:lib/lufa/LUFA/Drivers/USB/Core/AVR8/Template/Template_Endpoint_RW.c **** 	uint8_t* DataStream      = ((uint8_t*)Buffer + TEMPLATE_BUFFER_OFFSET(Length));
 1829               		.loc 3 36 1 is_stmt 1 view -0
 1830               		.cfi_startproc
  36:lib/lufa/LUFA/Drivers/USB/Core/AVR8/Template/Template_Endpoint_RW.c **** 	uint8_t* DataStream      = ((uint8_t*)Buffer + TEMPLATE_BUFFER_OFFSET(Length));
 1831               		.loc 3 36 1 is_stmt 0 view .LVU461
 1832 0000 AF92      		push r10
 1833               	.LCFI77:
 1834               		.cfi_def_cfa_offset 3
 1835               		.cfi_offset 10, -2
 1836 0002 BF92      		push r11
 1837               	.LCFI78:
 1838               		.cfi_def_cfa_offset 4
 1839               		.cfi_offset 11, -3
 1840 0004 DF92      		push r13
 1841               	.LCFI79:
 1842               		.cfi_def_cfa_offset 5
 1843               		.cfi_offset 13, -4
 1844 0006 EF92      		push r14
 1845               	.LCFI80:
 1846               		.cfi_def_cfa_offset 6
 1847               		.cfi_offset 14, -5
 1848 0008 FF92      		push r15
 1849               	.LCFI81:
 1850               		.cfi_def_cfa_offset 7
 1851               		.cfi_offset 15, -6
 1852 000a 0F93      		push r16
 1853               	.LCFI82:
 1854               		.cfi_def_cfa_offset 8
 1855               		.cfi_offset 16, -7
 1856 000c 1F93      		push r17
 1857               	.LCFI83:
 1858               		.cfi_def_cfa_offset 9
 1859               		.cfi_offset 17, -8
 1860 000e CF93      		push r28
 1861               	.LCFI84:
 1862               		.cfi_def_cfa_offset 10
 1863               		.cfi_offset 28, -9
 1864 0010 DF93      		push r29
 1865               	.LCFI85:
 1866               		.cfi_def_cfa_offset 11
 1867               		.cfi_offset 29, -10
 1868               	/* prologue: function */
 1869               	/* frame size = 0 */
 1870               	/* stack size = 9 */
 1871               	.L__stack_usage = 9
 1872 0012 EC01      		movw r28,r24
 1873 0014 8B01      		movw r16,r22
 1874 0016 7A01      		movw r14,r20
  37:lib/lufa/LUFA/Drivers/USB/Core/AVR8/Template/Template_Endpoint_RW.c **** 	uint16_t BytesInTransfer = 0;
 1875               		.loc 3 37 2 is_stmt 1 view .LVU462
 1876               	.LVL163:
  38:lib/lufa/LUFA/Drivers/USB/Core/AVR8/Template/Template_Endpoint_RW.c **** 	uint8_t  ErrorCode;
 1877               		.loc 3 38 2 view .LVU463
  39:lib/lufa/LUFA/Drivers/USB/Core/AVR8/Template/Template_Endpoint_RW.c **** 
 1878               		.loc 3 39 2 view .LVU464
  41:lib/lufa/LUFA/Drivers/USB/Core/AVR8/Template/Template_Endpoint_RW.c **** 	  return ErrorCode;
 1879               		.loc 3 41 2 view .LVU465
  41:lib/lufa/LUFA/Drivers/USB/Core/AVR8/Template/Template_Endpoint_RW.c **** 	  return ErrorCode;
 1880               		.loc 3 41 19 is_stmt 0 view .LVU466
 1881 0018 0E94 0000 		call Endpoint_WaitUntilReady
 1882               	.LVL164:
  41:lib/lufa/LUFA/Drivers/USB/Core/AVR8/Template/Template_Endpoint_RW.c **** 	  return ErrorCode;
 1883               		.loc 3 41 19 view .LVU467
 1884 001c D82E      		mov r13,r24
 1885               	.LVL165:
  41:lib/lufa/LUFA/Drivers/USB/Core/AVR8/Template/Template_Endpoint_RW.c **** 	  return ErrorCode;
 1886               		.loc 3 41 5 view .LVU468
 1887 001e 8111      		cpse r24,__zero_reg__
 1888 0020 00C0      		rjmp .L105
  37:lib/lufa/LUFA/Drivers/USB/Core/AVR8/Template/Template_Endpoint_RW.c **** 	uint16_t BytesInTransfer = 0;
 1889               		.loc 3 37 47 view .LVU469
 1890 0022 C801      		movw r24,r16
 1891 0024 0197      		sbiw r24,1
 1892               	.LVL166:
  37:lib/lufa/LUFA/Drivers/USB/Core/AVR8/Template/Template_Endpoint_RW.c **** 	uint16_t BytesInTransfer = 0;
 1893               		.loc 3 37 11 view .LVU470
 1894 0026 C80F      		add r28,r24
 1895 0028 D91F      		adc r29,r25
 1896               	.LVL167:
  44:lib/lufa/LUFA/Drivers/USB/Core/AVR8/Template/Template_Endpoint_RW.c **** 	{
 1897               		.loc 3 44 2 is_stmt 1 view .LVU471
  44:lib/lufa/LUFA/Drivers/USB/Core/AVR8/Template/Template_Endpoint_RW.c **** 	{
 1898               		.loc 3 44 5 is_stmt 0 view .LVU472
 1899 002a E114      		cp r14,__zero_reg__
 1900 002c F104      		cpc r15,__zero_reg__
 1901 002e 01F0      		breq .L107
  46:lib/lufa/LUFA/Drivers/USB/Core/AVR8/Template/Template_Endpoint_RW.c **** 		TEMPLATE_BUFFER_MOVE(DataStream, *BytesProcessed);
 1902               		.loc 3 46 3 is_stmt 1 view .LVU473
  46:lib/lufa/LUFA/Drivers/USB/Core/AVR8/Template/Template_Endpoint_RW.c **** 		TEMPLATE_BUFFER_MOVE(DataStream, *BytesProcessed);
 1903               		.loc 3 46 13 is_stmt 0 view .LVU474
 1904 0030 F701      		movw r30,r14
 1905 0032 8081      		ld r24,Z
 1906 0034 9181      		ldd r25,Z+1
 1907               	.LVL168:
  46:lib/lufa/LUFA/Drivers/USB/Core/AVR8/Template/Template_Endpoint_RW.c **** 		TEMPLATE_BUFFER_MOVE(DataStream, *BytesProcessed);
 1908               		.loc 3 46 10 view .LVU475
 1909 0036 081B      		sub r16,r24
 1910 0038 190B      		sbc r17,r25
 1911               	.LVL169:
  47:lib/lufa/LUFA/Drivers/USB/Core/AVR8/Template/Template_Endpoint_RW.c **** 	}
 1912               		.loc 3 47 3 is_stmt 1 view .LVU476
 1913 003a C81B      		sub r28,r24
 1914 003c D90B      		sbc r29,r25
 1915               	.LVL170:
 1916               	.L107:
  36:lib/lufa/LUFA/Drivers/USB/Core/AVR8/Template/Template_Endpoint_RW.c **** 	uint8_t* DataStream      = ((uint8_t*)Buffer + TEMPLATE_BUFFER_OFFSET(Length));
 1917               		.loc 3 36 1 is_stmt 0 view .LVU477
 1918 003e B12C      		mov r11,__zero_reg__
 1919 0040 A12C      		mov r10,__zero_reg__
 1920               	.LVL171:
 1921               	.L108:
  50:lib/lufa/LUFA/Drivers/USB/Core/AVR8/Template/Template_Endpoint_RW.c **** 	{
 1922               		.loc 3 50 8 is_stmt 1 view .LVU478
 1923 0042 0115      		cp r16,__zero_reg__
 1924 0044 1105      		cpc r17,__zero_reg__
 1925 0046 01F0      		breq .L105
  52:lib/lufa/LUFA/Drivers/USB/Core/AVR8/Template/Template_Endpoint_RW.c **** 		{
 1926               		.loc 3 52 3 view .LVU479
 1927               	.LBB324:
 1928               	.LBI324:
 358:lib/lufa/LUFA/Drivers/USB/Core/AVR8/../AVR8/../AVR8/Endpoint_AVR8.h **** 			{
 1929               		.loc 2 358 23 view .LVU480
 1930               	.LBB325:
 360:lib/lufa/LUFA/Drivers/USB/Core/AVR8/../AVR8/../AVR8/Endpoint_AVR8.h **** 			}
 1931               		.loc 2 360 5 view .LVU481
 360:lib/lufa/LUFA/Drivers/USB/Core/AVR8/../AVR8/../AVR8/Endpoint_AVR8.h **** 			}
 1932               		.loc 2 360 14 is_stmt 0 view .LVU482
 1933 0048 8091 E800 		lds r24,232
 1934               	.LBE325:
 1935               	.LBE324:
  52:lib/lufa/LUFA/Drivers/USB/Core/AVR8/Template/Template_Endpoint_RW.c **** 		{
 1936               		.loc 3 52 6 view .LVU483
 1937 004c 85FD      		sbrc r24,5
 1938 004e 00C0      		rjmp .L109
  54:lib/lufa/LUFA/Drivers/USB/Core/AVR8/Template/Template_Endpoint_RW.c **** 
 1939               		.loc 3 54 4 is_stmt 1 view .LVU484
 1940               	.LBB326:
 1941               	.LBI326:
 453:lib/lufa/LUFA/Drivers/USB/Core/AVR8/../AVR8/../AVR8/Endpoint_AVR8.h **** 			{
 1942               		.loc 2 453 23 view .LVU485
 1943               	.LBB327:
 456:lib/lufa/LUFA/Drivers/USB/Core/AVR8/../AVR8/../AVR8/Endpoint_AVR8.h **** 				#else
 1944               		.loc 2 456 6 view .LVU486
 456:lib/lufa/LUFA/Drivers/USB/Core/AVR8/../AVR8/../AVR8/Endpoint_AVR8.h **** 				#else
 1945               		.loc 2 456 13 is_stmt 0 view .LVU487
 1946 0050 8091 E800 		lds r24,232
 1947 0054 8E77      		andi r24,lo8(126)
 1948 0056 8093 E800 		sts 232,r24
 1949               	.LBE327:
 1950               	.LBE326:
  60:lib/lufa/LUFA/Drivers/USB/Core/AVR8/Template/Template_Endpoint_RW.c **** 			{
 1951               		.loc 3 60 4 is_stmt 1 view .LVU488
  60:lib/lufa/LUFA/Drivers/USB/Core/AVR8/Template/Template_Endpoint_RW.c **** 			{
 1952               		.loc 3 60 7 is_stmt 0 view .LVU489
 1953 005a E114      		cp r14,__zero_reg__
 1954 005c F104      		cpc r15,__zero_reg__
 1955 005e 01F0      		breq .L110
  62:lib/lufa/LUFA/Drivers/USB/Core/AVR8/Template/Template_Endpoint_RW.c **** 				return ENDPOINT_RWSTREAM_IncompleteTransfer;
 1956               		.loc 3 62 5 is_stmt 1 view .LVU490
  62:lib/lufa/LUFA/Drivers/USB/Core/AVR8/Template/Template_Endpoint_RW.c **** 				return ENDPOINT_RWSTREAM_IncompleteTransfer;
 1957               		.loc 3 62 21 is_stmt 0 view .LVU491
 1958 0060 F701      		movw r30,r14
 1959 0062 8081      		ld r24,Z
 1960 0064 9181      		ldd r25,Z+1
 1961 0066 A80E      		add r10,r24
 1962 0068 B91E      		adc r11,r25
 1963               	.LVL172:
  62:lib/lufa/LUFA/Drivers/USB/Core/AVR8/Template/Template_Endpoint_RW.c **** 				return ENDPOINT_RWSTREAM_IncompleteTransfer;
 1964               		.loc 3 62 21 view .LVU492
 1965 006a B182      		std Z+1,r11
 1966 006c A082      		st Z,r10
  63:lib/lufa/LUFA/Drivers/USB/Core/AVR8/Template/Template_Endpoint_RW.c **** 			}
 1967               		.loc 3 63 5 is_stmt 1 view .LVU493
  63:lib/lufa/LUFA/Drivers/USB/Core/AVR8/Template/Template_Endpoint_RW.c **** 			}
 1968               		.loc 3 63 12 is_stmt 0 view .LVU494
 1969 006e 85E0      		ldi r24,lo8(5)
 1970 0070 D82E      		mov r13,r24
 1971               	.LVL173:
 1972               	.L105:
 1973               		.loc 3 79 1 view .LVU495
 1974 0072 8D2D      		mov r24,r13
 1975               	/* epilogue start */
 1976 0074 DF91      		pop r29
 1977 0076 CF91      		pop r28
 1978 0078 1F91      		pop r17
 1979 007a 0F91      		pop r16
 1980               	.LVL174:
 1981               		.loc 3 79 1 view .LVU496
 1982 007c FF90      		pop r15
 1983 007e EF90      		pop r14
 1984               	.LVL175:
 1985               		.loc 3 79 1 view .LVU497
 1986 0080 DF90      		pop r13
 1987 0082 BF90      		pop r11
 1988 0084 AF90      		pop r10
 1989 0086 0895      		ret
 1990               	.LVL176:
 1991               	.L110:
  66:lib/lufa/LUFA/Drivers/USB/Core/AVR8/Template/Template_Endpoint_RW.c **** 			  return ErrorCode;
 1992               		.loc 3 66 4 is_stmt 1 view .LVU498
  66:lib/lufa/LUFA/Drivers/USB/Core/AVR8/Template/Template_Endpoint_RW.c **** 			  return ErrorCode;
 1993               		.loc 3 66 21 is_stmt 0 view .LVU499
 1994 0088 0E94 0000 		call Endpoint_WaitUntilReady
 1995               	.LVL177:
  66:lib/lufa/LUFA/Drivers/USB/Core/AVR8/Template/Template_Endpoint_RW.c **** 			  return ErrorCode;
 1996               		.loc 3 66 7 view .LVU500
 1997 008c 8823      		tst r24
 1998 008e 01F0      		breq .L108
  66:lib/lufa/LUFA/Drivers/USB/Core/AVR8/Template/Template_Endpoint_RW.c **** 			  return ErrorCode;
 1999               		.loc 3 66 21 view .LVU501
 2000 0090 D82E      		mov r13,r24
 2001 0092 00C0      		rjmp .L105
 2002               	.LVL178:
 2003               	.L109:
  71:lib/lufa/LUFA/Drivers/USB/Core/AVR8/Template/Template_Endpoint_RW.c **** 			TEMPLATE_BUFFER_MOVE(DataStream, 1);
 2004               		.loc 3 71 4 is_stmt 1 view .LVU502
 2005 0094 CE01      		movw r24,r28
 2006 0096 0E94 0000 		call eeprom_read_byte
 2007               	.LVL179:
 2008               	.LBB328:
 2009               	.LBI328:
 552:lib/lufa/LUFA/Drivers/USB/Core/AVR8/../AVR8/../AVR8/Endpoint_AVR8.h **** 			{
 2010               		.loc 2 552 23 view .LVU503
 2011               	.LBB329:
 554:lib/lufa/LUFA/Drivers/USB/Core/AVR8/../AVR8/../AVR8/Endpoint_AVR8.h **** 			}
 2012               		.loc 2 554 5 view .LVU504
 554:lib/lufa/LUFA/Drivers/USB/Core/AVR8/../AVR8/../AVR8/Endpoint_AVR8.h **** 			}
 2013               		.loc 2 554 12 is_stmt 0 view .LVU505
 2014 009a 8093 F100 		sts 241,r24
 2015               	.LVL180:
 554:lib/lufa/LUFA/Drivers/USB/Core/AVR8/../AVR8/../AVR8/Endpoint_AVR8.h **** 			}
 2016               		.loc 2 554 12 view .LVU506
 2017               	.LBE329:
 2018               	.LBE328:
  72:lib/lufa/LUFA/Drivers/USB/Core/AVR8/Template/Template_Endpoint_RW.c **** 			Length--;
 2019               		.loc 3 72 4 is_stmt 1 view .LVU507
 2020 009e 2197      		sbiw r28,1
 2021               	.LVL181:
  73:lib/lufa/LUFA/Drivers/USB/Core/AVR8/Template/Template_Endpoint_RW.c **** 			BytesInTransfer++;
 2022               		.loc 3 73 4 view .LVU508
  73:lib/lufa/LUFA/Drivers/USB/Core/AVR8/Template/Template_Endpoint_RW.c **** 			BytesInTransfer++;
 2023               		.loc 3 73 10 is_stmt 0 view .LVU509
 2024 00a0 0150      		subi r16,1
 2025 00a2 1109      		sbc r17,__zero_reg__
 2026               	.LVL182:
  74:lib/lufa/LUFA/Drivers/USB/Core/AVR8/Template/Template_Endpoint_RW.c **** 		}
 2027               		.loc 3 74 4 is_stmt 1 view .LVU510
  74:lib/lufa/LUFA/Drivers/USB/Core/AVR8/Template/Template_Endpoint_RW.c **** 		}
 2028               		.loc 3 74 19 is_stmt 0 view .LVU511
 2029 00a4 FFEF      		ldi r31,-1
 2030 00a6 AF1A      		sub r10,r31
 2031 00a8 BF0A      		sbc r11,r31
 2032               	.LVL183:
  74:lib/lufa/LUFA/Drivers/USB/Core/AVR8/Template/Template_Endpoint_RW.c **** 		}
 2033               		.loc 3 74 19 view .LVU512
 2034 00aa 00C0      		rjmp .L108
 2035               		.cfi_endproc
 2036               	.LFE94:
 2038               		.section	.text.Endpoint_Read_EStream_LE,"ax",@progbits
 2039               	.global	Endpoint_Read_EStream_LE
 2041               	Endpoint_Read_EStream_LE:
 2042               	.LVL184:
 2043               	.LFB95:
  36:lib/lufa/LUFA/Drivers/USB/Core/AVR8/Template/Template_Endpoint_RW.c **** 	uint8_t* DataStream      = ((uint8_t*)Buffer + TEMPLATE_BUFFER_OFFSET(Length));
 2044               		.loc 3 36 1 is_stmt 1 view -0
 2045               		.cfi_startproc
  36:lib/lufa/LUFA/Drivers/USB/Core/AVR8/Template/Template_Endpoint_RW.c **** 	uint8_t* DataStream      = ((uint8_t*)Buffer + TEMPLATE_BUFFER_OFFSET(Length));
 2046               		.loc 3 36 1 is_stmt 0 view .LVU514
 2047 0000 AF92      		push r10
 2048               	.LCFI86:
 2049               		.cfi_def_cfa_offset 3
 2050               		.cfi_offset 10, -2
 2051 0002 BF92      		push r11
 2052               	.LCFI87:
 2053               		.cfi_def_cfa_offset 4
 2054               		.cfi_offset 11, -3
 2055 0004 DF92      		push r13
 2056               	.LCFI88:
 2057               		.cfi_def_cfa_offset 5
 2058               		.cfi_offset 13, -4
 2059 0006 EF92      		push r14
 2060               	.LCFI89:
 2061               		.cfi_def_cfa_offset 6
 2062               		.cfi_offset 14, -5
 2063 0008 FF92      		push r15
 2064               	.LCFI90:
 2065               		.cfi_def_cfa_offset 7
 2066               		.cfi_offset 15, -6
 2067 000a 0F93      		push r16
 2068               	.LCFI91:
 2069               		.cfi_def_cfa_offset 8
 2070               		.cfi_offset 16, -7
 2071 000c 1F93      		push r17
 2072               	.LCFI92:
 2073               		.cfi_def_cfa_offset 9
 2074               		.cfi_offset 17, -8
 2075 000e CF93      		push r28
 2076               	.LCFI93:
 2077               		.cfi_def_cfa_offset 10
 2078               		.cfi_offset 28, -9
 2079 0010 DF93      		push r29
 2080               	.LCFI94:
 2081               		.cfi_def_cfa_offset 11
 2082               		.cfi_offset 29, -10
 2083               	/* prologue: function */
 2084               	/* frame size = 0 */
 2085               	/* stack size = 9 */
 2086               	.L__stack_usage = 9
 2087 0012 8C01      		movw r16,r24
 2088 0014 EB01      		movw r28,r22
 2089 0016 7A01      		movw r14,r20
  37:lib/lufa/LUFA/Drivers/USB/Core/AVR8/Template/Template_Endpoint_RW.c **** 	uint16_t BytesInTransfer = 0;
 2090               		.loc 3 37 2 is_stmt 1 view .LVU515
 2091               	.LVL185:
  38:lib/lufa/LUFA/Drivers/USB/Core/AVR8/Template/Template_Endpoint_RW.c **** 	uint8_t  ErrorCode;
 2092               		.loc 3 38 2 view .LVU516
  39:lib/lufa/LUFA/Drivers/USB/Core/AVR8/Template/Template_Endpoint_RW.c **** 
 2093               		.loc 3 39 2 view .LVU517
  41:lib/lufa/LUFA/Drivers/USB/Core/AVR8/Template/Template_Endpoint_RW.c **** 	  return ErrorCode;
 2094               		.loc 3 41 2 view .LVU518
  41:lib/lufa/LUFA/Drivers/USB/Core/AVR8/Template/Template_Endpoint_RW.c **** 	  return ErrorCode;
 2095               		.loc 3 41 19 is_stmt 0 view .LVU519
 2096 0018 0E94 0000 		call Endpoint_WaitUntilReady
 2097               	.LVL186:
  41:lib/lufa/LUFA/Drivers/USB/Core/AVR8/Template/Template_Endpoint_RW.c **** 	  return ErrorCode;
 2098               		.loc 3 41 19 view .LVU520
 2099 001c D82E      		mov r13,r24
 2100               	.LVL187:
  41:lib/lufa/LUFA/Drivers/USB/Core/AVR8/Template/Template_Endpoint_RW.c **** 	  return ErrorCode;
 2101               		.loc 3 41 5 view .LVU521
 2102 001e 8111      		cpse r24,__zero_reg__
 2103 0020 00C0      		rjmp .L117
  44:lib/lufa/LUFA/Drivers/USB/Core/AVR8/Template/Template_Endpoint_RW.c **** 	{
 2104               		.loc 3 44 2 is_stmt 1 view .LVU522
  44:lib/lufa/LUFA/Drivers/USB/Core/AVR8/Template/Template_Endpoint_RW.c **** 	{
 2105               		.loc 3 44 5 is_stmt 0 view .LVU523
 2106 0022 E114      		cp r14,__zero_reg__
 2107 0024 F104      		cpc r15,__zero_reg__
 2108 0026 01F0      		breq .L119
  46:lib/lufa/LUFA/Drivers/USB/Core/AVR8/Template/Template_Endpoint_RW.c **** 		TEMPLATE_BUFFER_MOVE(DataStream, *BytesProcessed);
 2109               		.loc 3 46 3 is_stmt 1 view .LVU524
  46:lib/lufa/LUFA/Drivers/USB/Core/AVR8/Template/Template_Endpoint_RW.c **** 		TEMPLATE_BUFFER_MOVE(DataStream, *BytesProcessed);
 2110               		.loc 3 46 13 is_stmt 0 view .LVU525
 2111 0028 F701      		movw r30,r14
 2112 002a 8081      		ld r24,Z
 2113 002c 9181      		ldd r25,Z+1
  46:lib/lufa/LUFA/Drivers/USB/Core/AVR8/Template/Template_Endpoint_RW.c **** 		TEMPLATE_BUFFER_MOVE(DataStream, *BytesProcessed);
 2114               		.loc 3 46 10 view .LVU526
 2115 002e C81B      		sub r28,r24
 2116 0030 D90B      		sbc r29,r25
 2117               	.LVL188:
  47:lib/lufa/LUFA/Drivers/USB/Core/AVR8/Template/Template_Endpoint_RW.c **** 	}
 2118               		.loc 3 47 3 is_stmt 1 view .LVU527
 2119 0032 080F      		add r16,r24
 2120 0034 191F      		adc r17,r25
 2121               	.LVL189:
 2122               	.L119:
  36:lib/lufa/LUFA/Drivers/USB/Core/AVR8/Template/Template_Endpoint_RW.c **** 	uint8_t* DataStream      = ((uint8_t*)Buffer + TEMPLATE_BUFFER_OFFSET(Length));
 2123               		.loc 3 36 1 is_stmt 0 view .LVU528
 2124 0036 B12C      		mov r11,__zero_reg__
 2125 0038 A12C      		mov r10,__zero_reg__
 2126               	.LVL190:
 2127               	.L120:
  50:lib/lufa/LUFA/Drivers/USB/Core/AVR8/Template/Template_Endpoint_RW.c **** 	{
 2128               		.loc 3 50 8 is_stmt 1 view .LVU529
 2129 003a 2097      		sbiw r28,0
 2130 003c 01F0      		breq .L117
  52:lib/lufa/LUFA/Drivers/USB/Core/AVR8/Template/Template_Endpoint_RW.c **** 		{
 2131               		.loc 3 52 3 view .LVU530
 2132               	.LBB330:
 2133               	.LBI330:
 358:lib/lufa/LUFA/Drivers/USB/Core/AVR8/../AVR8/../AVR8/Endpoint_AVR8.h **** 			{
 2134               		.loc 2 358 23 view .LVU531
 2135               	.LBB331:
 360:lib/lufa/LUFA/Drivers/USB/Core/AVR8/../AVR8/../AVR8/Endpoint_AVR8.h **** 			}
 2136               		.loc 2 360 5 view .LVU532
 360:lib/lufa/LUFA/Drivers/USB/Core/AVR8/../AVR8/../AVR8/Endpoint_AVR8.h **** 			}
 2137               		.loc 2 360 14 is_stmt 0 view .LVU533
 2138 003e 8091 E800 		lds r24,232
 2139               	.LBE331:
 2140               	.LBE330:
  52:lib/lufa/LUFA/Drivers/USB/Core/AVR8/Template/Template_Endpoint_RW.c **** 		{
 2141               		.loc 3 52 6 view .LVU534
 2142 0042 85FD      		sbrc r24,5
 2143 0044 00C0      		rjmp .L121
  54:lib/lufa/LUFA/Drivers/USB/Core/AVR8/Template/Template_Endpoint_RW.c **** 
 2144               		.loc 3 54 4 is_stmt 1 view .LVU535
 2145               	.LBB332:
 2146               	.LBI332:
 468:lib/lufa/LUFA/Drivers/USB/Core/AVR8/../AVR8/../AVR8/Endpoint_AVR8.h **** 			{
 2147               		.loc 2 468 23 view .LVU536
 2148               	.LBB333:
 471:lib/lufa/LUFA/Drivers/USB/Core/AVR8/../AVR8/../AVR8/Endpoint_AVR8.h **** 				#else
 2149               		.loc 2 471 6 view .LVU537
 471:lib/lufa/LUFA/Drivers/USB/Core/AVR8/../AVR8/../AVR8/Endpoint_AVR8.h **** 				#else
 2150               		.loc 2 471 13 is_stmt 0 view .LVU538
 2151 0046 8091 E800 		lds r24,232
 2152 004a 8B77      		andi r24,lo8(123)
 2153 004c 8093 E800 		sts 232,r24
 2154               	.LBE333:
 2155               	.LBE332:
  60:lib/lufa/LUFA/Drivers/USB/Core/AVR8/Template/Template_Endpoint_RW.c **** 			{
 2156               		.loc 3 60 4 is_stmt 1 view .LVU539
  60:lib/lufa/LUFA/Drivers/USB/Core/AVR8/Template/Template_Endpoint_RW.c **** 			{
 2157               		.loc 3 60 7 is_stmt 0 view .LVU540
 2158 0050 E114      		cp r14,__zero_reg__
 2159 0052 F104      		cpc r15,__zero_reg__
 2160 0054 01F0      		breq .L122
  62:lib/lufa/LUFA/Drivers/USB/Core/AVR8/Template/Template_Endpoint_RW.c **** 				return ENDPOINT_RWSTREAM_IncompleteTransfer;
 2161               		.loc 3 62 5 is_stmt 1 view .LVU541
  62:lib/lufa/LUFA/Drivers/USB/Core/AVR8/Template/Template_Endpoint_RW.c **** 				return ENDPOINT_RWSTREAM_IncompleteTransfer;
 2162               		.loc 3 62 21 is_stmt 0 view .LVU542
 2163 0056 F701      		movw r30,r14
 2164 0058 8081      		ld r24,Z
 2165 005a 9181      		ldd r25,Z+1
 2166 005c A80E      		add r10,r24
 2167 005e B91E      		adc r11,r25
 2168               	.LVL191:
  62:lib/lufa/LUFA/Drivers/USB/Core/AVR8/Template/Template_Endpoint_RW.c **** 				return ENDPOINT_RWSTREAM_IncompleteTransfer;
 2169               		.loc 3 62 21 view .LVU543
 2170 0060 B182      		std Z+1,r11
 2171 0062 A082      		st Z,r10
  63:lib/lufa/LUFA/Drivers/USB/Core/AVR8/Template/Template_Endpoint_RW.c **** 			}
 2172               		.loc 3 63 5 is_stmt 1 view .LVU544
  63:lib/lufa/LUFA/Drivers/USB/Core/AVR8/Template/Template_Endpoint_RW.c **** 			}
 2173               		.loc 3 63 12 is_stmt 0 view .LVU545
 2174 0064 85E0      		ldi r24,lo8(5)
 2175 0066 D82E      		mov r13,r24
 2176               	.L117:
 2177               		.loc 3 79 1 view .LVU546
 2178 0068 8D2D      		mov r24,r13
 2179               	/* epilogue start */
 2180 006a DF91      		pop r29
 2181 006c CF91      		pop r28
 2182               	.LVL192:
 2183               		.loc 3 79 1 view .LVU547
 2184 006e 1F91      		pop r17
 2185 0070 0F91      		pop r16
 2186               	.LVL193:
 2187               		.loc 3 79 1 view .LVU548
 2188 0072 FF90      		pop r15
 2189 0074 EF90      		pop r14
 2190               	.LVL194:
 2191               		.loc 3 79 1 view .LVU549
 2192 0076 DF90      		pop r13
 2193 0078 BF90      		pop r11
 2194 007a AF90      		pop r10
 2195 007c 0895      		ret
 2196               	.LVL195:
 2197               	.L122:
  66:lib/lufa/LUFA/Drivers/USB/Core/AVR8/Template/Template_Endpoint_RW.c **** 			  return ErrorCode;
 2198               		.loc 3 66 4 is_stmt 1 view .LVU550
  66:lib/lufa/LUFA/Drivers/USB/Core/AVR8/Template/Template_Endpoint_RW.c **** 			  return ErrorCode;
 2199               		.loc 3 66 21 is_stmt 0 view .LVU551
 2200 007e 0E94 0000 		call Endpoint_WaitUntilReady
 2201               	.LVL196:
  66:lib/lufa/LUFA/Drivers/USB/Core/AVR8/Template/Template_Endpoint_RW.c **** 			  return ErrorCode;
 2202               		.loc 3 66 7 view .LVU552
 2203 0082 8823      		tst r24
 2204 0084 01F0      		breq .L120
  66:lib/lufa/LUFA/Drivers/USB/Core/AVR8/Template/Template_Endpoint_RW.c **** 			  return ErrorCode;
 2205               		.loc 3 66 21 view .LVU553
 2206 0086 D82E      		mov r13,r24
 2207 0088 00C0      		rjmp .L117
 2208               	.LVL197:
 2209               	.L121:
  71:lib/lufa/LUFA/Drivers/USB/Core/AVR8/Template/Template_Endpoint_RW.c **** 			TEMPLATE_BUFFER_MOVE(DataStream, 1);
 2210               		.loc 3 71 4 is_stmt 1 view .LVU554
 2211               	.LBB334:
 2212               	.LBI334:
 540:lib/lufa/LUFA/Drivers/USB/Core/AVR8/../AVR8/../AVR8/Endpoint_AVR8.h **** 			{
 2213               		.loc 2 540 26 view .LVU555
 2214               	.LBB335:
 542:lib/lufa/LUFA/Drivers/USB/Core/AVR8/../AVR8/../AVR8/Endpoint_AVR8.h **** 			}
 2215               		.loc 2 542 5 view .LVU556
 542:lib/lufa/LUFA/Drivers/USB/Core/AVR8/../AVR8/../AVR8/Endpoint_AVR8.h **** 			}
 2216               		.loc 2 542 12 is_stmt 0 view .LVU557
 2217 008a 6091 F100 		lds r22,241
 2218               	.LBE335:
 2219               	.LBE334:
  71:lib/lufa/LUFA/Drivers/USB/Core/AVR8/Template/Template_Endpoint_RW.c **** 			TEMPLATE_BUFFER_MOVE(DataStream, 1);
 2220               		.loc 3 71 4 view .LVU558
 2221 008e C801      		movw r24,r16
 2222 0090 0E94 0000 		call eeprom_update_byte
 2223               	.LVL198:
  72:lib/lufa/LUFA/Drivers/USB/Core/AVR8/Template/Template_Endpoint_RW.c **** 			Length--;
 2224               		.loc 3 72 4 is_stmt 1 view .LVU559
 2225 0094 0F5F      		subi r16,-1
 2226 0096 1F4F      		sbci r17,-1
 2227               	.LVL199:
  73:lib/lufa/LUFA/Drivers/USB/Core/AVR8/Template/Template_Endpoint_RW.c **** 			BytesInTransfer++;
 2228               		.loc 3 73 4 view .LVU560
  73:lib/lufa/LUFA/Drivers/USB/Core/AVR8/Template/Template_Endpoint_RW.c **** 			BytesInTransfer++;
 2229               		.loc 3 73 10 is_stmt 0 view .LVU561
 2230 0098 2197      		sbiw r28,1
 2231               	.LVL200:
  74:lib/lufa/LUFA/Drivers/USB/Core/AVR8/Template/Template_Endpoint_RW.c **** 		}
 2232               		.loc 3 74 4 is_stmt 1 view .LVU562
  74:lib/lufa/LUFA/Drivers/USB/Core/AVR8/Template/Template_Endpoint_RW.c **** 		}
 2233               		.loc 3 74 19 is_stmt 0 view .LVU563
 2234 009a FFEF      		ldi r31,-1
 2235 009c AF1A      		sub r10,r31
 2236 009e BF0A      		sbc r11,r31
 2237               	.LVL201:
  74:lib/lufa/LUFA/Drivers/USB/Core/AVR8/Template/Template_Endpoint_RW.c **** 		}
 2238               		.loc 3 74 19 view .LVU564
 2239 00a0 00C0      		rjmp .L120
 2240               		.cfi_endproc
 2241               	.LFE95:
 2243               		.section	.text.Endpoint_Read_EStream_BE,"ax",@progbits
 2244               	.global	Endpoint_Read_EStream_BE
 2246               	Endpoint_Read_EStream_BE:
 2247               	.LVL202:
 2248               	.LFB96:
  36:lib/lufa/LUFA/Drivers/USB/Core/AVR8/Template/Template_Endpoint_RW.c **** 	uint8_t* DataStream      = ((uint8_t*)Buffer + TEMPLATE_BUFFER_OFFSET(Length));
 2249               		.loc 3 36 1 is_stmt 1 view -0
 2250               		.cfi_startproc
  36:lib/lufa/LUFA/Drivers/USB/Core/AVR8/Template/Template_Endpoint_RW.c **** 	uint8_t* DataStream      = ((uint8_t*)Buffer + TEMPLATE_BUFFER_OFFSET(Length));
 2251               		.loc 3 36 1 is_stmt 0 view .LVU566
 2252 0000 AF92      		push r10
 2253               	.LCFI95:
 2254               		.cfi_def_cfa_offset 3
 2255               		.cfi_offset 10, -2
 2256 0002 BF92      		push r11
 2257               	.LCFI96:
 2258               		.cfi_def_cfa_offset 4
 2259               		.cfi_offset 11, -3
 2260 0004 DF92      		push r13
 2261               	.LCFI97:
 2262               		.cfi_def_cfa_offset 5
 2263               		.cfi_offset 13, -4
 2264 0006 EF92      		push r14
 2265               	.LCFI98:
 2266               		.cfi_def_cfa_offset 6
 2267               		.cfi_offset 14, -5
 2268 0008 FF92      		push r15
 2269               	.LCFI99:
 2270               		.cfi_def_cfa_offset 7
 2271               		.cfi_offset 15, -6
 2272 000a 0F93      		push r16
 2273               	.LCFI100:
 2274               		.cfi_def_cfa_offset 8
 2275               		.cfi_offset 16, -7
 2276 000c 1F93      		push r17
 2277               	.LCFI101:
 2278               		.cfi_def_cfa_offset 9
 2279               		.cfi_offset 17, -8
 2280 000e CF93      		push r28
 2281               	.LCFI102:
 2282               		.cfi_def_cfa_offset 10
 2283               		.cfi_offset 28, -9
 2284 0010 DF93      		push r29
 2285               	.LCFI103:
 2286               		.cfi_def_cfa_offset 11
 2287               		.cfi_offset 29, -10
 2288               	/* prologue: function */
 2289               	/* frame size = 0 */
 2290               	/* stack size = 9 */
 2291               	.L__stack_usage = 9
 2292 0012 EC01      		movw r28,r24
 2293 0014 8B01      		movw r16,r22
 2294 0016 7A01      		movw r14,r20
  37:lib/lufa/LUFA/Drivers/USB/Core/AVR8/Template/Template_Endpoint_RW.c **** 	uint16_t BytesInTransfer = 0;
 2295               		.loc 3 37 2 is_stmt 1 view .LVU567
 2296               	.LVL203:
  38:lib/lufa/LUFA/Drivers/USB/Core/AVR8/Template/Template_Endpoint_RW.c **** 	uint8_t  ErrorCode;
 2297               		.loc 3 38 2 view .LVU568
  39:lib/lufa/LUFA/Drivers/USB/Core/AVR8/Template/Template_Endpoint_RW.c **** 
 2298               		.loc 3 39 2 view .LVU569
  41:lib/lufa/LUFA/Drivers/USB/Core/AVR8/Template/Template_Endpoint_RW.c **** 	  return ErrorCode;
 2299               		.loc 3 41 2 view .LVU570
  41:lib/lufa/LUFA/Drivers/USB/Core/AVR8/Template/Template_Endpoint_RW.c **** 	  return ErrorCode;
 2300               		.loc 3 41 19 is_stmt 0 view .LVU571
 2301 0018 0E94 0000 		call Endpoint_WaitUntilReady
 2302               	.LVL204:
  41:lib/lufa/LUFA/Drivers/USB/Core/AVR8/Template/Template_Endpoint_RW.c **** 	  return ErrorCode;
 2303               		.loc 3 41 19 view .LVU572
 2304 001c D82E      		mov r13,r24
 2305               	.LVL205:
  41:lib/lufa/LUFA/Drivers/USB/Core/AVR8/Template/Template_Endpoint_RW.c **** 	  return ErrorCode;
 2306               		.loc 3 41 5 view .LVU573
 2307 001e 8111      		cpse r24,__zero_reg__
 2308 0020 00C0      		rjmp .L129
  37:lib/lufa/LUFA/Drivers/USB/Core/AVR8/Template/Template_Endpoint_RW.c **** 	uint16_t BytesInTransfer = 0;
 2309               		.loc 3 37 47 view .LVU574
 2310 0022 C801      		movw r24,r16
 2311 0024 0197      		sbiw r24,1
 2312               	.LVL206:
  37:lib/lufa/LUFA/Drivers/USB/Core/AVR8/Template/Template_Endpoint_RW.c **** 	uint16_t BytesInTransfer = 0;
 2313               		.loc 3 37 11 view .LVU575
 2314 0026 C80F      		add r28,r24
 2315 0028 D91F      		adc r29,r25
 2316               	.LVL207:
  44:lib/lufa/LUFA/Drivers/USB/Core/AVR8/Template/Template_Endpoint_RW.c **** 	{
 2317               		.loc 3 44 2 is_stmt 1 view .LVU576
  44:lib/lufa/LUFA/Drivers/USB/Core/AVR8/Template/Template_Endpoint_RW.c **** 	{
 2318               		.loc 3 44 5 is_stmt 0 view .LVU577
 2319 002a E114      		cp r14,__zero_reg__
 2320 002c F104      		cpc r15,__zero_reg__
 2321 002e 01F0      		breq .L131
  46:lib/lufa/LUFA/Drivers/USB/Core/AVR8/Template/Template_Endpoint_RW.c **** 		TEMPLATE_BUFFER_MOVE(DataStream, *BytesProcessed);
 2322               		.loc 3 46 3 is_stmt 1 view .LVU578
  46:lib/lufa/LUFA/Drivers/USB/Core/AVR8/Template/Template_Endpoint_RW.c **** 		TEMPLATE_BUFFER_MOVE(DataStream, *BytesProcessed);
 2323               		.loc 3 46 13 is_stmt 0 view .LVU579
 2324 0030 F701      		movw r30,r14
 2325 0032 8081      		ld r24,Z
 2326 0034 9181      		ldd r25,Z+1
 2327               	.LVL208:
  46:lib/lufa/LUFA/Drivers/USB/Core/AVR8/Template/Template_Endpoint_RW.c **** 		TEMPLATE_BUFFER_MOVE(DataStream, *BytesProcessed);
 2328               		.loc 3 46 10 view .LVU580
 2329 0036 081B      		sub r16,r24
 2330 0038 190B      		sbc r17,r25
 2331               	.LVL209:
  47:lib/lufa/LUFA/Drivers/USB/Core/AVR8/Template/Template_Endpoint_RW.c **** 	}
 2332               		.loc 3 47 3 is_stmt 1 view .LVU581
 2333 003a C81B      		sub r28,r24
 2334 003c D90B      		sbc r29,r25
 2335               	.LVL210:
 2336               	.L131:
  36:lib/lufa/LUFA/Drivers/USB/Core/AVR8/Template/Template_Endpoint_RW.c **** 	uint8_t* DataStream      = ((uint8_t*)Buffer + TEMPLATE_BUFFER_OFFSET(Length));
 2337               		.loc 3 36 1 is_stmt 0 view .LVU582
 2338 003e B12C      		mov r11,__zero_reg__
 2339 0040 A12C      		mov r10,__zero_reg__
 2340               	.LVL211:
 2341               	.L132:
  50:lib/lufa/LUFA/Drivers/USB/Core/AVR8/Template/Template_Endpoint_RW.c **** 	{
 2342               		.loc 3 50 8 is_stmt 1 view .LVU583
 2343 0042 0115      		cp r16,__zero_reg__
 2344 0044 1105      		cpc r17,__zero_reg__
 2345 0046 01F0      		breq .L129
  52:lib/lufa/LUFA/Drivers/USB/Core/AVR8/Template/Template_Endpoint_RW.c **** 		{
 2346               		.loc 3 52 3 view .LVU584
 2347               	.LBB336:
 2348               	.LBI336:
 358:lib/lufa/LUFA/Drivers/USB/Core/AVR8/../AVR8/../AVR8/Endpoint_AVR8.h **** 			{
 2349               		.loc 2 358 23 view .LVU585
 2350               	.LBB337:
 360:lib/lufa/LUFA/Drivers/USB/Core/AVR8/../AVR8/../AVR8/Endpoint_AVR8.h **** 			}
 2351               		.loc 2 360 5 view .LVU586
 360:lib/lufa/LUFA/Drivers/USB/Core/AVR8/../AVR8/../AVR8/Endpoint_AVR8.h **** 			}
 2352               		.loc 2 360 14 is_stmt 0 view .LVU587
 2353 0048 8091 E800 		lds r24,232
 2354               	.LBE337:
 2355               	.LBE336:
  52:lib/lufa/LUFA/Drivers/USB/Core/AVR8/Template/Template_Endpoint_RW.c **** 		{
 2356               		.loc 3 52 6 view .LVU588
 2357 004c 85FD      		sbrc r24,5
 2358 004e 00C0      		rjmp .L133
  54:lib/lufa/LUFA/Drivers/USB/Core/AVR8/Template/Template_Endpoint_RW.c **** 
 2359               		.loc 3 54 4 is_stmt 1 view .LVU589
 2360               	.LBB338:
 2361               	.LBI338:
 468:lib/lufa/LUFA/Drivers/USB/Core/AVR8/../AVR8/../AVR8/Endpoint_AVR8.h **** 			{
 2362               		.loc 2 468 23 view .LVU590
 2363               	.LBB339:
 471:lib/lufa/LUFA/Drivers/USB/Core/AVR8/../AVR8/../AVR8/Endpoint_AVR8.h **** 				#else
 2364               		.loc 2 471 6 view .LVU591
 471:lib/lufa/LUFA/Drivers/USB/Core/AVR8/../AVR8/../AVR8/Endpoint_AVR8.h **** 				#else
 2365               		.loc 2 471 13 is_stmt 0 view .LVU592
 2366 0050 8091 E800 		lds r24,232
 2367 0054 8B77      		andi r24,lo8(123)
 2368 0056 8093 E800 		sts 232,r24
 2369               	.LBE339:
 2370               	.LBE338:
  60:lib/lufa/LUFA/Drivers/USB/Core/AVR8/Template/Template_Endpoint_RW.c **** 			{
 2371               		.loc 3 60 4 is_stmt 1 view .LVU593
  60:lib/lufa/LUFA/Drivers/USB/Core/AVR8/Template/Template_Endpoint_RW.c **** 			{
 2372               		.loc 3 60 7 is_stmt 0 view .LVU594
 2373 005a E114      		cp r14,__zero_reg__
 2374 005c F104      		cpc r15,__zero_reg__
 2375 005e 01F0      		breq .L134
  62:lib/lufa/LUFA/Drivers/USB/Core/AVR8/Template/Template_Endpoint_RW.c **** 				return ENDPOINT_RWSTREAM_IncompleteTransfer;
 2376               		.loc 3 62 5 is_stmt 1 view .LVU595
  62:lib/lufa/LUFA/Drivers/USB/Core/AVR8/Template/Template_Endpoint_RW.c **** 				return ENDPOINT_RWSTREAM_IncompleteTransfer;
 2377               		.loc 3 62 21 is_stmt 0 view .LVU596
 2378 0060 F701      		movw r30,r14
 2379 0062 8081      		ld r24,Z
 2380 0064 9181      		ldd r25,Z+1
 2381 0066 A80E      		add r10,r24
 2382 0068 B91E      		adc r11,r25
 2383               	.LVL212:
  62:lib/lufa/LUFA/Drivers/USB/Core/AVR8/Template/Template_Endpoint_RW.c **** 				return ENDPOINT_RWSTREAM_IncompleteTransfer;
 2384               		.loc 3 62 21 view .LVU597
 2385 006a B182      		std Z+1,r11
 2386 006c A082      		st Z,r10
  63:lib/lufa/LUFA/Drivers/USB/Core/AVR8/Template/Template_Endpoint_RW.c **** 			}
 2387               		.loc 3 63 5 is_stmt 1 view .LVU598
  63:lib/lufa/LUFA/Drivers/USB/Core/AVR8/Template/Template_Endpoint_RW.c **** 			}
 2388               		.loc 3 63 12 is_stmt 0 view .LVU599
 2389 006e 85E0      		ldi r24,lo8(5)
 2390 0070 D82E      		mov r13,r24
 2391               	.LVL213:
 2392               	.L129:
 2393               		.loc 3 79 1 view .LVU600
 2394 0072 8D2D      		mov r24,r13
 2395               	/* epilogue start */
 2396 0074 DF91      		pop r29
 2397 0076 CF91      		pop r28
 2398 0078 1F91      		pop r17
 2399 007a 0F91      		pop r16
 2400               	.LVL214:
 2401               		.loc 3 79 1 view .LVU601
 2402 007c FF90      		pop r15
 2403 007e EF90      		pop r14
 2404               	.LVL215:
 2405               		.loc 3 79 1 view .LVU602
 2406 0080 DF90      		pop r13
 2407 0082 BF90      		pop r11
 2408 0084 AF90      		pop r10
 2409 0086 0895      		ret
 2410               	.LVL216:
 2411               	.L134:
  66:lib/lufa/LUFA/Drivers/USB/Core/AVR8/Template/Template_Endpoint_RW.c **** 			  return ErrorCode;
 2412               		.loc 3 66 4 is_stmt 1 view .LVU603
  66:lib/lufa/LUFA/Drivers/USB/Core/AVR8/Template/Template_Endpoint_RW.c **** 			  return ErrorCode;
 2413               		.loc 3 66 21 is_stmt 0 view .LVU604
 2414 0088 0E94 0000 		call Endpoint_WaitUntilReady
 2415               	.LVL217:
  66:lib/lufa/LUFA/Drivers/USB/Core/AVR8/Template/Template_Endpoint_RW.c **** 			  return ErrorCode;
 2416               		.loc 3 66 7 view .LVU605
 2417 008c 8823      		tst r24
 2418 008e 01F0      		breq .L132
  66:lib/lufa/LUFA/Drivers/USB/Core/AVR8/Template/Template_Endpoint_RW.c **** 			  return ErrorCode;
 2419               		.loc 3 66 21 view .LVU606
 2420 0090 D82E      		mov r13,r24
 2421 0092 00C0      		rjmp .L129
 2422               	.LVL218:
 2423               	.L133:
  71:lib/lufa/LUFA/Drivers/USB/Core/AVR8/Template/Template_Endpoint_RW.c **** 			TEMPLATE_BUFFER_MOVE(DataStream, 1);
 2424               		.loc 3 71 4 is_stmt 1 view .LVU607
 2425               	.LBB340:
 2426               	.LBI340:
 540:lib/lufa/LUFA/Drivers/USB/Core/AVR8/../AVR8/../AVR8/Endpoint_AVR8.h **** 			{
 2427               		.loc 2 540 26 view .LVU608
 2428               	.LBB341:
 542:lib/lufa/LUFA/Drivers/USB/Core/AVR8/../AVR8/../AVR8/Endpoint_AVR8.h **** 			}
 2429               		.loc 2 542 5 view .LVU609
 542:lib/lufa/LUFA/Drivers/USB/Core/AVR8/../AVR8/../AVR8/Endpoint_AVR8.h **** 			}
 2430               		.loc 2 542 12 is_stmt 0 view .LVU610
 2431 0094 6091 F100 		lds r22,241
 2432               	.LBE341:
 2433               	.LBE340:
  71:lib/lufa/LUFA/Drivers/USB/Core/AVR8/Template/Template_Endpoint_RW.c **** 			TEMPLATE_BUFFER_MOVE(DataStream, 1);
 2434               		.loc 3 71 4 view .LVU611
 2435 0098 CE01      		movw r24,r28
 2436 009a 0E94 0000 		call eeprom_update_byte
 2437               	.LVL219:
  72:lib/lufa/LUFA/Drivers/USB/Core/AVR8/Template/Template_Endpoint_RW.c **** 			Length--;
 2438               		.loc 3 72 4 is_stmt 1 view .LVU612
 2439 009e 2197      		sbiw r28,1
 2440               	.LVL220:
  73:lib/lufa/LUFA/Drivers/USB/Core/AVR8/Template/Template_Endpoint_RW.c **** 			BytesInTransfer++;
 2441               		.loc 3 73 4 view .LVU613
  73:lib/lufa/LUFA/Drivers/USB/Core/AVR8/Template/Template_Endpoint_RW.c **** 			BytesInTransfer++;
 2442               		.loc 3 73 10 is_stmt 0 view .LVU614
 2443 00a0 0150      		subi r16,1
 2444 00a2 1109      		sbc r17,__zero_reg__
 2445               	.LVL221:
  74:lib/lufa/LUFA/Drivers/USB/Core/AVR8/Template/Template_Endpoint_RW.c **** 		}
 2446               		.loc 3 74 4 is_stmt 1 view .LVU615
  74:lib/lufa/LUFA/Drivers/USB/Core/AVR8/Template/Template_Endpoint_RW.c **** 		}
 2447               		.loc 3 74 19 is_stmt 0 view .LVU616
 2448 00a4 FFEF      		ldi r31,-1
 2449 00a6 AF1A      		sub r10,r31
 2450 00a8 BF0A      		sbc r11,r31
 2451               	.LVL222:
  74:lib/lufa/LUFA/Drivers/USB/Core/AVR8/Template/Template_Endpoint_RW.c **** 		}
 2452               		.loc 3 74 19 view .LVU617
 2453 00aa 00C0      		rjmp .L132
 2454               		.cfi_endproc
 2455               	.LFE96:
 2457               		.section	.text.Endpoint_Write_Control_Stream_LE,"ax",@progbits
 2458               	.global	Endpoint_Write_Control_Stream_LE
 2460               	Endpoint_Write_Control_Stream_LE:
 2461               	.LVL223:
 2462               	.LFB97:
 2463               		.file 4 "lib/lufa/LUFA/Drivers/USB/Core/AVR8/Template/Template_Endpoint_Control_W.c"
   1:lib/lufa/LUFA/Drivers/USB/Core/AVR8/Template/Template_Endpoint_Control_W.c **** /*
   2:lib/lufa/LUFA/Drivers/USB/Core/AVR8/Template/Template_Endpoint_Control_W.c ****              LUFA Library
   3:lib/lufa/LUFA/Drivers/USB/Core/AVR8/Template/Template_Endpoint_Control_W.c ****      Copyright (C) Dean Camera, 2019.
   4:lib/lufa/LUFA/Drivers/USB/Core/AVR8/Template/Template_Endpoint_Control_W.c **** 
   5:lib/lufa/LUFA/Drivers/USB/Core/AVR8/Template/Template_Endpoint_Control_W.c ****   dean [at] fourwalledcubicle [dot] com
   6:lib/lufa/LUFA/Drivers/USB/Core/AVR8/Template/Template_Endpoint_Control_W.c ****            www.lufa-lib.org
   7:lib/lufa/LUFA/Drivers/USB/Core/AVR8/Template/Template_Endpoint_Control_W.c **** */
   8:lib/lufa/LUFA/Drivers/USB/Core/AVR8/Template/Template_Endpoint_Control_W.c **** 
   9:lib/lufa/LUFA/Drivers/USB/Core/AVR8/Template/Template_Endpoint_Control_W.c **** /*
  10:lib/lufa/LUFA/Drivers/USB/Core/AVR8/Template/Template_Endpoint_Control_W.c ****   Copyright 2019  Dean Camera (dean [at] fourwalledcubicle [dot] com)
  11:lib/lufa/LUFA/Drivers/USB/Core/AVR8/Template/Template_Endpoint_Control_W.c **** 
  12:lib/lufa/LUFA/Drivers/USB/Core/AVR8/Template/Template_Endpoint_Control_W.c ****   Permission to use, copy, modify, distribute, and sell this
  13:lib/lufa/LUFA/Drivers/USB/Core/AVR8/Template/Template_Endpoint_Control_W.c ****   software and its documentation for any purpose is hereby granted
  14:lib/lufa/LUFA/Drivers/USB/Core/AVR8/Template/Template_Endpoint_Control_W.c ****   without fee, provided that the above copyright notice appear in
  15:lib/lufa/LUFA/Drivers/USB/Core/AVR8/Template/Template_Endpoint_Control_W.c ****   all copies and that both that the copyright notice and this
  16:lib/lufa/LUFA/Drivers/USB/Core/AVR8/Template/Template_Endpoint_Control_W.c ****   permission notice and warranty disclaimer appear in supporting
  17:lib/lufa/LUFA/Drivers/USB/Core/AVR8/Template/Template_Endpoint_Control_W.c ****   documentation, and that the name of the author not be used in
  18:lib/lufa/LUFA/Drivers/USB/Core/AVR8/Template/Template_Endpoint_Control_W.c ****   advertising or publicity pertaining to distribution of the
  19:lib/lufa/LUFA/Drivers/USB/Core/AVR8/Template/Template_Endpoint_Control_W.c ****   software without specific, written prior permission.
  20:lib/lufa/LUFA/Drivers/USB/Core/AVR8/Template/Template_Endpoint_Control_W.c **** 
  21:lib/lufa/LUFA/Drivers/USB/Core/AVR8/Template/Template_Endpoint_Control_W.c ****   The author disclaims all warranties with regard to this
  22:lib/lufa/LUFA/Drivers/USB/Core/AVR8/Template/Template_Endpoint_Control_W.c ****   software, including all implied warranties of merchantability
  23:lib/lufa/LUFA/Drivers/USB/Core/AVR8/Template/Template_Endpoint_Control_W.c ****   and fitness.  In no event shall the author be liable for any
  24:lib/lufa/LUFA/Drivers/USB/Core/AVR8/Template/Template_Endpoint_Control_W.c ****   special, indirect or consequential damages or any damages
  25:lib/lufa/LUFA/Drivers/USB/Core/AVR8/Template/Template_Endpoint_Control_W.c ****   whatsoever resulting from loss of use, data or profits, whether
  26:lib/lufa/LUFA/Drivers/USB/Core/AVR8/Template/Template_Endpoint_Control_W.c ****   in an action of contract, negligence or other tortious action,
  27:lib/lufa/LUFA/Drivers/USB/Core/AVR8/Template/Template_Endpoint_Control_W.c ****   arising out of or in connection with the use or performance of
  28:lib/lufa/LUFA/Drivers/USB/Core/AVR8/Template/Template_Endpoint_Control_W.c ****   this software.
  29:lib/lufa/LUFA/Drivers/USB/Core/AVR8/Template/Template_Endpoint_Control_W.c **** */
  30:lib/lufa/LUFA/Drivers/USB/Core/AVR8/Template/Template_Endpoint_Control_W.c **** 
  31:lib/lufa/LUFA/Drivers/USB/Core/AVR8/Template/Template_Endpoint_Control_W.c **** #if defined(TEMPLATE_FUNC_NAME)
  32:lib/lufa/LUFA/Drivers/USB/Core/AVR8/Template/Template_Endpoint_Control_W.c **** 
  33:lib/lufa/LUFA/Drivers/USB/Core/AVR8/Template/Template_Endpoint_Control_W.c **** uint8_t TEMPLATE_FUNC_NAME (const void* const Buffer,
  34:lib/lufa/LUFA/Drivers/USB/Core/AVR8/Template/Template_Endpoint_Control_W.c ****                             uint16_t Length)
  35:lib/lufa/LUFA/Drivers/USB/Core/AVR8/Template/Template_Endpoint_Control_W.c **** {
 2464               		.loc 4 35 1 is_stmt 1 view -0
 2465               		.cfi_startproc
 2466               	/* prologue: function */
 2467               	/* frame size = 0 */
 2468               	/* stack size = 0 */
 2469               	.L__stack_usage = 0
 2470               		.loc 4 35 1 is_stmt 0 view .LVU619
 2471 0000 FC01      		movw r30,r24
  36:lib/lufa/LUFA/Drivers/USB/Core/AVR8/Template/Template_Endpoint_Control_W.c **** 	uint8_t* DataStream     = ((uint8_t*)Buffer + TEMPLATE_BUFFER_OFFSET(Length));
 2472               		.loc 4 36 2 is_stmt 1 view .LVU620
 2473               	.LVL224:
  37:lib/lufa/LUFA/Drivers/USB/Core/AVR8/Template/Template_Endpoint_Control_W.c **** 	bool     LastPacketFull = false;
 2474               		.loc 4 37 2 view .LVU621
  38:lib/lufa/LUFA/Drivers/USB/Core/AVR8/Template/Template_Endpoint_Control_W.c **** 
  39:lib/lufa/LUFA/Drivers/USB/Core/AVR8/Template/Template_Endpoint_Control_W.c **** 	if (Length > USB_ControlRequest.wLength)
 2475               		.loc 4 39 2 view .LVU622
 2476               		.loc 4 39 33 is_stmt 0 view .LVU623
 2477 0002 8091 0000 		lds r24,USB_ControlRequest+6
 2478 0006 9091 0000 		lds r25,USB_ControlRequest+6+1
 2479               	.LVL225:
 2480               		.loc 4 39 5 view .LVU624
 2481 000a 8617      		cp r24,r22
 2482 000c 9707      		cpc r25,r23
 2483 000e 00F0      		brlo .L153
  40:lib/lufa/LUFA/Drivers/USB/Core/AVR8/Template/Template_Endpoint_Control_W.c **** 	  Length = USB_ControlRequest.wLength;
  41:lib/lufa/LUFA/Drivers/USB/Core/AVR8/Template/Template_Endpoint_Control_W.c **** 	else if (!(Length))
 2484               		.loc 4 41 7 is_stmt 1 view .LVU625
 2485               		.loc 4 41 10 is_stmt 0 view .LVU626
 2486 0010 6115      		cp r22,__zero_reg__
 2487 0012 7105      		cpc r23,__zero_reg__
 2488 0014 01F4      		brne .L142
  42:lib/lufa/LUFA/Drivers/USB/Core/AVR8/Template/Template_Endpoint_Control_W.c **** 	  Endpoint_ClearIN();
 2489               		.loc 4 42 4 is_stmt 1 view .LVU627
 2490               	.LBB342:
 2491               	.LBI342:
 453:lib/lufa/LUFA/Drivers/USB/Core/AVR8/../AVR8/../AVR8/Endpoint_AVR8.h **** 			{
 2492               		.loc 2 453 23 view .LVU628
 2493               	.LBB343:
 456:lib/lufa/LUFA/Drivers/USB/Core/AVR8/../AVR8/../AVR8/Endpoint_AVR8.h **** 				#else
 2494               		.loc 2 456 6 view .LVU629
 456:lib/lufa/LUFA/Drivers/USB/Core/AVR8/../AVR8/../AVR8/Endpoint_AVR8.h **** 				#else
 2495               		.loc 2 456 13 is_stmt 0 view .LVU630
 2496 0016 9091 E800 		lds r25,232
 2497 001a 9E77      		andi r25,lo8(126)
 2498 001c 9093 E800 		sts 232,r25
 2499               	.LVL226:
 2500               	.L142:
 456:lib/lufa/LUFA/Drivers/USB/Core/AVR8/../AVR8/../AVR8/Endpoint_AVR8.h **** 				#else
 2501               		.loc 2 456 13 view .LVU631
 2502               	.LBE343:
 2503               	.LBE342:
 2504 0020 90E0      		ldi r25,0
 2505               	.LVL227:
 2506               	.L146:
  43:lib/lufa/LUFA/Drivers/USB/Core/AVR8/Template/Template_Endpoint_Control_W.c **** 
  44:lib/lufa/LUFA/Drivers/USB/Core/AVR8/Template/Template_Endpoint_Control_W.c **** 	while (Length || LastPacketFull)
 2507               		.loc 4 44 8 is_stmt 1 view .LVU632
 2508 0022 6115      		cp r22,__zero_reg__
 2509 0024 7105      		cpc r23,__zero_reg__
 2510 0026 01F4      		brne .L151
 2511               		.loc 4 44 16 is_stmt 0 discriminator 1 view .LVU633
 2512 0028 9111      		cpse r25,__zero_reg__
 2513 002a 00C0      		rjmp .L151
 2514               	.L165:
  45:lib/lufa/LUFA/Drivers/USB/Core/AVR8/Template/Template_Endpoint_Control_W.c **** 	{
  46:lib/lufa/LUFA/Drivers/USB/Core/AVR8/Template/Template_Endpoint_Control_W.c **** 		uint8_t USB_DeviceState_LCL = USB_DeviceState;
  47:lib/lufa/LUFA/Drivers/USB/Core/AVR8/Template/Template_Endpoint_Control_W.c **** 
  48:lib/lufa/LUFA/Drivers/USB/Core/AVR8/Template/Template_Endpoint_Control_W.c **** 		if (USB_DeviceState_LCL == DEVICE_STATE_Unattached)
  49:lib/lufa/LUFA/Drivers/USB/Core/AVR8/Template/Template_Endpoint_Control_W.c **** 		  return ENDPOINT_RWCSTREAM_DeviceDisconnected;
  50:lib/lufa/LUFA/Drivers/USB/Core/AVR8/Template/Template_Endpoint_Control_W.c **** 		else if (USB_DeviceState_LCL == DEVICE_STATE_Suspended)
  51:lib/lufa/LUFA/Drivers/USB/Core/AVR8/Template/Template_Endpoint_Control_W.c **** 		  return ENDPOINT_RWCSTREAM_BusSuspended;
  52:lib/lufa/LUFA/Drivers/USB/Core/AVR8/Template/Template_Endpoint_Control_W.c **** 		else if (Endpoint_IsSETUPReceived())
  53:lib/lufa/LUFA/Drivers/USB/Core/AVR8/Template/Template_Endpoint_Control_W.c **** 		  return ENDPOINT_RWCSTREAM_HostAborted;
  54:lib/lufa/LUFA/Drivers/USB/Core/AVR8/Template/Template_Endpoint_Control_W.c **** 		else if (Endpoint_IsOUTReceived())
  55:lib/lufa/LUFA/Drivers/USB/Core/AVR8/Template/Template_Endpoint_Control_W.c **** 		  break;
  56:lib/lufa/LUFA/Drivers/USB/Core/AVR8/Template/Template_Endpoint_Control_W.c **** 
  57:lib/lufa/LUFA/Drivers/USB/Core/AVR8/Template/Template_Endpoint_Control_W.c **** 		if (Endpoint_IsINReady())
  58:lib/lufa/LUFA/Drivers/USB/Core/AVR8/Template/Template_Endpoint_Control_W.c **** 		{
  59:lib/lufa/LUFA/Drivers/USB/Core/AVR8/Template/Template_Endpoint_Control_W.c **** 			uint16_t BytesInEndpoint = Endpoint_BytesInEndpoint();
  60:lib/lufa/LUFA/Drivers/USB/Core/AVR8/Template/Template_Endpoint_Control_W.c **** 
  61:lib/lufa/LUFA/Drivers/USB/Core/AVR8/Template/Template_Endpoint_Control_W.c **** 			while (Length && (BytesInEndpoint < USB_Device_ControlEndpointSize))
  62:lib/lufa/LUFA/Drivers/USB/Core/AVR8/Template/Template_Endpoint_Control_W.c **** 			{
  63:lib/lufa/LUFA/Drivers/USB/Core/AVR8/Template/Template_Endpoint_Control_W.c **** 				TEMPLATE_TRANSFER_BYTE(DataStream);
  64:lib/lufa/LUFA/Drivers/USB/Core/AVR8/Template/Template_Endpoint_Control_W.c **** 				TEMPLATE_BUFFER_MOVE(DataStream, 1);
  65:lib/lufa/LUFA/Drivers/USB/Core/AVR8/Template/Template_Endpoint_Control_W.c **** 				Length--;
  66:lib/lufa/LUFA/Drivers/USB/Core/AVR8/Template/Template_Endpoint_Control_W.c **** 				BytesInEndpoint++;
  67:lib/lufa/LUFA/Drivers/USB/Core/AVR8/Template/Template_Endpoint_Control_W.c **** 			}
  68:lib/lufa/LUFA/Drivers/USB/Core/AVR8/Template/Template_Endpoint_Control_W.c **** 
  69:lib/lufa/LUFA/Drivers/USB/Core/AVR8/Template/Template_Endpoint_Control_W.c **** 			LastPacketFull = (BytesInEndpoint == USB_Device_ControlEndpointSize);
  70:lib/lufa/LUFA/Drivers/USB/Core/AVR8/Template/Template_Endpoint_Control_W.c **** 			Endpoint_ClearIN();
  71:lib/lufa/LUFA/Drivers/USB/Core/AVR8/Template/Template_Endpoint_Control_W.c **** 		}
  72:lib/lufa/LUFA/Drivers/USB/Core/AVR8/Template/Template_Endpoint_Control_W.c **** 	}
  73:lib/lufa/LUFA/Drivers/USB/Core/AVR8/Template/Template_Endpoint_Control_W.c **** 
  74:lib/lufa/LUFA/Drivers/USB/Core/AVR8/Template/Template_Endpoint_Control_W.c **** 	while (!(Endpoint_IsOUTReceived()))
 2515               		.loc 4 74 8 is_stmt 1 view .LVU634
 2516               	.LBB344:
 2517               	.LBI344:
 417:lib/lufa/LUFA/Drivers/USB/Core/AVR8/../AVR8/../AVR8/Endpoint_AVR8.h **** 			{
 2518               		.loc 2 417 23 view .LVU635
 2519               	.LBB345:
 419:lib/lufa/LUFA/Drivers/USB/Core/AVR8/../AVR8/../AVR8/Endpoint_AVR8.h **** 			}
 2520               		.loc 2 419 5 view .LVU636
 419:lib/lufa/LUFA/Drivers/USB/Core/AVR8/../AVR8/../AVR8/Endpoint_AVR8.h **** 			}
 2521               		.loc 2 419 14 is_stmt 0 view .LVU637
 2522 002c 8091 E800 		lds r24,232
 2523               	.LBE345:
 2524               	.LBE344:
 2525               		.loc 4 74 8 view .LVU638
 2526 0030 82FF      		sbrs r24,2
 2527 0032 00C0      		rjmp .L152
  75:lib/lufa/LUFA/Drivers/USB/Core/AVR8/Template/Template_Endpoint_Control_W.c **** 	{
  76:lib/lufa/LUFA/Drivers/USB/Core/AVR8/Template/Template_Endpoint_Control_W.c **** 		uint8_t USB_DeviceState_LCL = USB_DeviceState;
  77:lib/lufa/LUFA/Drivers/USB/Core/AVR8/Template/Template_Endpoint_Control_W.c **** 
  78:lib/lufa/LUFA/Drivers/USB/Core/AVR8/Template/Template_Endpoint_Control_W.c **** 		if (USB_DeviceState_LCL == DEVICE_STATE_Unattached)
  79:lib/lufa/LUFA/Drivers/USB/Core/AVR8/Template/Template_Endpoint_Control_W.c **** 		  return ENDPOINT_RWCSTREAM_DeviceDisconnected;
  80:lib/lufa/LUFA/Drivers/USB/Core/AVR8/Template/Template_Endpoint_Control_W.c **** 		else if (USB_DeviceState_LCL == DEVICE_STATE_Suspended)
  81:lib/lufa/LUFA/Drivers/USB/Core/AVR8/Template/Template_Endpoint_Control_W.c **** 		  return ENDPOINT_RWCSTREAM_BusSuspended;
  82:lib/lufa/LUFA/Drivers/USB/Core/AVR8/Template/Template_Endpoint_Control_W.c **** 		else if (Endpoint_IsSETUPReceived())
  83:lib/lufa/LUFA/Drivers/USB/Core/AVR8/Template/Template_Endpoint_Control_W.c **** 		  return ENDPOINT_RWCSTREAM_HostAborted;
  84:lib/lufa/LUFA/Drivers/USB/Core/AVR8/Template/Template_Endpoint_Control_W.c **** 	}
  85:lib/lufa/LUFA/Drivers/USB/Core/AVR8/Template/Template_Endpoint_Control_W.c **** 
  86:lib/lufa/LUFA/Drivers/USB/Core/AVR8/Template/Template_Endpoint_Control_W.c **** 	return ENDPOINT_RWCSTREAM_NoError;
 2528               		.loc 4 86 9 view .LVU639
 2529 0034 80E0      		ldi r24,0
 2530 0036 0895      		ret
 2531               	.LVL228:
 2532               	.L153:
 2533               		.loc 4 86 9 view .LVU640
 2534 0038 BC01      		movw r22,r24
 2535               	.LVL229:
 2536               		.loc 4 86 9 view .LVU641
 2537 003a 00C0      		rjmp .L142
 2538               	.LVL230:
 2539               	.L151:
 2540               	.LBB346:
  46:lib/lufa/LUFA/Drivers/USB/Core/AVR8/Template/Template_Endpoint_Control_W.c **** 
 2541               		.loc 4 46 3 is_stmt 1 view .LVU642
  46:lib/lufa/LUFA/Drivers/USB/Core/AVR8/Template/Template_Endpoint_Control_W.c **** 
 2542               		.loc 4 46 11 is_stmt 0 view .LVU643
 2543 003c 8091 0000 		lds r24,USB_DeviceState
 2544               	.LVL231:
  48:lib/lufa/LUFA/Drivers/USB/Core/AVR8/Template/Template_Endpoint_Control_W.c **** 		  return ENDPOINT_RWCSTREAM_DeviceDisconnected;
 2545               		.loc 4 48 3 is_stmt 1 view .LVU644
  48:lib/lufa/LUFA/Drivers/USB/Core/AVR8/Template/Template_Endpoint_Control_W.c **** 		  return ENDPOINT_RWCSTREAM_DeviceDisconnected;
 2546               		.loc 4 48 6 is_stmt 0 view .LVU645
 2547 0040 8823      		tst r24
 2548 0042 01F0      		breq .L157
  50:lib/lufa/LUFA/Drivers/USB/Core/AVR8/Template/Template_Endpoint_Control_W.c **** 		  return ENDPOINT_RWCSTREAM_BusSuspended;
 2549               		.loc 4 50 8 is_stmt 1 view .LVU646
  50:lib/lufa/LUFA/Drivers/USB/Core/AVR8/Template/Template_Endpoint_Control_W.c **** 		  return ENDPOINT_RWCSTREAM_BusSuspended;
 2550               		.loc 4 50 11 is_stmt 0 view .LVU647
 2551 0044 8530      		cpi r24,lo8(5)
 2552 0046 01F0      		breq .L158
  52:lib/lufa/LUFA/Drivers/USB/Core/AVR8/Template/Template_Endpoint_Control_W.c **** 		  return ENDPOINT_RWCSTREAM_HostAborted;
 2553               		.loc 4 52 8 is_stmt 1 view .LVU648
 2554               	.LBB347:
 2555               	.LBI347:
 429:lib/lufa/LUFA/Drivers/USB/Core/AVR8/../AVR8/../AVR8/Endpoint_AVR8.h **** 			{
 2556               		.loc 2 429 23 view .LVU649
 2557               	.LBB348:
 431:lib/lufa/LUFA/Drivers/USB/Core/AVR8/../AVR8/../AVR8/Endpoint_AVR8.h **** 			}
 2558               		.loc 2 431 5 view .LVU650
 431:lib/lufa/LUFA/Drivers/USB/Core/AVR8/../AVR8/../AVR8/Endpoint_AVR8.h **** 			}
 2559               		.loc 2 431 14 is_stmt 0 view .LVU651
 2560 0048 8091 E800 		lds r24,232
 2561               	.LVL232:
 431:lib/lufa/LUFA/Drivers/USB/Core/AVR8/../AVR8/../AVR8/Endpoint_AVR8.h **** 			}
 2562               		.loc 2 431 14 view .LVU652
 2563               	.LBE348:
 2564               	.LBE347:
  52:lib/lufa/LUFA/Drivers/USB/Core/AVR8/Template/Template_Endpoint_Control_W.c **** 		  return ENDPOINT_RWCSTREAM_HostAborted;
 2565               		.loc 4 52 11 view .LVU653
 2566 004c 83FD      		sbrc r24,3
 2567 004e 00C0      		rjmp .L159
  54:lib/lufa/LUFA/Drivers/USB/Core/AVR8/Template/Template_Endpoint_Control_W.c **** 		  break;
 2568               		.loc 4 54 8 is_stmt 1 view .LVU654
 2569               	.LBB349:
 2570               	.LBI349:
 417:lib/lufa/LUFA/Drivers/USB/Core/AVR8/../AVR8/../AVR8/Endpoint_AVR8.h **** 			{
 2571               		.loc 2 417 23 view .LVU655
 2572               	.LBB350:
 419:lib/lufa/LUFA/Drivers/USB/Core/AVR8/../AVR8/../AVR8/Endpoint_AVR8.h **** 			}
 2573               		.loc 2 419 5 view .LVU656
 419:lib/lufa/LUFA/Drivers/USB/Core/AVR8/../AVR8/../AVR8/Endpoint_AVR8.h **** 			}
 2574               		.loc 2 419 14 is_stmt 0 view .LVU657
 2575 0050 8091 E800 		lds r24,232
 2576               	.LBE350:
 2577               	.LBE349:
  54:lib/lufa/LUFA/Drivers/USB/Core/AVR8/Template/Template_Endpoint_Control_W.c **** 		  break;
 2578               		.loc 4 54 11 view .LVU658
 2579 0054 82FD      		sbrc r24,2
